------- FILE DIGDUG_works.ASM LEVEL 1 PASS 2
      1  10000					       processor	6502
      2  10000 ????						;*;*;*;*;*;*;*;*;*;*;*;*;*;*;*;*;*;*;*;*;*;*;*;*;*;*;*;*;*;*;*;*;*;*;*;*;*;*;*;*;*;*;*;*;*;*;*;*;*;*;*;*;*;*;*;*;*;*;*;*;*;*;*;*;*;*;*;*;*;*;*;*;*;*;*;*;*;*;*
      3  10000 ????
      4  10000 ????						;*;*;*;*;*;*;*;*;*;*;*;		    3600 DIG DUG		       ;*;*;*;*;*;*;*;*;*;*;*;*;*
      5  10000 ????
      6  10000 ????						;*;*;*;*;*;*;*;*;*;*;*;*;*;*;*;*;*;*;*;*;*;*;*;*;*;*;*;*;*;*;*;*;*;*;*;*;*;*;*;*;*;*;*;*;*;*;*;*;*;*;*;*;*;*;*;*;*;*;*;*;*;*;*;*;*;*;*;*;*;*;*;*;*;*;*;*;*;*;*
      7  10000 ????						;*;*;*;*;*;*;*;*;*;*;*;*;*;*;*;*;*;*;*;*;*;*;*;*;*;*;*;*;*;*;*;*;*;*;*;*;*;*;*;*;*;*;*;*;*;*;*;*;*;*;*;*;*;*;*;*;*;*;*;*;*;*;*;*;*;*;*;*;*;*;*;*;*;*;*;*;*;*;*
      8  10000 ????
      9  10000 ????
     10  10000 ????						;	  THE NECESSARY PROLOG FOR MARIA CODE
     11  10000 ????
     12  10000 ????						;;*;*;*;*;*;*;*;*;*;*;*;*;*;*;*;*;*;*;*;*;*;*;*;*;*;*;*;*;*;*;*;*;*;*;*;*;*;*;*;*;*;*;*;*;*;*;*;*;*;*;*;*;*;*;*;*;*;*;*;*;*;*;*;*;*;*;*;*;*;*;*;*;*;*;*;*;*;*;*
     13  10000 ????						;  STELLA (TIA) REGISTER ADDRESSES
     14  10000 ????						; NOTE THESE REGISTERS ARE SHADOWED AT 100 TO 11F
     15  10000 ????						;	   ;				 200 TO 21F
     16  10000 ????						;	   ;				 300 TO 31F
     17  10000 ????						;;*;*;*;*;*;*;*;*;*;*;*;*;*;*;*;*;*;*;*;*;*;*;*;*;*;*;*;*;*;*;*;*;*;*;*;*;*;*;*;*;*;*;*;*;*;*;*;*;*;*;*;*;*;*;*;*;*;*;*;*;*;*;*;*;*;*;*;*;*;*;*;*;*;*;*;*;*;*;*
     18  10000 ????
     19  10000 ????		00 01	    VBLANK     EQU	$01
     20  10000 ????		00 15	    AUDC0      EQU	$15	;BITS	   3210 AUDIO CONTROL 0
     21  10000 ????		00 16	    AUDC1      EQU	$16	;BITS	   3210 AUDIO CONTROL 1
     22  10000 ????		00 17	    AUDF0      EQU	$17	;BITS	   3210 AUDIO FREQUENCY 0
     23  10000 ????		00 18	    AUDF1      EQU	$18	;BITS	   3210 AUDIO FREQUENCY 1
     24  10000 ????		00 19	    AUDV0      EQU	$19	;BITS	   3210 AUDIO VOLUME 0
     25  10000 ????		00 1a	    AUDV1      EQU	$1A	;BITS	   3210 AUDIO VOLUME 1
     26  10000 ????		00 38	    INPT0      EQU	$38
     27  10000 ????		00 39	    INPT1      EQU	$39
     28  10000 ????		00 3a	    INPT2      EQU	$3A
     29  10000 ????		00 3b	    INPT3      EQU	$3B
     30  10000 ????		00 0c	    INPT4      EQU	$0C	;PLAYER 0 BUTTON CLEAR WHEN HIT
     31  10000 ????		00 0d	    INPT5      EQU	$0D	;PLAYER 1 BUTTON CLEAR WHEN HIT
     32  10000 ????
     33  10000 ????
     34  10000 ????
     35  10000 ????
     36  10000 ????
     37  10000 ????						;;*;*;*;*;*;*;*;*;*;*;*;*;*;*;*;*;*;*;*;*;*;*;*;*;*;*;*;*;*;*;*;*;*;*;*;*;*;*;*;*;*;*;*;*;*;*;*;*;*;*;*;*;*;*;*;*;*;*;*;*;*;*;*;*;*;*;*;*;*;*;*;*;*;*;*;*;*;*;*
     38  10000 ????						; MARIA REGISTERS
     39  10000 ????						; NOTE THESE REGISTERS ARE SHADOWED AT 120 TO 13F
     40  10000 ????						;	   ;				 220 TO 23F
     41  10000 ????						;	   ;				 320 TO 33F
     42  10000 ????						;;*;*;*;*;*;*;*;*;*;*;*;*;*;*;*;*;*;*;*;*;*;*;*;*;*;*;*;*;*;*;*;*;*;*;*;*;*;*;*;*;*;*;*;*;*;*;*;*;*;*;*;*;*;*;*;*;*;*;*;*;*;*;*;*;*;*;*;*;*;*;*;*;*;*;*;*;*;*;*
     43  10000 ????		00 20	    P0C0       EQU	$20	;		      ;BACKGROUND COLOR 		 RW
     44  10000 ????						;	   ALL PALETTE AND COLOR ARE HIGH NIBBLE COLOR, LOW NIBBLE LUMINANCE
     45  10000 ????		00 21	    P0C1       EQU	$21	;		      ;PALETTE ZERO COLOR ONE		 RW
     46  10000 ????		00 22	    P0C2       EQU	$22	;		      ;PALETTE ZERO COLOR TWO		 RW
     47  10000 ????		00 23	    P0C3       EQU	$23	;		      ;PALETTE ZERO COLOR THREE 	 RW
     48  10000 ????		00 24	    WSYNC      EQU	$24	;		      ;FAST MARIA WSYNC STROBE
     49  10000 ????		00 25	    P1C1       EQU	$25	;		      ;PALETTE ONE COLOR ONE		 RW
     50  10000 ????		00 26	    P1C2       EQU	$26	;		      ;PALETTE ONE COLOR TWO		 RW
     51  10000 ????		00 27	    P1C3       EQU	$27	;		      ;PALETTE ONE COLOR THREE		 RW
     52  10000 ????		00 28	    CTRLRD     EQU	$28	;		      ;BIT 7 IN VBLANK, BIT 6 IN DISPLAY RO
     53  10000 ????		00 29	    P2C1       EQU	$29	;		      ;PALETTE TWO COLOR ONE		 RW
     54  10000 ????		00 2a	    P2C2       EQU	$2A	;		      ;PALETTE TWO COLOR TWO		 RW
     55  10000 ????		00 2b	    P2C3       EQU	$2B	;		      ;PALETTE TWO COLOR THREE		 RW
     56  10000 ????		00 2c	    DPPH       EQU	$2C	;		      ;DISPLAY LIST POINTER HIGH	 WO
     57  10000 ????		00 2d	    P3C1       EQU	$2D	;		      ;PALETTE THREE COLOR ONE		 RW
     58  10000 ????		00 2e	    P3C2       EQU	$2E	;		      ;PALETTE THREE COLOR TWO		 RW
     59  10000 ????		00 2f	    P3C3       EQU	$2F	;		      ;PALETTE THREE COLOR THREE	 RW
     60  10000 ????		00 30	    DPPL       EQU	$30	;		      ;DISPLAY LIST POINTER LOW 	 WO
     61  10000 ????		00 31	    P4C1       EQU	$31	;		      ;PALETTE FOUR COLOR ONE		 RW
     62  10000 ????		00 32	    P4C2       EQU	$32	;		      ;PALETTE FOUR COLOR TWO		 RW
     63  10000 ????		00 33	    P4C3       EQU	$33	;		      ;PALETTE FOUR COLOR THREE 	 RW
     64  10000 ????		00 34	    CHARBASE   EQU	$34	;		      :CHARACTER MODE HIGH POINTER	 WO
     65  10000 ????		00 35	    P5C1       EQU	$35	;		      ;PALETTE FIVE COLOR ONE		 RW
     66  10000 ????		00 36	    P5C2       EQU	$36	;		      ;PALETTE FIVE COLOR TWO		 RW
     67  10000 ????		00 37	    P5C3       EQU	$37	;		      ;PALETTE FIVE COLOR THREE 	 RW
     68  10000 ????		00 38	    OFFSET     EQU	$38	;		      ;GRAPHICS HIGH POINTER OFFSET	 RW
     69  10000 ????		00 39	    P6C1       EQU	$39	;		      ;PALETTE SIX COLOR ONE		 RW
     70  10000 ????		00 3a	    P6C2       EQU	$3A	;		      ;PALETTE SIX COLOR TWO		 RW
     71  10000 ????		00 3b	    P6C3       EQU	$3B	;		      ;PALETTE SIX COLOR THREE		 RW
     72  10000 ????		00 3c	    CTRL       EQU	$3C	;		      ;WRITE: (SEE BELOW FOR MORE INFO)
     73  10000 ????						;				 ;   CK DM1 DM0 CWIDTH BCNTL KM RM1 RM0
     74  10000 ????		00 3d	    P7C1       EQU	$3D	;		      ;PALETTE SEVEN COLOR ONE		 RW
     75  10000 ????		00 3e	    P7C2       EQU	$3E	;		      ;PALETTE SEVEN COLOR TWO		 RW
     76  10000 ????		00 3f	    P7C3       EQU	$3F	;		      ;PALETTE SEVEN COLOR THREE	 RW
     77  10000 ????
     78  10000 ????						;*CTRL REGISTER:   CK:      COLOR KILL
     79  10000 ????						;*		    DMn:     DMA MODE
     80  10000 ????						;*		    CWIDTH:  CHAR MAP WIDTH
     81  10000 ????						;*		    BCNTL:   BORDER CONTROL
     82  10000 ????						;*		    KM:      KANGAROO MODE
     83  10000 ????						;*		    RMn:     READ MODE
     84  10000 ????
     85  10000 ????						;*	    DM1     DM0      MEANING:
     86  10000 ????						;*	    0	    0	     TEST A "EOVB"
     87  10000 ????						;*	    0	    1	     TEST B "STARTSCAN"
     88  10000 ????						;*	    1	    0	     RUN NORMALLY
     89  10000 ????						;*	    1	    1	     INACTIVE
     90  10000 ????
     91  10000 ????
     92  10000 ????						;;*;*;*;*;*;*;*;*;*;*;*;*;*;*;*;*;*;*;*;*;*;*;*;*;*;*;*;*;*;*;*;*;*;*;*;*;*;*;*;*;*;*;*;*;*;*;*;*;*;*;*;*;*;*;*;*;*;*;*;*;*;*;*;*;*;*;*;*;*;*;*;*;*;*;*;*;*;*;*
     93  10000 ????						; ZERO PAGE RAM   040 TO 07F
     94  10000 ????						; NOTE THIS RAM IS SHADOWED AT 2040 TO 207F
     95  10000 ????						;;*;*;*;*;*;*;*;*;*;*;*;*;*;*;*;*;*;*;*;*;*;*;*;*;*;*;*;*;*;*;*;*;*;*;*;*;*;*;*;*;*;*;*;*;*;*;*;*;*;*;*;*;*;*;*;*;*;*;*;*;*;*;*;*;*;*;*;*;*;*;*;*;*;*;*;*;*;*;*
     96  0040					      ORG	$0040
     97  0040
     98  0040		       00 40	   STMPYPOS   EQU	$40	;		      ;THESE ARE TOTLSTMP BYTES EACH: USED
     99  0040		       00 53	   STMPXPOS   EQU	$53	;		      ;  BY GENDPL TO GENERATE DISPLAY LIST.
    100  0040		       00 66	   STMPINDX   EQU	$66	;		      ;  ORDER OF STAMPS IS IN INCREASING
    101  0040							;				 ;  PRIORITY.
    102  0040		       00 40	   DDYPOS     EQU	$40	;		      ;DIGDUG.
    103  0040		       00 53	   DDXPOS     EQU	$53
    104  0040		       00 66	   DDINDX     EQU	$66
    105  0040
    106  0040		       00 41	   POOKAY     EQU	$41	;		      ;4 POOKAS.
    107  0040		       00 54	   POOKAX     EQU	$54
    108  0040		       00 67	   POOKAIX    EQU	$67
    109  0040
    110  0040		       00 45	   FYGARY     EQU	$45	;		      ;4 FYGARS.
    111  0040		       00 58	   FYGARX     EQU	$58
    112  0040		       00 6b	   FYGARIX    EQU	$6B
    113  0040
    114  0040		       00 49	   ROCKSY     EQU	$49	;		      ;5 ROCKS POSSIBLE.
    115  0040		       00 5c	   ROCKSX     EQU	$5C
    116  0040		       00 6f	   ROCKSIX    EQU	$6F
    117  0040
    118  0040		       00 4e	   FLAMEY     EQU	$4E	;		      ;1 FLAME AT A TIME.
    119  0040		       00 61	   FLAMEX     EQU	$61
    120  0040		       00 74	   FLAMEIX    EQU	$74
    121  0040
    122  0040		       00 4f	   PUMPY      EQU	$4F	;		      ;SHARED BY PUMP AND HARPOON.
    123  0040		       00 62	   PUMPX      EQU	$62
    124  0040		       00 75	   PUMPIX     EQU	$75
    125  0040
    126  0040		       00 52	   FRUITY     EQU	$52	;		      ;FRUIT (ALIAS VEGGIES...).
    127  0040		       00 65	   FRUITX     EQU	$65
    128  0040		       00 78	   FRUITIX    EQU	$78
    129  0040
    130  0040		       00 79	   SNGPTR     EQU	$79
    131  0040		       00 7a	   SNGPTR2    EQU	$7A
    132  0040
    133  0040		       00 7b	   PUMPIE     EQU	$7B
    134  0040		       00 7c	   FLAMSIZE   EQU	$7C
    135  0040		       00 7d	   FLAMNUM    EQU	$7D
    136  0040
    137  0040							;* FOLLOWING 11 REGISTERS ARE INIT IN INIT. THEY MUST REMAIN ADJACENT
    138  0040		       00 7e	   CURSONG    EQU	$7E	;		      ;CURRENT SONG.
    139  0040		       00 7f	   SNGTEMP1   EQU	$7F	;		      ;HIGHEST PRIORITY NOISE REQUEST
    140  0040							;;*;*;*;*;*;*;*;*;*;*;*;*;*;*;*;*;*;*;*;*;*;*;*;*;*;*;*;*;*;*;*;*;*;*;*;*;*;*;*;*;*;*;*;*;*;*;*;*;*;*;*;*;*;*;*;*;*;*;*;*;*;*;*;*;*;*;*;*;*;*;*;*;*;*;*;*;*;*;*
    141  0040							; ZERO PAGE RAM   080 TO 0FF
    142  0040							; NOTE THIS RAM IS SHADOWED AT 2180 TO 21FF
    143  0040							;;*;*;*;*;*;*;*;*;*;*;*;*;*;*;*;*;*;*;*;*;*;*;*;*;*;*;*;*;*;*;*;*;*;*;*;*;*;*;*;*;*;*;*;*;*;*;*;*;*;*;*;*;*;*;*;*;*;*;*;*;*;*;*;*;*;*;*;*;*;*;*;*;*;*;*;*;*;*;*
    144  0080					      ORG	$0080
    145  0080		       00 80	   LASTMOVE   EQU	$80	;		      ;LAST DIGDUG MOVEMENT.
    146  0080		       00 81	   DLSTPTR    EQU	$81	;		      ;0,$40 FOR DLIST 0,1: USE VFLAG!
    147  0080		       00 82	   NUMPLAYR   EQU	$82	;		      ;NUMBER OF PLAYERS (0 => 1, 1 => 2).
    148  0080		       00 83	   DEATH      EQU	$83
    149  0080		       00 84	   DETHWISH   EQU	$84
    150  0080		       00 85	   ENTRY      EQU	$85	;		      ;DIGDUG WALKING ONTO SCREEN.
    151  0080		       00 86	   FRMCNT     EQU	$86
    152  0080		       00 87	   PLAYNUM    EQU	$87	;		      ;CURRENT PLAYER NUMBER.
    153  0080		       00 88	   BONZO      EQU	$88
    154  0080
    155  0080		       00 89	   PROPORT2   EQU	$89
    156  0080		       00 8a	   PROPORT3   EQU	$8A
    157  0080
    158  0080		       00 8b	   LISTSIZ    EQU	$8B	;		      ;# OF BYTES USED IN DLIST FOR EACH ZONE
    159  0080							;				 ;  (THROUGH $9A).
    160  0080
    161  0080
    162  0080
    163  0080		       00 9b	   RACKNUM    EQU	$9B	;		      ;AND $9C:ACTUAL RACK # FOR EACH PLAYER.
    164  0080							;* +1	    EQU     $9C
    165  0080		       00 9d	   MAXPUMP    EQU	$9D
    166  0080		       00 9e	   NUMMEN     EQU	$9E	;		      ;AND $9F: NUMBER OF MEN LEFT.
    167  0080							;* +1	    EQU     $9F
    168  0080		       00 a0	   ATTRACT    EQU	$A0
    169  0080		       00 a1	   SYNCFRAM   EQU	$A1	;		      ;IT"S BACK!!!
    170  0080		       00 a2	   SCOREL     EQU	$A2	;		      ;AND $A3: LOW BYTES OF SCORE FOR P0,P1.
    171  0080		       00 a4	   SCOREM     EQU	$A4	;		      ;AND $A5: MIDDLE BYTES FOR EACH PLAYER.
    172  0080		       00 a6	   SCOREH     EQU	$A6	;		      ;AND $A7: HIGH BYTES OF SCORE.
    173  0080		       00 a8	   NONOISE    EQU	$A8
    174  0080		       00 a9	   ASTAGE     EQU	$A9	;		      ;STAGE FOR ATTRACT MODE SAMPLE RACK.
    175  0080		       00 aa	   AVAROBIN   EQU	$AA
    176  0080		       00 ab	   RNDM       EQU	$AB	;		      ;FOR 2 BYTES
    177  0080							;*	    EQU     $AC
    178  0080		       00 ad	   TITLETIM   EQU	$AD	;		      ;TIMER FOR TITLEPAG: GETS INCREMENTED
    179  0080							;				 ;  EVERY FRAME ALL THE TIME!
    180  0080		       00 ae	   SELCTIM    EQU	$AE	;		      ;TIMER FOR SELECT: COUNTS NUMBER OF 4
    181  0080							;				 ;  SECOND INTERVALS IN KERNEL.
    182  0080		       00 af	   PROPORT    EQU	$AF
    183  0080		       00 b0	   DIGSPEED   EQU	$B0
    184  0080		       00 b1	   PUMPCT     EQU	$B1	;		      ;ANIMATION COUNTER.
    185  0080		       00 b2	   MONSTAT    EQU	$B2	;		      ;THROUGH $B9.
    186  0080		       00 ba	   DIR	      EQU	$BA	;		      ;THROUGH $C1.
    187  0080		       00 c2	   NOTUNNEL   EQU	$C2
    188  0080							;*KEEP TUMBLE, FALLCNT, BRCREAT, BRTUNNL  NEXT TO EACH OTHER.
    189  0080		       00 c3	   TUMBLE     EQU	$C3	;		      ;THROUGH $C7.
    190  0080		       00 c8	   FALLCNT    EQU	$C8	;		      ;NUMBER OF ROCKS FALLEN THIS RACK
    191  0080		       00 c9	   BRCREAT    EQU	$C9	;		      ;SAVE RCREATS FOR BONZO MODE.
    192  0080		       00 ca	   BRTUNNL    EQU	$CA	;		      ;SAVE RTUNNELS FOR BONZO MODE.
    193  0080
    194  0080		       00 cb	   HITROCK    EQU	$CB	;		      ;ROCK WHICH DIGDUG IS DIRECTLY UNDER.
    195  0080
    196  0080		       00 cc	   TEMP       EQU	$CC	;		      ;THROUGH $DF.
    197  0080		       00 cc	   TEMP1      EQU	$CC
    198  0080		       00 cd	   TEMP2      EQU	$CD
    199  0080		       00 ce	   TEMP3      EQU	$CE
    200  0080		       00 cf	   TEMP4      EQU	$CF
    201  0080		       00 d0	   TEMP5      EQU	$D0
    202  0080
    203  0080							;*;*;*;*;*;*;*;*;*;*;*
    204  0080		       00 cc	   TEMP0      EQU	TEMP
    205  0080		       00 ce	   TCOUNT     EQU	TEMP+2	;		   ;INITDIRT,INCREATS TEMPS.
    206  0080		       00 cf	   PCOUNT     EQU	TEMP+3
    207  0080		       00 d0	   FCOUNT     EQU	TEMP+4
    208  0080		       00 d1	   RCREATS    EQU	TEMP+5
    209  0080		       00 d2	   RTUNNELS   EQU	TEMP+6
    210  0080
    211  0080		       00 ce	   TEMPX      EQU	TEMP+2	;		   ;INITROCK TEMPS.
    212  0080		       00 cf	   REGROCK    EQU	TEMP+3
    213  0080		       00 d0	   RANDROCK   EQU	TEMP+4
    214  0080
    215  0080		       00 ce	   CURROCK    EQU	TEMP+2	;		   ;FALL TEMP
    216  0080		       00 d0	   VICTIMX    EQU	TEMP+4	;		   ;FALL TEMP
    217  0080		       00 d1	   VICTIMY    EQU	TEMP+5	;		   ;FALL TEMP
    218  0080		       00 d2	   RTEMP      EQU	TEMP+6	;		   ;FALL TEMP
    219  0080		       00 d3	   RTEMP2     EQU	TEMP+7	;		   ;FALL TEMP - MUST FOLLOW RTEMP
    220  0080		       00 d4	   ROCKSNOW   EQU	TEMP+8	;		   ;FALL TEMP
    221  0080
    222  0080		       00 d8	   GHOSTTMP   EQU	TEMP+12	;		  ;MONSTER TEMP
    223  0080		       00 d9	   MTEMP      EQU	TEMP+13	;		  ;MONSTER TEMP
    224  0080
    225  0080		       00 ce	   CURRBLW    EQU	TEMP+2	;		   ;BLOWUP TEMP
    226  0080		       00 cf	   BLWTEMP    EQU	TEMP+3	;		   ;BLOWUP TEMP
    227  0080
    228  0080							;	   ;				   ;DDMOVE TEMPS (+0,+1)
    229  0080		       00 cf	   DRTPTR     EQU	TEMP+3	;		   ;DDMOVE: AND TEMP+4
    230  0080		       00 d2	   DIGTEMP    EQU	TEMP+6	;		   ;DDMOVE
    231  0080							;	   ;				   ;DDMOVE: TEMP+7,TEMP+9,TEMP+10
    232  0080
    233  0080		       00 d7	   CHKTMP1    EQU	TEMP+11	;		  ;CHKSTATE TEMPS
    234  0080		       00 d8	   CHKTMP2    EQU	TEMP+12
    235  0080		       00 d9	   CHKTMP3    EQU	TEMP+13
    236  0080		       00 da	   CHKTMP4    EQU	TEMP+14
    237  0080
    238  0080		       00 d5	   DETHTEMP   EQU	TEMP+9	;		   ;DEATH TEMP: MUST NOT OVERLAP GENDPL
    239  0080		       00 d6	   DEATHCNT   EQU	TEMP+10	;		  ;(ACTUALLY FREEZFRM TEMP) OR CHKSTATE.
    240  0080		       00 d6	   DTEMP2     EQU	TEMP+10
    241  0080
    242  0080		       00 d8	   DPLOW2     EQU	TEMP+12	;		  ;TITLEPAGE TEMPS (+0,+1,+15,+16) -
    243  0080		       00 d9	   DPHIGH2    EQU	TEMP+13	;		  ;  MUST NOT OVERLAP FALL (2-8),
    244  0080		       00 d6	   TSTAGE     EQU	TEMP+10	;		  ;  CHKSTATE, LOADER (11-19), OR TCMOVE
    245  0080		       00 ce	   TCTEMP     EQU	TEMP+2	;		   ;  TEMPS.
    246  0080
    247  0080		       00 d1	   FAKEJOY    EQU	TEMP+5	;		   ;SELECT MODE TEMPS... (+0,1,12-16)
    248  0080
    249  0080		       00 df	   SCORTEMP   EQU	TEMP+19	;		  ;ADDSCORE TEMP.
    250  0080
    251  0080		       00 da	   DIRTPTR    EQU	TEMP+14	;		  ;INITDIRT TEMPS: THRU TEMP+19.
    252  0080
    253  0080		       00 d7	   TEMPYPOS   EQU	TEMP+11	;		  ;LOADER TEMP VARIABLES...
    254  0080		       00 d8	   HEADER0    EQU	TEMP+12
    255  0080		       00 d9	   HEADER1    EQU	TEMP+13
    256  0080		       00 da	   HEADER3    EQU	TEMP+14
    257  0080		       00 db	   DPLOW      EQU	TEMP+15
    258  0080		       00 dc	   DPHIGH     EQU	TEMP+16
    259  0080		       00 dd	   TEMPY      EQU	TEMP+17
    260  0080		       00 de	   LISTPTR    EQU	TEMP+18	;		  ;AND TEMP+19.
    261  0080							;*;*;*;*;*;*;*;*;*;*;*
    262  0080
    263  0080							;* FOLLOWING 20 REGISTERS MUST REMAIN ADJACENT. THEY ARE SET TO 0 IN INCREATS.
    264  0080		       00 e0	   ANIMCNT    EQU	$E0	;		      ;ANIMATION CTR
    265  0080		       00 e1	   DIGGING    EQU	$E1
    266  0080		       00 e2	   PUMPNUM    EQU	$E2
    267  0080		       00 e3	   SQUASH     EQU	$E3	;		      ;DIGDUG SQUASHING
    268  0080		       00 e4	   NOTGRID    EQU	$E4
    269  0080		       00 e5	   NEEDDIR    EQU	$E5
    270  0080		       00 e6	   FSCORE     EQU	$E6
    271  0080		       00 e7	   FSCORCTR   EQU	$E7
    272  0080		       00 e8	   GHOSTIME   EQU	$E8
    273  0080		       00 e9	   ESCAPER    EQU	$E9
    274  0080		       00 ea	   PUMP       EQU	$EA
    275  0080		       00 eb	   PUMPING    EQU	$EB
    276  0080		       00 ec	   PUMPCNT    EQU	$EC
    277  0080		       00 ed	   WALKING    EQU	$ED
    278  0080		       00 ee	   FREEZE     EQU	$EE
    279  0080		       00 ef	   FLAMIE     EQU	$EF
    280  0080		       00 f0	   FLAMTIME   EQU	$F0
    281  0080		       00 f1	   FRUIT      EQU	$F1
    282  0080		       00 f2	   DIGREST    EQU	$F2
    283  0080		       00 f3	   SCNDTIM    EQU	$F3
    284  0080
    285  0080
    286  0080
    287  0080							; THE FOLLOWING 7 REGISTERS MUST REMAIN IN THEIR CURRENT POSITION
    288  0080		       00 f4	   CURINDX0   EQU	$F4
    289  0080		       00 f5	   CURINDX1   EQU	$F5
    290  0080		       00 f6	   REST0      EQU	$F6
    291  0080		       00 f7	   REST1      EQU	$F7
    292  0080		       00 f8	   DURCTR     EQU	$F8
    293  0080		       00 f9	   TUNINDX0   EQU	$F9
    294  0080		       00 fa	   TUNINDX1   EQU	$FA
    295  0080
    296  0080		       00 fb	   ROCKSTAT   EQU	$FB	;		      ;FOR 5 BYTES
    297  0080							;*	    EQU     $FC
    298  0080							;*	    EQU     $FD
    299  0080							;*	    EQU     $FE
    300  0080							;*	    EQU     $FF
    301  0080
    302  0080
    303  0080							;;*;*;*;*;*;*;*;*;*;*;*;*;*;*;*;*;*;*;*;*;*;*;*;*;*;*;*;*;*;*;*;*;*;*;*;*;*;*;*;*;*;*;*;*;*;*;*;*;*;*;*;*;*;*;*;*;*;*;*;*;*;*;*;*;*;*;*;*;*;*;*;*;*;*;*;*;*;*;*
    304  0080							; FIRST PAGE RAM  140 TO 17F
    305  0080							; NOTE THIS RAM IS SHADOWED AT 2140 TO 217F
    306  0080							;;*;*;*;*;*;*;*;*;*;*;*;*;*;*;*;*;*;*;*;*;*;*;*;*;*;*;*;*;*;*;*;*;*;*;*;*;*;*;*;*;*;*;*;*;*;*;*;*;*;*;*;*;*;*;*;*;*;*;*;*;*;*;*;*;*;*;*;*;*;*;*;*;*;*;*;*;*;*;*
    307  0140					      ORG	$0140
    308  0140
    309  0140
    310  0140
    311  0140
    312  0140
    313  0140							;;*;*;*;*;*;*;*;*;*;*;*;*;*;*;*;*;*;*;*;*;*;*;*;*;*;*;*;*;*;*;*;*;*;*;*;*;*;*;*;*;*;*;*;*;*;*;*;*;*;*;*;*;*;*;*;*;*;*;*;*;*;*;*;*;*;*;*;*;*;*;*;*;*;*;*;*;*;*;*
    314  0140							;  PIA AND TIMER (6532) LOCATIONS   280 TO 2FF
    315  0140							; NOTE THESE REGISTERS ARE SHADOWED AT 380 TO 3FF
    316  0140							;;*;*;*;*;*;*;*;*;*;*;*;*;*;*;*;*;*;*;*;*;*;*;*;*;*;*;*;*;*;*;*;*;*;*;*;*;*;*;*;*;*;*;*;*;*;*;*;*;*;*;*;*;*;*;*;*;*;*;*;*;*;*;*;*;*;*;*;*;*;*;*;*;*;*;*;*;*;*;*
    317  0140		       02 80	   SWCHA      EQU	$280	;PO, P1 JOYSTICKS
    318  0140
    319  0140							;	   BIT 7 PLAYER 0 EAST IF CLEAR
    320  0140							;	   BIT 6;	   WEST
    321  0140							;	   BIT 5;	   SOUTH
    322  0140							;	   BIT 4;	   NORTH
    323  0140							;	   BIT 3 PLAYER 1 EAST IF CLEAR
    324  0140							;	   BIT 2;	   WEST
    325  0140							;	   BIT 1;	   SOUTH
    326  0140							;	   BIT 0;	   NORTH
    327  0140
    328  0140		       02 82	   SWCHB      EQU	$282	;CONSOLE SWITCHES
    329  0140
    330  0140							;	   BIT 7   PLAYER 1 DIFFICULTY A IF SET B IF CLEAR
    331  0140							;	   BIT 6   PLAYER 0 DIFFICULTY A IF SET B IF CLEAR
    332  0140							;	   BIT 3   BLACK AND WHITE/COLOR  COLOR WHEN SET
    333  0140							;	   BIT 1   GAME SELECT	CLEAR WHEN PRESSED
    334  0140							;	   BIT 0   GAME RESET	CLEAR WHEN PRESSED
    335  0140
    336  0140		       02 81	   CTLSWA     EQU	$281
    337  0140		       02 83	   CTLSWB     EQU	$283
    338  0140		       02 84	   INTIM      EQU	$284	;INTERVAL TIMER IN
    339  0140		       02 95	   TIM8T      EQU	$295	;TIMER 8T WRITE OUT
    340  0140		       02 96	   TIM64T     EQU	$296	;TIMER 64T WRITE OUT
    341  0140		       02 9e	   TIM64TI    EQU	$29E	;INTERUPT TIMER 64T
    342  0140
    343  0140
    344  0140
    345  0140							;;*;*;*;*;*;*;*;*;*;*;*;*;*;*;*;*;*;*;*;*;*;*;*;*;*;*;*;*;*;*;*;*;*;*;*;*;*;*;*;*;*;*;*;*;*;*;*;*;*;*;*;*;*;*;*;*;*;*;*;*;*;*;*;*;*;*;*;*;*;*;*;*;*;*;*;*;*;*;*
    346  0140							; RAM	   2000 TO 2FFF
    347  0140							; NOTE SOME OF THIS RAM IS SHADOWED ELSEWHERE
    348  0140							; 2040 TO 20FF IS SHADOWED AT 040 TO 0FF
    349  0140							; 2140 TO 217F IS SHADOWED AT 140 TO 17F
    350  0140							; 2240 TO 227F IS SHADOWED AT 240 TO 27F
    351  0140							; 2340 TO 237F IS SHADOWED AT 340 TO 37F
    352  0140							;;*;*;*;*;*;*;*;*;*;*;*;*;*;*;*;*;*;*;*;*;*;*;*;*;*;*;*;*;*;*;*;*;*;*;*;*;*;*;*;*;*;*;*;*;*;*;*;*;*;*;*;*;*;*;*;*;*;*;*;*;*;*;*;*;*;*;*;*;*;*;*;*;*;*;*;*;*;*;*
    353  1800					      ORG	$1800
    354  1800
    355  1800							;
    356  1800							;	   DISPLAY LIST ZERO;		   NO PAGE BOUNDARIES CROSSED!
    357  1800		       18 00	   L0Z1       EQU	$1800
    358  1800		       18 3f	   L0Z2       EQU	$183F
    359  1800		       18 7e	   L0Z3       EQU	$187E
    360  1800		       18 bd	   L0Z4       EQU	$18BD	;		    ;THRU $18FB.
    361  1800		       19 00	   L0Z5       EQU	$1900
    362  1800		       19 3f	   L0Z6       EQU	$193F
    363  1800		       19 7e	   L0Z7       EQU	$197E
    364  1800		       19 bd	   L0Z8       EQU	$19BD
    365  1800		       1a 00	   L0Z9       EQU	$1A00
    366  1800		       00 05	   L0Z9P5     EQU	5
    367  1800		       1a 3f	   L0Z10      EQU	$1A3F
    368  1800		       1a 7e	   L0Z11      EQU	$1A7E
    369  1800		       1a bd	   L0Z12      EQU	$1ABD
    370  1800		       00 c2	   L0Z12P5    EQU	$C2
    371  1800		       1b 00	   L0Z13      EQU	$1B00
    372  1800		       00 05	   L0Z13P5    EQU	5	;			;LOW BYTE OF L0Z13 PLUS 5.
    373  1800		       1b 3f	   L0Z14      EQU	$1B3F
    374  1800		       1b 7e	   L0Z15      EQU	$1B7E
    375  1800		       1b bd	   L0Z0       EQU	$1BBD	;		    ;THRU $1BFF: LONGER THEN OTHER LISTS.
    376  1800
    377  1800							;
    378  1800							;	   DISPLAY LIST ONE
    379  1800							;
    380  1800		       1c 00	   L1Z1       EQU	$1C00	;		    ;LOW BYTE OF L1 ZONES = LOW BYTE OF L0.
    381  1800		       1c 3f	   L1Z2       EQU	$1C3F
    382  1800		       1c 7e	   L1Z3       EQU	$1C7E
    383  1800		       1c bd	   L1Z4       EQU	$1CBD
    384  1800		       1d 00	   L1Z5       EQU	$1D00
    385  1800		       1d 3f	   L1Z6       EQU	$1D3F
    386  1800		       1d 7e	   L1Z7       EQU	$1D7E
    387  1800		       1d bd	   L1Z8       EQU	$1DBD
    388  1800		       1e 00	   L1Z9       EQU	$1E00
    389  1800		       1e 3f	   L1Z10      EQU	$1E3F
    390  1800		       1e 7e	   L1Z11      EQU	$1E7E
    391  1800		       1e bd	   L1Z12      EQU	$1EBD
    392  1800		       1f 00	   L1Z13      EQU	$1F00
    393  1800		       1f 3f	   L1Z14      EQU	$1F3F
    394  1800		       1f 7e	   L1Z15      EQU	$1F7E	;		    ;THRU $1FBC.
    395  1800
    396  1800		       1f bd	   DLIJMP     EQU	$1FBD
    397  1800		       1f be	   DLIVECT    EQU	$1FBE	;		    ;AND $1FBF.
    398  1800		       1f c0	   HSCOREX    EQU	$1FC0
    399  1800		       1f c1	   HSCOREH    EQU	$1FC1
    400  1800		       1f c2	   HSCOREM    EQU	$1FC2
    401  1800		       1f c3	   HSCOREL    EQU	$1FC3
    402  1800		       1f c4	   EFFRACK    EQU	$1FC4	;		    ;AND $1FC5
    403  1800		       1f c6	   BACKMONS   EQU	$1FC6	;		    ;THROUGH $1FCD.
    404  1800		       1f ce	   FRUITCST   EQU	$1FCE
    405  1800		       1f cf	   FRUITPAL   EQU	$1FCF
    406  1800							;*;*;*;*;*;*;*   EQU	  $1FD0
    407  1800
    408  1800							;*KEEP BACKXPOS NEXT TO BACKYPOS, AND BACKTMBL,BACKHROK, BACKFCNT TOGETHER.
    409  1800		       20 00	   BACKYPOS   EQU	$2000	;		    ;STMPYPOS TEMP FOR OTHER PLAYER:THRU 12
    410  1800		       20 13	   BACKXPOS   EQU	$2013	;		    ;STMPXPOS TEMP: THROUGH 15.
    411  1800		       20 26	   BACKTMBL   EQU	$2026	;		    ;TUMBLE TEMP FOR OTHER PLAYER:THRU 2A.
    412  1800		       20 2b	   BACKHROK   EQU	$202B	;		    ;HITROCK TEMP FOR OTHER PLAYER.
    413  1800		       20 2c	   BACKFCNT   EQU	$202C	;		    ;FALLCNT TEMP.
    414  1800		       20 2d	   BAKRCRET   EQU	$202D	;		    ;BRCREAT TEMP.
    415  1800		       20 2e	   BAKRTUNL   EQU	$202E	;		    ;BRTUNNL TEMP.
    416  1800		       20 2f	   STATUS     EQU	$202F	;		    ;USED IN MAIN.
    417  1800		       20 30	   MODEH      EQU	$2030
    418  1800		       20 38	   SPEEDL     EQU	$2038	;		    ;THRU $213F.
    419  1800
    420  1800							;;*;*;*;*;*;*;*;*;*;*;*;*;*;*;*;*;*;*;*;*;*;*;*;*;*;*;*;*;*;*;*;*;*;*;*;*;*;*;*;*;*;*;*;*;*;*;*;*;*;*;*;*;*;*;*;*;*;*;*;*;*;*;*;*;*;*;*;*;*;*;*;*;*;*;*;*;*;*;*
    421  2040					      ORG	$2040
    422  2040							; 2040 TO 20FF IS SHADOWED AT 040 TO 0FF
    423  2040							;
    424  2040							;;*;*;*;*;*;*;*;*;*;*;*;*;*;*;*;*;*;*;*;*;*;*;*;*;*;*;*;*;*;*;*;*;*;*;*;*;*;*;*;*;*;*;*;*;*;*;*;*;*;*;*;*;*;*;*;*;*;*;*;*;*;*;*;*;*;*;*;*;*;*;*;*;*;*;*;*;*;*;*
    425  2100					      ORG	$2100
    426  2100
    427  2100		       21 00	   SPEEDH     EQU	$2100	;		    ;THRU $2107.
    428  2100		       21 08	   CDIREC     EQU	$2108	;		    ;FOR TITLE PAGE: CREATURE DIRECTION.
    429  2100		       21 10	   CBORDER    EQU	$2110	;		    ;TITLE PAGE: TURNING POINT. (THRU 17)
    430  2100		       21 18	   CHARSEQL   EQU	$2118
    431  2100		       21 20	   BLWYPOS    EQU	$2120
    432  2100		       21 28	   CHARSEQN   EQU	$2128
    433  2100		       21 30	   GHOST      EQU	$2130
    434  2100		       21 38	   FACING     EQU	$2138	;		    ;THRU $213F.
    435  2100
    436  2100
    437  2100							;;*;*;*;*;*;*;*;*;*;*;*;*;*;*;*;*;*;*;*;*;*;*;*;*;*;*;*;*;*;*;*;*;*;*;*;*;*;*;*;*;*;*;*;*;*;*;*;*;*;*;*;*;*.;*;*;*;*;*;*;*;*;*;*;*;*;*;*;*;*;*;*;*;*;*;*;*;*;*
    438  2140					      ORG	$2140
    439  2140							; 2140 TO 21FF IS SHADOWED AT 140 TO 1FF
    440  2140							;
    441  2140							;;*;*;*;*;*;*;*;*;*;*;*;*;*;*;*;*;*;*;*;*;*;*;*;*;*;*;*;*;*;*;*;*;*;*;*;*;*;*;*;*;*;*;*;*;*;*;*;*;*;*;*;*;*;*;*;*;*;*;*;*;*;*;*;*;*;*;*;*;*;*;*;*;*;*;*;*;*;*;*
    442  2200					      ORG	$2200
    443  2200
    444  2200		       22 00	   TUNNELS    EQU	$2200	;		    ;THRU $22C8.
    445  2200
    446  2200		       22 e8	   YMODC      EQU	$22E8
    447  2200		       22 f0	   MODEL      EQU	$22F0	;		    ;THRU $22F7.
    448  2200		       22 f8	   PREBLWIX   EQU	$22F8	;		    ;THRU $22FF
    449  2200		       23 00	   RACKTIME   EQU	$2300
    450  2200		       23 01	   SPEEDUP    EQU	$2301
    451  2200		       23 02	   FLAMWAIT   EQU	$2302
    452  2200		       23 03	   GHOSTOUT   EQU	$2303
    453  2200		       23 04	   FLEE       EQU	$2304
    454  2200		       23 05	   FAST       EQU	$2305	;		    ;INIT TO 0 IN INCREATS
    455  2200		       23 06	   NXTSEC     EQU	$2306
    456  2200		       23 07	   P0C0SHAD   EQU	$2307	;		    ;SHADOW OF PALETTES: THROUGH $231F.
    457  2200		       23 27	   NUMSQSH    EQU	$2327	;		    ;THROUGH $232B
    458  2200							;*;*;*;*;*;*;*   EQU	  $232C
    459  2200							;*;*;*;*;*;*;*   EQU	  $232D
    460  2200							;*;*;*;*;*;*;*   EQU	  $232E
    461  2200		       23 2f	   DHORSPDL   EQU	$232F
    462  2200		       23 30	   DHORSPDH   EQU	$2330	;		    ;MUST FOLLOW DHORSPDL
    463  2200							;*;*;*FREE   EQU     $2331
    464  2200							;*;*;*;*;*;*	 EQU	 $2332; 		 ;THROUGH $2336
    465  2200		       23 37	   BLWSTAT    EQU	$2337	;		    ;THROUGH $233E
    466  2200		       23 3f	   BLWCTR     EQU	$233F	;		    ;THROUGH $2346
    467  2200		       23 47	   BLWLSTMV   EQU	$2347	;		    ;THROUGH $234E
    468  2200
    469  2200							; FOR SOUNDS
    470  2200							;*;*;*;*;*;*	 EQU	 $234F
    471  2200							; THE FOLLOWING 7 REGISTERS MUST REMAIN IN THEIR CURRENT POSITION
    472  2200		       23 50	   DURINDX0   EQU	$2350
    473  2200		       23 51	   DURINDX1   EQU	$2351
    474  2200		       23 52	   DEST0      EQU	$2352
    475  2200		       23 53	   DEST1      EQU	$2353
    476  2200		       23 54	   DDURCTR    EQU	$2354
    477  2200		       23 55	   DUNINDX0   EQU	$2355
    478  2200		       23 56	   DUNINDX1   EQU	$2356
    479  2200
    480  2200		       23 57	   SNGREQ     EQU	$2357	;		    ;THROUGH $235C.
    481  2200		       23 5d	   DPL0LIST   EQU	$235D	;		    ;THRU $23A1.
    482  2200		       23 a2	   DPL1LIST   EQU	$23A2	;		    ;THRU $23E6.
    483  2200		       23 e7	   DUMMYDPL   EQU	$23E7	;		    ;AND $23E8.
    484  2200		       23 e9	   DRT1COLR   EQU	$23E9	;		    ;KEEP DRTNCOLR"S TOGETHER.
    485  2200		       23 eb	   DRT2COLR   EQU	$23EB
    486  2200		       23 ed	   DRT3COLR   EQU	$23ED
    487  2200		       23 ef	   VEGCOLR    EQU	$23EF	;		    ;AND $23F0
    488  2200		       23 f1	   IGNORE     EQU	$23F1	;		    ;FOR IGNORING JOYSTICK.
    489  2200		       23 f2	   SAVEFRMC   EQU	$23F2
    490  2200		       23 f3	   P2INIT     EQU	$23F3
    491  2200
    492  2200		       24 00	   STMPPALW   EQU	$2400
    493  2200		       24 80	   PALWIDZ    EQU	$2480	;		    ;THROUGH $248F.
    494  2200		       24 90	   DIV3TAB    EQU	$2490	;		    ;THROUGH $24BF.
    495  2200		       24 c0	   STMPRIOR   EQU	$24C0	;		    ;THROUGH $24D2.
    496  2200		       24 c1	   MONPRIOR   EQU	$24C1	;		    ;(THESE ARE JUST EQUATES...)
    497  2200		       24 c9	   RCKPRIOR   EQU	$24C9	;		    ;(	""   "	 ""	""     )
    498  2200		       24 cf	   PUMPRIOR   EQU	$24CF	;		    ;(	""   "	 ""	""     )
    499  2200
    500  2200		       25 00	   DPL2LIST   EQU	$2500	;		    ;THROUGH $2544.
    501  2200
    502  2200		       25 50	   ROCKNUM    EQU	$2550	;		    ;THROUGH $2557, USED BY FALL
    503  2200
    504  2200		       25 f0	   SCOREMAP   EQU	$25F0	;		    ;ONE SCORE MAP FOR EITHER PLAYER.
    505  2200
    506  2200							;*;*;*;* THE FOLLOWING RAM IS SHARED BY HSC:  IT IS RESTORED AFTER HSC RETURNS.
    507  2200		       26 00	   DIRTMAP    EQU	$2600	;		    ;CHAR MAP FOR CURRENT PLAYER, AND OTHER
    508  2200							;				 ;  PLAYER IF TWO PLAYER MODE.	EACH
    509  2200		       27 00	   BACKDIRT   EQU	$2700	;		    ;  CONTAINS CHAR INDICES FOR SKY AND
    510  2200							;				 ;  DIRT AND RUNS THROUGH $F0 INCLUSIVE.
    511  2200		       26 00	   HSCRAM     EQU	$2600
    512  2200		       26 02	   HSCDIFFL   EQU	$2602
    513  2200							;*HSCDIFFN  EQU     $2606
    514  2200		       26 0e	   HSCTIME    EQU	$260E
    515  2200
    516  2200
    517  2200							;*;*;*;*      GENERAL IMMEDIATES
    518  2200		       3f fa	   HSCATRCT   EQU	$3FFA
    519  2200		       3f fd	   HSCENTER   EQU	$3FFD
    520  2200		       00 41	   LCARTNUM   EQU	$41
    521  2200		       00 42	   HCARTNUM   EQU	$42
    522  2200		       00 ff	   STACK      EQU	$FF	;		      ;FOR NOW, GIVES 32 BYTES OF STACK.
    523  2200		       00 60	   DDSTRTX    EQU	96
    524  2200		       00 bf	   DDSTRTY    EQU	191
    525  2200		       00 38	   DDMIDLX    EQU	56
    526  2200		       00 6b	   DDMIDLY    EQU	107
    527  2200		       00 54	   XPOS       EQU	POOKAX
    528  2200		       00 41	   YPOS       EQU	POOKAY
    529  2200		       00 67	   MONSI      EQU	POOKAIX
    530  2200		       00 11	   NUMVEG     EQU	17
    531  2200		       00 0f	   NUMZONES   EQU	15	;		       ;ZONES RUN FROM 0 (BOTTOM) TO 15 (TOP).
    532  2200		       00 07	   NUMCREAT   EQU	7	;			;NUMBER OF POOKAS + FYGARS - 1.
    533  2200		       00 04	   NUMROCK    EQU	4	;			;MAX NUMBER OF ROCKS-1
    534  2200		       00 12	   TOTLSTMP   EQU	18	;		       ;TOTAL NUMBER OF STAMPS POSSIBLE ON
    535  2200							;				 ;  SCREEN AT ANY ONE TIME - 1.
    536  2200		       00 25	   TOTLSTX2   EQU	TOTLSTMP+TOTLSTMP+1
    537  2200		       00 e0	   CSET1      EQU	$E0	;		      ;CHARACTER SET 1: PAGES 40 - 4B.
    538  2200		       00 c4	   CSET2      EQU	$C4
    539  2200		       00 60	   W1ZONE     EQU	$60
    540  2200		       00 3d	   LISTLENG   EQU	61	;		       ;LENGTH OF DISPLAY LIST.
    541  2200		       00 00	   NORMSCRN   EQU	0	;			;VALUES FOR KERNTYPE: NORMAL DIRT SCRN.
    542  2200		       00 03	   BLNKSCRN   EQU	3	;			;BLANK SCREEN (BLACK).
    543  2200		       00 13	   MAXSRACK   EQU	19	;		       ;HIGHEST RACK PLAYER CAN CHOOSE.
    544  2200		       00 12	   MAXSR1     EQU	MAXSRACK-1
    545  2200		       00 11	   MAXEFFR    EQU	17
    546  2200		       00 08	   MINDDX     EQU	8	;			;MINIMUM DIGDUG X POSITION.
    547  2200		       00 71	   MAXDDX     EQU	113	;		      ;MAX DIGDUG X POSITION.
    548  2200		       00 17	   MINDDY     EQU	23
    549  2200		       00 c0	   MAXDDY     EQU	192
    550  2200		       00 02	   ONEDGE     EQU	2	;			;TUMBLE STATE - ROCK READY TO FALL
    551  2200		       00 3c	   SECOND     EQU	60	;		       ;60 FRAMES PER SECOND.
    552  2200		       00 09	   STRTWALK   EQU	9	;			;TITLEPAGE: AFTER 8 SECS, DD WALKS UP.
    553  2200		       00 a7	   MAXCLIMB   EQU	167	;		      ;TITLEPAGE: HIGH POINT FOR DD CLIMB.
    554  2200		       00 40	   DROPROCK   EQU	64	;		       ;TITLEPAGE: HORIZ DD POS WHEN ROCK
    555  2200							;				 ;  WILL BEGIN TO FALL.
    556  2200
    557  2200							;*;*;*;*      SOUND IMMEDIATES
    558  2200		       00 01	   SNGC       EQU	1	;			;CREATURE MOVEMENT
    559  2200		       00 02	   SNGD       EQU	2	;			;SLOW DIGDUG
    560  2200		       00 03	   SNGDF      EQU	3	;			;FAST DIGDUG
    561  2200		       00 04	   SNGNULL    EQU	4	;			;SOUND OF SILENCE
    562  2200		       00 05	   SNG1       EQU	5	;			;ROCK CRUSHING MONSTER
    563  2200		       00 06	   SNG2       EQU	6	;			;ROCK HITTING GROUND/DIGDUG
    564  2200		       00 07	   SNG3       EQU	7	;			;FLAME NOISE
    565  2200		       00 09	   SNG4       EQU	9	;			;PUMP CREATURE
    566  2200		       00 08	   SNG5       EQU	8	;			;DIGDUG THROWING HARPOON
    567  2200		       00 0a	   SNG6       EQU	10	;		       ;POP
    568  2200		       00 0b	   SNG7       EQU	11	;		       ;ROCK FALLING
    569  2200		       00 0c	   SNG8       EQU	12	;		       ;GOTCHA
    570  2200		       00 0d	   SNG9       EQU	13	;		       ;CREATURE ESCAPING
    571  2200		       00 0e	   SNG10      EQU	14	;		       ;EAT VEGETABLE
    572  2200		       00 0f	   SNG11      EQU	15	;		       ;BONUS MAN
    573  2200		       00 10	   SNG12      EQU	16	;		       ;SPEEDUP MUSIC
    574  2200		       00 11	   SNG13      EQU	17	;		       ;RACKEND
    575  2200		       00 12	   SNG14      EQU	18	;		       ;DIGDUG DEATH
    576  2200		       00 13	   SNG15      EQU	19	;		       ;ENTRANCE
    577  2200
    578  2200							;*;*;*;*      CHARACTER INDEX IMMEDIATES
    579  2200		       00 24	   FULLDIRT   EQU	36	;		       ;CHARACTER INDEX FOR FILLED IN DIRT.
    580  2200		       00 1e	   FULLSKY    EQU	30	;		       ;SKY CHARACTER (USES COLOR 10).
    581  2200		       00 5c	   FULLSKY2   EQU	92	;		       ;SKY IN CSET2.
    582  2200		       00 88	   RSKYHALF   EQU	136
    583  2200		       00 8c	   LSKYHALF   EQU	140
    584  2200		       00 00	   NODIRT     EQU	0	;			;EMPTY DIRT CHARACTER.
    585  2200		       00 16	   DTOPEND    EQU	$16	;		      ;TOP OF A VERTICAL TUNNEL.
    586  2200		       00 14	   DVMIDDLE   EQU	$14	;		      ;MIDDLE OF VERTICAL TUNNEL.
    587  2200		       00 1c	   DBOTEND    EQU	$1C	;		      ;BOTTOM OF VERTICAL TUNNEL.
    588  2200		       00 1a	   DLEFTEND   EQU	$1A	;		      ;LEFT END OF A HORIZONTAL TUNNEL.
    589  2200		       00 0a	   DHMIDDLE   EQU	$A	;		       ;MIDDLE OF HORIZONTAL TUNNEL.
    590  2200		       00 0e	   DRHTEND    EQU	$E	;		       ;RIGHT END OF HORIZONTAL TUNNEL.
    591  2200		       00 20	   BIGFLOWR   EQU	32
    592  2200		       00 22	   SMLFLOWR   EQU	34
    593  2200		       00 32	   TEDDY      EQU	50	;		       ;LEVEL INDICATORS: TEDDY AND VEGGIES.
    594  2200							;*TEDPALW   EQU     $3E
    595  2200		       00 be	   VEGPALW    EQU	$BE
    596  2200		       00 34	   CARROT     EQU	52
    597  2200		       00 36	   RUTABAGA   EQU	54
    598  2200		       00 38	   MUSHROOM   EQU	56
    599  2200		       00 3a	   CUCUMBER   EQU	58
    600  2200		       00 3c	   EGGPLANT   EQU	60
    601  2200		       00 3e	   BELLPEPP   EQU	62
    602  2200		       00 40	   TOMATO     EQU	64
    603  2200		       00 42	   ONION      EQU	66
    604  2200		       00 44	   WATERMEL   EQU	68
    605  2200		       00 46	   GALAXIAN   EQU	70
    606  2200		       00 48	   PINEAPPL   EQU	72
    607  2200		       00 3e	   PINEPALW   EQU	$3E
    608  2200		       00 00	   BLANK1     EQU	0
    609  2200		       00 de	   BLANK2     EQU	222
    610  2200		       00 89	   BLANK3     EQU	137
    611  2200		       00 4a	   BLANKR     EQU	74	;		       ;RIGHT EDGE OF DIRT.
    612  2200		       00 4c	   BLANKL     EQU	76	;		       ;LEFT EDGE OF DIRT.
    613  2200		       00 90	   BLACKBOX   EQU	144
    614  2200		       00 e0	   BIGSTAMP   EQU	224
    615  2200
    616  2200							;*;*;*;*      STAMP INDEX IMMEDIATES: CSET2 STAMPS WHOSE INDEX IS <= 106
    617  2200							;*;*;*;*  ;		DON"T NEED ZERO PADDING.  ALL OTHER STAMPS DO.
    618  2200		       00 96	   FULL0      EQU	150	;		      ;FULL SIZE NUMBERS IN CSET2 (8 PIX).
    619  2200
    620  2200							;*PUMP AND HARPOON...
    621  2200		       00 ac	   DPUMP6     EQU	172
    622  2200		       00 ad	   DPUMP12    EQU	173
    623  2200		       00 ae	   DFULL6     EQU	174
    624  2200		       00 af	   DFULL12    EQU	175
    625  2200		       00 b0	   UPUMP6     EQU	176
    626  2200		       00 b1	   UPUMP12    EQU	177
    627  2200		       00 68	   UFULL6     EQU	104
    628  2200		       00 69	   UFULL12    EQU	105
    629  2200		       00 de	   ZBLANK     EQU	222
    630  2200		       00 30	   RPUMP24    EQU	48
    631  2200		       00 31	   RPUMP20    EQU	49
    632  2200		       00 32	   RPUMP16    EQU	50
    633  2200		       00 33	   RPUMP12    EQU	51
    634  2200		       00 34	   RPUMP8     EQU	52
    635  2200		       00 35	   RPUMP4     EQU	53
    636  2200		       00 2e	   LPUMP24    EQU	46
    637  2200		       00 37	   LPUMP20    EQU	55
    638  2200		       00 3c	   LPUMP16    EQU	60
    639  2200		       00 40	   LPUMP12    EQU	64
    640  2200		       00 43	   LPUMP8     EQU	67
    641  2200		       00 45	   LPUMP4     EQU	69
    642  2200		       00 10	   RHARPOON   EQU	16
    643  2200		       00 12	   LHARPOON   EQU	18
    644  2200		       00 78	   UHARPOON   EQU	120
    645  2200		       00 7a	   DHARPOON   EQU	122
    646  2200
    647  2200							;*DIGDUG...
    648  2200		       00 94	   UDIGDUG1   EQU	148
    649  2200		       00 96	   UDIGDUG2   EQU	150
    650  2200		       00 98	   UDIGDUG3   EQU	152
    651  2200		       00 9a	   DDIGDUG1   EQU	154
    652  2200		       00 9c	   DDIGDUG2   EQU	156
    653  2200		       00 9e	   DDIGDUG3   EQU	158
    654  2200		       00 00	   RDIGDUG1   EQU	0
    655  2200		       00 02	   RDIGDUG2   EQU	2
    656  2200		       00 04	   RDIGDUG3   EQU	4
    657  2200		       00 06	   LDIGDUG1   EQU	6
    658  2200		       00 08	   LDIGDUG2   EQU	8
    659  2200		       00 0a	   LDIGDUG3   EQU	10
    660  2200		       00 a0	   SQDIGDUG   EQU	160
    661  2200		       00 6a	   SDEATH     EQU	106	;		      ;(STAR).
    662  2200		       00 6c	   HRDEATH1   EQU	108
    663  2200		       00 6e	   HRDEATH2   EQU	110
    664  2200		       00 70	   HRDEATH3   EQU	112
    665  2200		       00 72	   HLDEATH1   EQU	114
    666  2200		       00 74	   HLDEATH2   EQU	116
    667  2200		       00 76	   HLDEATH3   EQU	118
    668  2200
    669  2200							;*MONSTERS...
    670  2200		       00 7c	   RPOOKA1    EQU	124
    671  2200		       00 7e	   RPOOKA2    EQU	126
    672  2200		       00 80	   LPOOKA1    EQU	128
    673  2200		       00 82	   LPOOKA2    EQU	130
    674  2200		       00 e0	   RBPOOKA1   EQU	224
    675  2200		       00 e2	   RBPOOKA2   EQU	226
    676  2200		       00 e4	   RBPOOKA3   EQU	228
    677  2200		       00 e6	   RBPOOKA4   EQU	230
    678  2200		       00 e8	   LBPOOKA1   EQU	232
    679  2200		       00 ea	   LBPOOKA2   EQU	234
    680  2200		       00 ec	   LBPOOKA3   EQU	236
    681  2200		       00 ee	   LBPOOKA4   EQU	238
    682  2200		       00 8c	   GPOOKA1    EQU	140
    683  2200		       00 8e	   GPOOKA2    EQU	142
    684  2200		       00 a4	   SQPOOKA    EQU	164
    685  2200		       00 84	   RFYGAR1    EQU	132
    686  2200		       00 86	   RFYGAR2    EQU	134
    687  2200		       00 88	   LFYGAR1    EQU	136
    688  2200		       00 8a	   LFYGAR2    EQU	138
    689  2200		       00 f0	   RBFYGAR1   EQU	240
    690  2200		       00 f2	   RBFYGAR2   EQU	242
    691  2200		       00 f4	   RBFYGAR3   EQU	244
    692  2200		       00 f6	   RBFYGAR4   EQU	246
    693  2200		       00 f8	   LBFYGAR1   EQU	248
    694  2200		       00 fa	   LBFYGAR2   EQU	250
    695  2200		       00 fc	   LBFYGAR3   EQU	252
    696  2200		       00 fe	   LBFYGAR4   EQU	254
    697  2200		       00 90	   GFYGAR1    EQU	144
    698  2200		       00 92	   GFYGAR2    EQU	146
    699  2200		       00 a2	   SQFYGAR    EQU	162
    700  2200		       00 0c	   RFLAMFYG   EQU	12
    701  2200		       00 0e	   LFLAMFYG   EQU	14
    702  2200
    703  2200							;*FLAMES ...
    704  2200		       00 14	   RFLAME4    EQU	20
    705  2200		       00 16	   RFLAME8    EQU	22
    706  2200		       00 18	   RFLAME16   EQU	24
    707  2200		       00 1c	   RFLAME24   EQU	28
    708  2200		       00 15	   LFLAME4    EQU	21
    709  2200		       00 22	   LFLAME8    EQU	34
    710  2200		       00 24	   LFLAME16   EQU	36
    711  2200		       00 28	   LFLAME24   EQU	40
    712  2200
    713  2200							;*ROCKS...
    714  2200		       00 a6	   STRTROCK   EQU	166
    715  2200		       00 a8	   SPLTROCK   EQU	168
    716  2200		       00 aa	   CRMBROCK   EQU	170
    717  2200		       00 56	   TOTRROCK   EQU	86
    718  2200
    719  2200							;*SCORES   -	CSET1	(VEGETABLES)
    720  2200		       00 62	   VHUND4     EQU	98
    721  2200		       00 65	   VHUND6     EQU	101
    722  2200		       00 bb	   VHUND8     EQU	187
    723  2200		       00 da	   VTHOUS1    EQU	218
    724  2200		       00 46	   VTHOUS2    EQU	70
    725  2200		       00 4a	   VTHOUS3    EQU	74
    726  2200		       00 c2	   VTHOUS4    EQU	194
    727  2200		       00 4e	   VTHOUS5    EQU	78
    728  2200		       00 c6	   VTHOUS6    EQU	198
    729  2200		       00 52	   VTHOUS7    EQU	82
    730  2200		       00 ca	   VTHOUS8    EQU	202
    731  2200		       00 b2	   VHUND2     EQU	178
    732  2200
    733  2200							;*SCORES   -	CSET2	(BLOWUP AND SQUASHING)
    734  2200		       00 b2	   LOWSCOR    EQU	178
    735  2200		       00 b2	   HUNDRED2   EQU	178
    736  2200		       00 b5	   HUNDRED3   EQU	181
    737  2200		       00 62	   HUNDRED4   EQU	98
    738  2200		       00 b8	   HUNDRED5   EQU	184
    739  2200		       00 bb	   HUNDRED8   EQU	187
    740  2200		       00 da	   THOUSND1   EQU	218
    741  2200		       00 be	   THOUS25    EQU	190
    742  2200		       00 c2	   THOUS4     EQU	194
    743  2200		       00 c6	   THOUS6     EQU	198
    744  2200		       00 ca	   THOUS8     EQU	202
    745  2200		       00 ce	   THOUS10    EQU	206
    746  2200		       00 d2	   THOUS12    EQU	210
    747  2200		       00 d6	   THOUS15    EQU	214
    748  2200		       00 da	   HIGHSCOR   EQU	218
    749  2200		       00 65	   HUNDRED6   EQU	101
    750  2200
    751  2200							;*TITLEPAGE STAMPS
    752  2200		       00 5a	   LETRL      EQU	90	;		       ;CSET2...
    753  2200		       00 5c	   LETRE      EQU	92
    754  2200		       00 5e	   LETRV      EQU	94
    755  2200		       00 60	   LETRP      EQU	96
    756  2200		       00 58	   LETRO      EQU	88
    757  2200		       00 4e	   LETRS      EQU	78	;		       ;CSET1...
    758  2200		       00 50	   LETRA      EQU	80
    759  2200		       00 52	   LETRY      EQU	82
    760  2200		       00 54	   LETRG      EQU	84
    761  2200		       00 56	   LETRM      EQU	86
    762  2200		       00 8e	   LETRR      EQU	142
    763  2200
    764  2200							;*TITLE PAGE STAMPS...
    765  2200		       00 58	   ATARICP    EQU	88
    766  2200		       00 5e	   NAMCOCP    EQU	94
    767  2200		       00 64	   TITLED10   EQU	100
    768  2200		       00 68	   TITLED9    EQU	104
    769  2200		       00 6c	   TITLEG10   EQU	108
    770  2200		       00 70	   TITLEG9    EQU	112
    771  2200		       00 74	   TITLEU10   EQU	116
    772  2200		       00 78	   TITLEU9    EQU	120
    773  2200		       00 7c	   TDDUG10    EQU	124
    774  2200		       00 80	   TDDUG9     EQU	128
    775  2200		       00 84	   TITLEI10   EQU	132
    776  2200		       00 86	   TITLEI9    EQU	134
    777  2200
    778  2200							;*;*;*;*      COLORS
    779  2200		       00 0e	   WHITE      EQU	$0E
    780  2200		       00 37	   RED	      EQU	$37
    781  2200
    782  2200		       00 24	   PEBBLE1    EQU	$24
    783  2200		       00 14	   PEBBLE2    EQU	$14
    784  2200		       00 24	   PEBBLE0A   EQU	$24
    785  2200		       00 14	   PEBBLE0B   EQU	$14
    786  2200		       00 17	   PEBBLE0C   EQU	$17
    787  2200		       00 26	   PEBBLE0D   EQU	$26
    788  2200		       00 52	   PEBBLE1A   EQU	$52
    789  2200		       00 42	   PEBBLE1B   EQU	$42
    790  2200		       00 24	   PEBBLE1C   EQU	$24
    791  2200		       00 10	   PEBBLE1D   EQU	$10
    792  2200		       00 52	   PEBBLE2A   EQU	$52
    793  2200		       00 42	   PEBBLE2B   EQU	$42
    794  2200		       00 00	   PEBBLE2C   EQU	$00
    795  2200		       00 52	   PEBBLE2D   EQU	$52
    796  2200
    797  2200		       00 1a	   YELLOW0    EQU	$1A
    798  2200		       00 27	   GOLD0      EQU	$27
    799  2200		       00 24	   ORANG0     EQU	$24
    800  2200		       00 10	   DKORANG0   EQU	$10
    801  2200		       00 0a	   PALPURP1   EQU	$0A
    802  2200		       00 15	   PALBRWN1   EQU	$15
    803  2200		       00 1e	   YELLOW1    EQU	$1E
    804  2200		       00 27	   GOLD1      EQU	$27
    805  2200		       00 0a	   PALPURP2   EQU	$0A
    806  2200		       00 15	   PALBRWN2   EQU	$15
    807  2200		       00 b2	   PALTURQ2   EQU	$B2
    808  2200		       00 04	   DKPURP2    EQU	$04
    809  2200
    810  2200		       00 10	   DKORANGE   EQU	$10
    811  2200		       00 24	   ORANGE     EQU	$24
    812  2200		       00 27	   GOLD       EQU	$27
    813  2200		       00 1a	   YELLOW     EQU	$1A
    814  2200		       00 c8	   GREEN      EQU	$C8
    815  2200		       00 f8	   PALETURQ   EQU	$F8
    816  2200		       00 86	   SKYBLUE    EQU	$86
    817  2200		       00 85	   DDBLUE     EQU	$85
    818  2200		       00 86	   PALEPURP   EQU	$86
    819  2200		       00 87	   DARKPURP   EQU	$87
    820  2200		       00 25	   PALEBRWN   EQU	$25
    821  2200		       00 23	   TAN	      EQU	$23
    822  2200		       00 41	   BROWN      EQU	$41
    823  2200		       00 00	   BLACK      EQU	$00
    824  2200		       00 00	   ANYCOLR    EQU	$00
    825  2200		       00 0e	   PL0COLR    EQU	WHITE
    826  2200		       00 0e	   PL1COLR    EQU	WHITE
    827  2200
    828  2200							;*;*;*;*;*;*;*;*;*;*;*;*;*;*;*;*;*;*;*;*;*;*;*;*;*;*;*;*;*;*;*;*;*;*;*;*;*;*;*;*;*;*;*;*;*;*;*;*;*;*;*;*;*;*;*;*;*;*;*;*;*;*;*;*;*;*;*;*;*;*;*;*;*;*;*;*;*;*;*;*
    829  2200							;*;*;*;*;*;*;*;*;*;*;*;*;*;*;*;*;*;*;*;*;*;*;*;*;*;*;*;*;*;*;*;*;*;*;*;*;*;*;*;*;*;*;*;*;*;*;*;*;*;*;*;*;*;*;*;*;*;*;*;*;*;*;*;*;*;*;*;*;*;*;*;*;*;*;*;*;*;*;*;*
    830  2200
    831  a000					      ORG	$A000
    832  a000				   ENDA000
    833  a000
    834  a000							;;;;;;;;;;;;;;;;;;;;;;;;;;;;;;;;;;;;;;;;;;;;;;;;;;;;;;;;;;;;;;;;;;;;;;;;;;;;;;;;
    835  a000							;;;;;;;;;;;;;;;;;					     ;;;;;;;;;;;;;;;;;;;;;
    836  a000							;;;;;;;;;;;;;;;;  ARRAYS:  PUT RANDOM ARRAYS HERE SO	    ;;;;;;;;;;;;;;;;;;;;;
    837  a000							;;;;;;;;;;;;;;;;;	     THEY CAN BE OVERLAPPED TO	     ;;;;;;;;;;;;;;;;;;;;;
    838  a000							;;;;;;;;;;;;;;;;;	     SAVE ROOM. 		     ;;;;;;;;;;;;;;;;;;;;;
    839  a000							;;;;;;;;;;;;;;;;;					     ;;;;;;;;;;;;;;;;;;;;;
    840  a000							;;;;;;;;;;;;;;;;;					     ;;;;;;;;;;;;;;;;;;;;;
    841  a000							;;;;;;;;;;;;;;;;;					     ;;;;;;;;;;;;;;;;;;;;;
    842  a000							;;;;;;;;;;;;;;;;;					     ;;;;;;;;;;;;;;;;;;;;;
    843  a000							;;;;;;;;;;;;;;;;;;;;;;;;;;;;;;;;;;;;;;;;;;;;;;;;;;;;;;;;;;;;;;;;;;;;;;;;;;;;;;;;
    844  a000
    845  a000							;**********************************************************
    846  a000							; Aaron Lanterman (1/30/2020) replaced this original line:
    847  a000							; SEG code
    848  a000							; With this big chunk of header code for the simulator:
    849  a000							;**********************************************************
    850  a000					      SEG	ROM
    851  a000							; ORG	   RANDROKS-128
    852  bf80					      ORG	$BF80
    853  bf80		       01	   HEADER     DC.B	1	; 0   Header version	  - 1 byte
    854  bf81		       41 54 41 52*	      DC.B	"ATARI7800"	; 1..16  "ATARI7800   "  - 16 bytes
    855  bf8a		       20 20 20 20*	      DS	7,32
    856  bf91		       59 6f 75 72*	      DC.B	"Your Name Here"	; 17..48 Cart title	  - 32 bytes
    857  bf9f		       00 00 00 00*	      DS	HEADER+49-.,0
    858  bfb1							; Hack of changing the 256->code line to the $00,$00,$80,$00 code line
    859  bfb1							; added by Aaron Lanterman, 9/4/2020, to stop assembler from complaining...
    860  bfb1							; Basically, I'm telling it you have a 32K cartridge, but that doesn't
    861  bfb1							; seem to break the emulator (at least)
    862  bfb1		       00 00 80 00	      DC.B	$00,$00,$80,$00	;
    863  bfb5							;DC.B	  $00,$00,256->code,$00; 49..52 data length	 - 4 bytes
    864  bfb5		       00 00		      DC.B	$00,$00	; 53..54 cart type	 - 2 bytes
    865  bfb7							;    bit 0 - pokey at $4000
    866  bfb7							;    bit 1 - supergame bank switched
    867  bfb7							;    bit 2 - supergame ram at $4000
    868  bfb7							;    bit 3 - rom at $4000
    869  bfb7							;    bit 4 - bank 6 at $4000
    870  bfb7							;    bit 5 - supergame banked ram
    871  bfb7							;    bit 6 - pokey at $450
    872  bfb7							;    bit 7 - mirror ram at $4000
    873  bfb7							;    bit 8-15 - Special
    874  bfb7							;   0 = Normal cart
    875  bfb7		       01		      DC.B	1	; 55	controller 1 type  - 1 byte
    876  bfb8		       01		      DC.B	1	; 56	controller 2 type  - 1 byte
    877  bfb9							;    0 = None
    878  bfb9							;    1 = Joystick
    879  bfb9							;    2 = Light Gun
    880  bfb9		       00		      DC.B	0	; 57 0 = NTSC 1 = PA
    881  bfba		       00		      DC.B	0	; 58	Save data peripheral - 1 byte (version 2)
    882  bfbb							;    0 = None / unknown (default)
    883  bfbb							;    1 = High Score Cart (HSC)
    884  bfbb							;    2 = SaveKey
    885  bfbf					      ORG	HEADER+63
    886  bfbf		       00		      DC.B	0	; 63	Expansion module
    887  bfc0							;    0 = No expansion module (default on all currently released games)
    888  bfc0							;    1 = Expansion module required
    889  bfe4					      ORG	HEADER+100	; 100..127 "ACTUAL CART DATA STARTS HERE" - 28 bytes
    890  bfe4		       41 43 54 55*	      DC.B	"ACTUAL CART DATA STARTS HERE"
    891  c000							; end of header code for the simulator added by Aaron Lanterman
    892  c000
    893  c000				   code       ORG	$C000
    894  c000		       29 35 64 82*RANDROKS   DC.B	$29,$35,$64,$82,$8D,$9A,$A5,$C9
    895  c008
    896  c008		       1e 7e 5e 3f*PALWBYTE   DC.B	$1E,$7E,$5E,$3F,$3E,$3C,$3A,$3E
    897  c010		       3c 3a 3c 3e*	      DC.B	$3C,$3A,$3C,$3E,$3B,$3C,$3D,$3E
    898  c018		       3f 1c 5e 1d*	      DC.B	$3F,$1C,$5E,$1D,$3F,$1E,$5E,$3E
    899  c020		       7e 3e 1e 7e*	      DC.B	$7E,$3E,$1E,$7E,$3E,$5E,$3F,$1D
    900  c028		       1c 3e 7e b0*	      DC.B	$1C,$3E,$7E,$B0,$F0,$D0,$F0,$D0
    901  c030		       f0		      DC.B	$F0
    902  c031
    903  c031		       04 09 09 04 DANIMIX    DC.B	4,9,9,4
    904  c035
    905  c035		       01 ff 01    CWALK      DC.B	1,$FF,1
    906  c038		       59 7b	   MESGOFST   DC.B	89,123
    907  c03a		       22	   MESGDPLY   DC.B	34
    908  c03b							;	   DC.B      38
    909  c03b
    910  c03b							; SNGLEN IS INDEXED BY SONG NUMBER.
    911  c03b							; IT CONTAINS THE SONG LENGTH.
    912  c03b							;  20 BYTES
    913  c03b				   ASNGLEN
    914  c03b		       26 10 1a 1a*SNGLEN     DC.B	38,16,26,26,1,8,8,5,9,15,20,8,5,14,6,7,12,15,14	;,22
    915  c04e
    916  c04e
    917  c04e
    918  c04e							; SNGDM  IS INDEXED BY SONG NUMBER.
    919  c04e							; IT CONTAINS THE DURATION. DURATION FOR 2 VOICE SONGS IS SAME BOTH VOICES.
    920  c04e							;  20 BYTES
    921  c04e				   ASNGDM
    922  c04e		       16 01 02 01*SNGDM      DC.B	22,1,2,1,7,1,1,1,2,0,0,2,3,3,2,6,3,6,3,4
    923  c062
    924  c062
    925  c062							;*;*;*;*;*  FULL
    926  c062				   ENDC000
    927  c062
    928  c062
    929  c062					      ORG	$C062
    930  c062		       00 00 00 00*	      DC.B	0,0,0,0,0,0,0,0,0,0,0,0,0,0	;	      ;98
    931  c070		       00 00 00 00*	      DC.B	0,0,0,0,0,0,0,0,0,0,0,0,0,0,0,0	;112
    932  c080		       00 00 00 00*	      DC.B	0,0,0,0,0,0,0,0,0,0,0,0,0,0,0,0	;128
    933  c090		       00 00 00 00*	      DC.B	0,0,0,0,0,0,0,0,0,0,0,0,0,0,0,0	;144
    934  c0a0		       00 00 00 00*	      DC.B	0,0,0,0,0,0,0,0,0,0,0,0,0,0,0,0	;160
    935  c0b0		       00 00 00 00*	      DC.B	0,0,0,0,0,0,0,0,0,0,0,0,0,0,0,0	;176
    936  c0c0		       00 00 00 00*	      DC.B	0,0,0,0,0,0,0,0,0,0,0,0,0,0,0,0	;192
    937  c0d0		       00 00 00 00*	      DC.B	0,0,0,0,0,0,0,0,0,0,0,0,0,0,0,0	;208
    938  c0e0		       06 00 06 00*	      DC.B	$06,$00,$06,$00,$05,$00,$DB,$18	;224-31  RBPOOKA1,2,3,4
    939  c0e8		       00 90 00 90*	      DC.B	$00,$90,$00,$90,$00,$90,$24,$E7	;232-39  LBPOOKA1,2,3,4
    940  c0f0		       00 00 00 00*	      DC.B	$00,$00,$00,$00,$00,$00,$00,$00	;240-47  RBFYGAR1,2,3,4
    941  c0f8		       00 00 00 00*	      DC.B	$00,$00,$00,$00,$00,$00,$00,$00	;248-55  LBFYGAR1,2,3,4
    942  c100
    943  c100					      ORG	$C100
    944  c100		       35 b4 9b 00*ROCKS      DC.B	$35,$B4,$9B,$00,$00
    945  c105		       23 39 8d b5*	      DC.B	$23,$39,$8D,$B5,$00
    946  c10a		       23 6c bd 94*	      DC.B	$23,$6C,$BD,$94,$00
    947  c10f		       43 2b 5c bd*	      DC.B	$43,$2B,$5C,$BD,$84
    948  c114		       63 29 3d bb*	      DC.B	$63,$29,$3D,$BB,$A6
    949  c119		       28 6b 97 b3*	      DC.B	$28,$6B,$97,$B3,$00
    950  c11e		       29 52 6d ac*	      DC.B	$29,$52,$6D,$AC,$00
    951  c123		       54 6d 96 b8*	      DC.B	$54,$6D,$96,$B8,$00
    952  c128		       28 3c 7a 72*	      DC.B	$28,$3C,$7A,$72,$B6
    953  c12d		       34 72 8c b8*	      DC.B	$34,$72,$8C,$B8,$00
    954  c132		       33 3b bc a6*	      DC.B	$33,$3B,$BC,$A6,$00
    955  c137		       39 7b 82 ca*	      DC.B	$39,$7B,$82,$CA,$00
    956  c13c		       32 29 ba a3*	      DC.B	$32,$29,$BA,$A3,$00
    957  c141		       32 4b b9 83*	      DC.B	$32,$4B,$B9,$83,$00
    958  c146		       52 39 9a b4*	      DC.B	$52,$39,$9A,$B4,$00
    959  c14b		       53 9b 00 00*	      DC.B	$53,$9B,$00,$00,$00	;BONZO LEVEL 0
    960  c150		       3b 00 00 00*	      DC.B	$3B,$00,$00,$00,$00	;BONZO LEVEL 1
    961  c155
    962  c155							;* ADEATH: STAMP INDICES FOR DEATH ANIMATION.
    963  c155		       de 6a 70 6e*ADEATH     DC.B	ZBLANK,SDEATH,HRDEATH3,HRDEATH2,HRDEATH1
    964  c15a		       de 6a 76 74*	      DC.B	ZBLANK,SDEATH,HLDEATH3,HLDEATH2,HLDEATH1
    965  c15f
    966  c15f
    967  c15f					      ORG	$C15F
    968  c15f		       4c bd 1f    GENEJMP    DC.B	$4C,<DLIJMP,>DLIJMP
    969  c162				   ENDC100
    970  c162
    971  c162
    972  c162
    973  c162					      ORG	$C162
    974  c162		       00 00 00 00*	      DC.B	0,0,0,0,0,0,0,0,0,0,0,0,0,0	;	      ;98
    975  c170		       00 00 00 00*	      DC.B	0,0,0,0,0,0,0,0,0,0,0,0,0,0,0,0	;112
    976  c180		       00 00 00 00*	      DC.B	0,0,0,0,0,0,0,0,0,0,0,0,0,0,0,0	;128
    977  c190		       00 00 00 00*	      DC.B	0,0,0,0,0,0,0,0,0,0,0,0,0,0,0,0	;144
    978  c1a0		       00 00 00 00*	      DC.B	0,0,0,0,0,0,0,0,0,0,0,0,0,0,0,0	;160
    979  c1b0		       00 00 00 00*	      DC.B	0,0,0,0,0,0,0,0,0,0,0,0,0,0,0,0	;176
    980  c1c0		       00 00 00 00*	      DC.B	0,0,0,0,0,0,0,0,0,0,0,0,0,0,0,0	;192
    981  c1d0		       00 00 00 00*	      DC.B	0,0,0,0,0,0,0,0,0,0,0,0,0,0,0,0	;208
    982  c1e0		       15 dc c5 dc*	      DC.B	$15,$DC,$C5,$DC,$C5,$DC,$D1,$57	;224-31  RBPOOKA1,2,3,4
    983  c1e8		       37 54 37 53*	      DC.B	$37,$54,$37,$53,$37,$53,$D5,$47	;232-39  LBPOOKA1,2,3,4
    984  c1f0		       1a 68 5a 50*	      DC.B	$1A,$68,$5A,$50,$5A,$68,$16,$9A	;240-47  RBFYGAR1,2,3,4
    985  c1f8		       29 a4 05 a5*	      DC.B	$29,$A4,$05,$A5,$29,$A5,$A6,$94	;248-255 LBFYGAR1,2,3,4
    986  c200
    987  c200					      ORG	$C200
    988  c200
    989  c200				   ASNGLBF0
    990  c200							; SNGLBF0 IS INDEXED BY SONG NUMBER.
    991  c200							; IT CONTAINS THE LOW BYTE FOR FREQUENCY OF FIRST VOICE.
    992  c200							;  20 BYTES
    993  c200		       00 0b 00 00*SNGLBF0    DC.B	$00,<SNGCF0,<SNGDF0,<SNGDF0,<SNGNULLF
    994  c205		       62 07 ed 	      DC.B	<SNG1F0,<SNG2F0,<SNG3F0
    995  c208		       30 80 13 00	      DC.B	<SNG5F0,<SNG4F0,<SNG6F0,<SNG7F0
    996  c20c		       e8 d0 2a 30	      DC.B	<SNG8F0,<SNG9F0,<SNG10F0,<SNG11F0
    997  c210		       a6 b1 22 	      DC.B	<SNG12F0,<SNG13F0,<SNG14F0	;,<SNG15F0
    998  c213
    999  c213
   1000  c213				   ASNGLBF1
   1001  c213							; SNGLBF1 IS INDEXED BY SONG NUMBER.
   1002  c213							; IT CONTAINS THE LOW BYTE FOR FREQUENCY OF SECOND VOICE, IF THERE IS ONE.
   1003  c213							; HIGH BYTE IS ASSUMED TO BE SNGHBF0.
   1004  c213							;  20 BYTES
   1005  c213		       37 00 1a 1a SNGLBF1    DC.B	<SNG15F0,0,<SNGDF1,<SNGDF1
   1006  c217		       00 8e 00 f2	      DC.B	0,<SNG1F1,0,<SNG3F1
   1007  c21b		       00 00 00 00	      DC.B	0,0,0,0
   1008  c21f		       95 c0 00 00	      DC.B	<SNG8F1,<SNG9F1,0,0
   1009  c223		       9a dd 46 	      DC.B	<SNG12F1,<SNG13F1,<SNG14F1	;,<SNG15F1
   1010  c226
   1011  c226
   1012  c226							; SNGC0 IS INDEXED BY SONG NUMBER.
   1013  c226							; IT CONTAINS THE VALUES FOR THE FIRST VOICE.
   1014  c226							; 0 VALUE MEANS SPECIAL CASE - ROCK FALLING.
   1015  c226							;  20 BYTES
   1016  c226				   ASNGC0
   1017  c226		       4d 04 d4 d4*SNGC0      DC.B	<SNG15F1,$04,$D4,$D4,$00,$11,$0D,$47,$04,$04
   1018  c230		       04 00 d4 d4*	      DC.B	$04,$00,$D4,$D4,$04,$04,$DD,$D4,$DD	;,$D4
   1019  c239
   1020  c239
   1021  c239
   1022  c239							; SNGVV0 IS INDEXED BY SONG NUMBER.
   1023  c239							; IT CONTAINS 0 IF THERE ARE SEPARATE VOLUME TABLES, OR VOLUME ITSELF.
   1024  c239							;  20 BYTES
   1025  c239				   ASNGVV0
   1026  c239		       d4 03 22 22*SNGVV0     DC.B	$D4,$03,$22,$22,$00,$33,$03,$33,$03,$00
   1027  c243		       04 07 74 34*	      DC.B	$04,$07,$74,$34,$07,$05,$33,$44,$00,$44
   1028  c24d
   1029  c24d		       a9 d5	   SETDFAST   LDA	#DHFASTL
   1030  c24f		       8d 2f 23 	      STA	DHORSPDL
   1031  c252		       a9 aa		      LDA	#DHFASTH
   1032  c254		       8d 30 23 	      STA	DHORSPDH
   1033  c257		       a9 f7		      LDA	#DIGFAST
   1034  c259		       85 b0		      STA	DIGSPEED
   1035  c25b		       60		      RTS		;			      ;15
   1036  c25c
   1037  c25c		       02 fe	   HARPXPL    DC.B	$02,$FE	;		  ;	     ,$00,$00
   1038  c25e		       00 00 fc 04 HARPYPL    DC.B	$00,$00,$FC,$04
   1039  c262
   1040  c262							;*;*;*;*;* 98 BYTES FULL
   1041  c262				   ENDC200
   1042  c262
   1043  c262
   1044  c262
   1045  c262					      ORG	$C262
   1046  c262		       00 00 00 00*	      DC.B	0,0,0,0,0,0,0,0,0,0,0,0,0,0	;	      ;98
   1047  c270		       00 00 00 00*	      DC.B	0,0,0,0,0,0,0,0,0,0,0,0,0,0,0,0	;112
   1048  c280		       00 00 00 00*	      DC.B	0,0,0,0,0,0,0,0,0,0,0,0,0,0,0,0	;128
   1049  c290		       00 00 00 00*	      DC.B	0,0,0,0,0,0,0,0,0,0,0,0,0,0,0,0	;144
   1050  c2a0		       00 00 00 00*	      DC.B	0,0,0,0,0,0,0,0,0,0,0,0,0,0,0,0	;160
   1051  c2b0		       00 00 00 00*	      DC.B	0,0,0,0,0,0,0,0,0,0,0,0,0,0,0,0	;176
   1052  c2c0		       00 00 00 00*	      DC.B	0,0,0,0,0,0,0,0,0,0,0,0,0,0,0,0	;192
   1053  c2d0		       00 00 00 00*	      DC.B	0,0,0,0,0,0,0,0,0,0,0,0,0,0,0,0	;208
   1054  c2e0		       55 57 d5 57*	      DC.B	$55,$57,$D5,$57,$D5,$57,$55,$55	;224-31  RBPOOKA1,2,3,4
   1055  c2e8		       d5 55 d5 57*	      DC.B	$D5,$55,$D5,$57,$D5,$57,$55,$55	;232-39  LBPOOKA1,2,3,4
   1056  c2f0		       16 9a 46 9c*	      DC.B	$16,$9A,$46,$9C,$56,$BA,$15,$7C	;240-47  RBFYGAR1,2,3,4
   1057  c2f8		       a6 94 36 91*	      DC.B	$A6,$94,$36,$91,$AE,$95,$3D,$54	;248-255 LBFYGAR1,2,3,4
   1058  c300
   1059  c300					      ORG	$C300
   1060  c300							; ROCKPUSH MUST IMMEDIATELY PRECEDE CALCINDX
   1061  c300		       b5 5c	   ROCKPUSH   LDA	ROCKSX,X	;		 ;ENTRANCE POINT FROM FALL
   1062  c302		       48		      PHA
   1063  c303		       b5 49		      LDA	ROCKSY,X
   1064  c305		       38		      SEC
   1065  c306		       e9 0c		      SBC	#12
   1066  c308		       aa		      TAX
   1067  c309		       68		      PLA
   1068  c30a							;  EXPECTS X POSITION IN A, Y POSITION IN X.
   1069  c30a							;  RETURNS DIRT CHAR IN A, INDEX INTO DIRTMAP IN X.
   1070  c30a							;  USES TEMP.
   1071  c30a		       4a	   CALCINDX   LSR
   1072  c30b		       4a		      LSR
   1073  c30c		       4a		      LSR
   1074  c30d		       85 cc		      STA	TEMP	;		     ;COLUMN
   1075  c30f		       8a		      TXA
   1076  c310		       4a		      LSR
   1077  c311		       4a		      LSR
   1078  c312		       aa		      TAX
   1079  c313		       bd 90 24 	      LDA	DIV3TAB,X
   1080  c316		       aa		      TAX		;			      ;ROW
   1081  c317		       bd bf e7 	      LDA	MAPLOW,X	;		 ;ROW ADDRESS
   1082  c31a		       18		      CLC
   1083  c31b		       65 cc		      ADC	TEMP
   1084  c31d		       aa		      TAX		;			      ;INDEX INTO DIRTMAP
   1085  c31e		       bd 00 26 	      LDA	DIRTMAP,X
   1086  c321		       60		      RTS		;			      ;34
   1087  c322
   1088  c322
   1089  c322							;  USES X,A,Y.
   1090  c322							;  EXPECTS DIRTMAP,X IN A.
   1091  c322							;  USES TEMP.
   1092  c322							;  ASSUMES NEVER CALLED WHEN A<36.
   1093  c322		       85 cc	   DIGGER     STA	TEMP	;		     ;DIRTMAP,X
   1094  c324		       20 40 fd 	      JSR	BORE	;		     ;FOUND IN FALL FILE
   1095  c327		       c9 1e		      CMP	#30	;		      ;NEVER GOT HERE IF ALREADY < 30.
   1096  c329		       b0 12		      BCS	DIGGER5
   1097  c32b		       a9 0a		      LDA	#10	;		      ;ADD PTS FIRST TIME <30.
   1098  c32d		       a0 00		      LDY	#0
   1099  c32f		       20 76 df 	      JSR	ADDSCORE
   1100  c332		       a6 cc		      LDX	TEMP	;		     ;DON"T SLOW DOWN FOR HOURGLASS+BOWTIE
   1101  c334		       e0 2e		      CPX	#46
   1102  c336		       b0 09		      BCS	DIGGER6
   1103  c338		       a9 01	   DIGGER3    LDA	#1	;		       ;WANT HARPOON AND SLOW SPEED
   1104  c33a		       85 d2		      STA	DIGTEMP
   1105  c33c		       60		      RTS
   1106  c33d		       c5 cc	   DIGGER5    CMP	TEMP	;		     ;ANY CHANGE?
   1107  c33f		       d0 f7		      BNE	DIGGER3
   1108  c341		       60	   DIGGER6    RTS		;			      ;32
   1109  c342
   1110  c342
   1111  c342		       18	   CHKNXTD    CLC
   1112  c343		       65 80		      ADC	LASTMOVE
   1113  c345		       a8		      TAY
   1114  c346		       20 e9 e1 	      JSR	ADJUSTTO
   1115  c349		       20 0a c3 	      JSR	CALCINDX
   1116  c34c		       c9 24		      CMP	#36
   1117  c34e		       b0 04		      BCS	CHKNXTD2
   1118  c350		       a9 00		      LDA	#0	;		       ;DOES NOT AFFECT CARRY
   1119  c352		       85 d2		      STA	DIGTEMP	;		  ;DOES NOT AFFECT CARRY
   1120  c354		       60	   CHKNXTD2   RTS		;			      ;19
   1121  c355
   1122  c355							;  USES X AND A.
   1123  c355							;  RETURNS EQ IF ON ROW, NE IF NOT ON ROW.
   1124  c355		       a2 0f	   ROWHERE    LDX	#15
   1125  c357		       a5 40		      LDA	DDYPOS
   1126  c359		       dd ac ea    CHKINROW   CMP	TOPZONE,X	;		;ARE WE ON A ROW BORDER?
   1127  c35c		       f0 03		      BEQ	ROWHERE2
   1128  c35e		       ca		      DEX
   1129  c35f		       10 f8		      BPL	CHKINROW
   1130  c361		       60	   ROWHERE2   RTS		;			      ;13
   1131  c362
   1132  c362							;*;*;* ??? BYTE LEFT...
   1133  c362				   ENDC300
   1134  c362
   1135  c362							;;;;;;;;;;;;;;;;;;;;;;;;;;;;;;;;;;;;;;;;;;;;;;;;;;;;;;;;;;;;;;;;;;;;;;;;;;;;;;;;
   1136  c362							;;;;;;;;;;;;;;;;;;					    ;;;;;;;;;;;;;;;;;;;;;;
   1137  c362							;;;;;;;;;;;;;;;;;  ORG: PUT STUFF HERE WHICH IS PAGE	   ;;;;;;;;;;;;;;;;;;;;;;
   1138  c362							;;;;;;;;;;;;;;;;;	 BOUNDARY DEPENDENT.;		    ;;;;;;;;;;;;;;;;;;;;;;
   1139  c362							;;;;;;;;;;;;;;;;;;					    ;;;;;;;;;;;;;;;;;;;;;;
   1140  c362							;;;;;;;;;;;;;;;;;;					    ;;;;;;;;;;;;;;;;;;;;;;
   1141  c362							;;;;;;;;;;;;;;;;;;					    ;;;;;;;;;;;;;;;;;;;;;;
   1142  c362							;;;;;;;;;;;;;;;;;;					    ;;;;;;;;;;;;;;;;;;;;;;
   1143  c362							;;;;;;;;;;;;;;;;;;;;;;;;;;;;;;;;;;;;;;;;;;;;;;;;;;;;;;;;;;;;;;;;;;;;;;;;;;;;;;;;
   1144  c362
   1145  c362
   1146  c362					      ORG	$C362
   1147  c362		       00 00 00 00*	      DC.B	0,0,0,0,0,0,0,0,0,0,0,0,0,0	;	      ;98
   1148  c370		       00 00 00 00*	      DC.B	0,0,0,0,0,0,0,0,0,0,0,0,0,0,0,0	;112
   1149  c380		       00 00 00 00*	      DC.B	0,0,0,0,0,0,0,0,0,0,0,0,0,0,0,0	;128
   1150  c390		       00 00 00 00*	      DC.B	0,0,0,0,0,0,0,0,0,0,0,0,0,0,0,0	;144
   1151  c3a0		       00 00 00 00*	      DC.B	0,0,0,0,0,0,0,0,0,0,0,0,0,0,0,0	;160
   1152  c3b0		       00 00 00 00*	      DC.B	0,0,0,0,0,0,0,0,0,0,0,0,0,0,0,0	;176
   1153  c3c0		       00 00 00 00*	      DC.B	0,0,0,0,0,0,0,0,0,0,0,0,0,0,0,0	;192
   1154  c3d0		       00 00 00 00*	      DC.B	0,0,0,0,0,0,0,0,0,0,0,0,0,0,0,0	;208
   1155  c3e0		       55 54 15 54*	      DC.B	$55,$54,$15,$54,$15,$54,$55,$05	;224-31  RBPOOKA1,2,3,4
   1156  c3e8		       15 55 15 54*	      DC.B	$15,$55,$15,$54,$15,$54,$50,$55	;232-39  LBPOOKA1,2,3,4
   1157  c3f0		       a1 50 15 7c*	      DC.B	$A1,$50,$15,$7C,$17,$FF,$05,$CD	;240-47  RBFYGAR1,2,3,4
   1158  c3f8		       05 4a 3d 54*	      DC.B	$05,$4A,$3D,$54,$FF,$D4,$73,$50	;248-55  LBFYGAR1,2,3,4
   1159  c400
   1160  c400
   1161  c400					      ORG	$C400	;		    ;BOTTOM SCAN LINE: OFFSET = 0.
   1162  c400
   1163  c400							;*;*;*;*;*;*;*;*;*;*;*       STAMPS WITHOUT ZERO PADDING
   1164  c400
   1165  c400		       28 28 28 a8*	      DC.B	$28,$28,$28,$A8,$02,$A0	;		  ;0-5	  DDRIGHT 1,2,3
   1166  c406		       28 28 2a 28*	      DC.B	$28,$28,$2A,$28,$0A,$80	;		  ;6-11   DDLEFT 1,2,3
   1167  c40c		       00 00 00 00	      DC.B	$00,$00,$00,$00	;			  ;12-15  R,L FLAMEFYGAR
   1168  c410		       00 00 00 00	      DC.B	$00,$00,$00,$00	;			  ;16-19  R,L HARPOON
   1169  c414		       00 00		      DC.B	$00,$00	;				  ;20-21  R,L 4PIX FLAME
   1170  c416		       00 00 00 00*	      DC.B	$00,$00,$00,$00,$00,$50	;		  ;22-27  8,16PIX RFLAME
   1171  c41c		       00 00 00 00*	      DC.B	$00,$00,$00,$00,$01,$50	;		  ;28-33  24PIX RFLAME
   1172  c422		       00 00 00 00*	      DC.B	$00,$00,$00,$00,$00,$00	;		  ;34-39  8,16PIX LFLAME
   1173  c428		       00 00 00 00*	      DC.B	$00,$00,$00,$00,$00,$00	;		  ;40-45  24PIX LFLAME
   1174  c42e		       00 00 00 00*	      DC.B	$00,$00,$00,$00,$00,$00,$00,$00	;46-53  LPUMP24,R24->4
   1175  c436		       00		      DC.B	$00	;				      ;54     (WIDTH OVERLAP)
   1176  c437		       00 00 00 00*	      DC.B	$00,$00,$00,$00,$00,$00,$00,$00,$00	;55-63  LPUMP20,16
   1177  c440		       00 00 00 00*	      DC.B	$00,$00,$00,$00,$00,$00	;		  ;64-69  LPUMP12,8,4,OVR
   1178  c446
   1179  c446		       00 00 00 00*	      DC.B	$00,$00,$00,$00,$00,$00,$00,$00	;70-77  2000,3000
   1180  c44e		       00 00 00 00*	      DC.B	$00,$00,$00,$00,$00,$00,$00,$00	;78-85  5000,7000
   1181  c456		       2a a0		      DC.B	$2A,$A0	;				  ;86-87  TOTRK
   1182  c458		       00 00		      DC.B	$00,$00	;				  ;88-89  LETRO
   1183  c45a		       00 00 00 00*	      DC.B	$00,$00,$00,$00,$00,$00,$00,$00	;90-97  L,E,V,P
   1184  c462
   1185  c462							;*;*;*;*;*;*;*;*;*;*;*       ZERO PADDED STAMPS
   1186  c462
   1187  c462		       00 00 00 00*	      DC.B	$00,$00,$00,$00,$00,$00	;		  ;98-103 400,600
   1188  c468		       00 0c		      DC.B	$00,$0C	;				  ;104-05 UFULL,12 (PUMP)
   1189  c46a		       01 00		      DC.B	$01,$00	;				  ;106-07 HDEATH S
   1190  c46c		       28 28 02 80*	      DC.B	$28,$28,$02,$80,$00,$00	;		  ;108-13 HRDEATH 1,2,3
   1191  c472		       28 28 02 80*	      DC.B	$28,$28,$02,$80,$00,$00	;		  ;114-19 HLDEATH 1,2,3
   1192  c478		       2a 68 0a 60	      DC.B	$2A,$68,$0A,$60	;			  ;120-23 U,D HARPOON
   1193  c47c		       00 00 1a 28*	      DC.B	$00,$00,$1A,$28,$00,$00,$28,$A4	;124-31 POOKA:R1,2,L1,2
   1194  c484		       00 00 00 00*	      DC.B	$00,$00,$00,$00,$00,$00,$00,$00	;132-39 FYGAR:R1,2,L1,2
   1195  c48c		       00 00 00 00*	      DC.B	$00,$00,$00,$00,$0A,$A0,$00,$00	;140-47 GHOST:P1,2,F1,2
   1196  c494		       00 00 00 00*	      DC.B	$00,$00,$00,$00,$00,$00	;		  ;148-53 DDUP 1,2,3
   1197  c49a		       24 a2 25 a2*	      DC.B	$24,$A2,$25,$A2,$24,$A0	;		  ;154-59 DDDOWN 1,2,3
   1198  c4a0		       28 28 69 a0*	      DC.B	$28,$28,$69,$A0,$1A,$28	;		  ;160-65 SQUASH1: DD,F,P
   1199  c4a6		       28 a0 28 a0*	      DC.B	$28,$A0,$28,$A0,$2A,$A8	;		  ;166-71 ROCK:STR,SP,CRM
   1200  c4ac		       04 04 c0 03*	      DC.B	$04,$04,$C0,$03,$00,$0C	;		  ;172-77 DPMP,DFULL,U612
   1201  c4b2		       00 00 00 00*	      DC.B	$00,$00,$00,$00,$00,$00	;		  ;178-83 200,300
   1202  c4b8		       00 00 00 00*	      DC.B	$00,$00,$00,$00,$00,$00	;		  ;184-89 500,800
   1203  c4be		       00 00 00 00*	      DC.B	$00,$00,$00,$00,$00,$00,$00,$00	;190-97 2500,4000
   1204  c4c6		       00 00 00 00*	      DC.B	$00,$00,$00,$00,$00,$00,$00,$00	;198-05 6000,8000
   1205  c4ce		       00 00 00 00	      DC.B	$00,$00,$00,$00	;			  ;206-09 10000
   1206  c4d2		       00 00 00 00	      DC.B	$00,$00,$00,$00	;			  ;210-13 12000
   1207  c4d6		       00 00 00 00	      DC.B	$00,$00,$00,$00	;			  ;214-17 15000
   1208  c4da		       00 00 00 00	      DC.B	$00,$00,$00,$00	;			  ;218-21 1000
   1209  c4de		       00 00		      DC.B	$00,$00	;				  ;222-23 ZBLANK
   1210  c4e0		       ab 55 55 55*	      DC.B	$AB,$55,$55,$55,$55,$55,$57,$00	;224-31 RBPOOKA 1,2,3,4
   1211  c4e8		       55 ea 55 55*	      DC.B	$55,$EA,$55,$55,$55,$55,$00,$D5	;232-39 LBPOOKA 1,2,3,4
   1212  c4f0		       aa 50 15 7c*	      DC.B	$AA,$50,$15,$7C,$97,$FF,$17,$08	;240-47 RBFYGAR 1,2,3,4
   1213  c4f8		       05 aa 3d 54*	      DC.B	$05,$AA,$3D,$54,$FF,$D6,$20,$D4	;248-55 LBFYGAR 1,2,3,4
   1214  c500
   1215  c500
   1216  c500
   1217  c500					      ORG	$C500	;		    ;LINE 11: OFFSET = 1.
   1218  c500
   1219  c500							;*;*;*;*;*;*;*;*;*;*;*       STAMPS WITHOUT ZERO PADDING
   1220  c500
   1221  c500		       2a a0 2a a0*	      DC.B	$2A,$A0,$2A,$A0,$2A,$80	;		  ;0-5	  DDRIGHT 1,2,3
   1222  c506		       0a a8 0a a8*	      DC.B	$0A,$A8,$0A,$A8,$02,$A8	;		  ;6-11   DDLEFT 1,2,3
   1223  c50c		       5e fe 3f b5	      DC.B	$5E,$FE,$3F,$B5	;			  ;96-99  R,L FLAMEFYGAR
   1224  c510		       aa a8 2a aa	      DC.B	$AA,$A8,$2A,$AA	;			  ;100-03 R,L HARPOON
   1225  c514		       00 00		      DC.B	$00,$00	;				  ;20-21  R,L 4PIX FLAME
   1226  c516		       00 00 00 05*	      DC.B	$00,$00,$00,$05,$41,$50	;		  ;22-27  8,16PIX RFLAME
   1227  c51c		       00 00 00 00*	      DC.B	$00,$00,$00,$00,$55,$81	;		  ;28-33  24PIX RFLAME
   1228  c522		       00 00 01 00*	      DC.B	$00,$00,$01,$00,$00,$00	;		  ;34-39  8,16PIX LFLAME
   1229  c528		       05 40 00 00*	      DC.B	$05,$40,$00,$00,$00,$00	;		  ;40-45  24PIX LFLAME
   1230  c52e		       00 00 00 00*	      DC.B	$00,$00,$00,$00,$00,$00,$00,$00	;46-53  LPUMP24,R24->4
   1231  c536		       00		      DC.B	$00	;				      ;54     (WIDTH OVERLAP)
   1232  c537		       00 00 00 00*	      DC.B	$00,$00,$00,$00,$00,$00,$00,$00,$00	;55-63  LPUMP20,16
   1233  c540		       00 00 00 00*	      DC.B	$00,$00,$00,$00,$00,$00	;		  ;64-69  LPUMP12,8,4,OVR
   1234  c546
   1235  c546		       00 00 00 00*	      DC.B	$00,$00,$00,$00,$00,$00,$00,$00	;70-77  2000,3000
   1236  c54e		       00 00 00 00*	      DC.B	$00,$00,$00,$00,$00,$00,$00,$00	;78-85  5000,7000
   1237  c556		       16 a8		      DC.B	$16,$A8	;				  ;86-87  TOTRK
   1238  c558		       15 50		      DC.B	$15,$50	;				  ;88-89  LETRO
   1239  c55a		       55 54 15 54*	      DC.B	$55,$54,$15,$54,$01,$40,$50,$00	;90-97  L,E,V,P
   1240  c562
   1241  c562							;*;*;*;*;*;*;*;*;*;*;*       ZERO PADDED STAMPS
   1242  c562
   1243  c562		       00 00 00 00*	      DC.B	$00,$00,$00,$00,$00,$00	;		  ;98-103 400,600
   1244  c568		       00 3c		      DC.B	$00,$3C	;				  ;104-05 UFULL,12 (PUMP)
   1245  c56a		       41 04		      DC.B	$41,$04	;				  ;106-07 HDEATH S
   1246  c56c		       2a a0 2a 00*	      DC.B	$2A,$A0,$2A,$00,$50,$A8	;		  ;108-13 HRDEATH 1,2,3
   1247  c572		       0a a8 00 a4*	      DC.B	$0A,$A8,$00,$A4,$2A,$05	;		  ;114-19 HLDEATH 1,2,3
   1248  c578		       2a 68 29 58	      DC.B	$2A,$68,$29,$58	;			  ;120-23 U,D HARPOON
   1249  c57c		       00 00 08 20*	      DC.B	$00,$00,$08,$20,$00,$00,$08,$20	;124-31 POOKA:R1,2,L1,2
   1250  c584		       69 a0 5a 6a*	      DC.B	$69,$A0,$5A,$6A,$0A,$69,$A9,$A5	;132-39 FYGAR:R1,2,L1,2
   1251  c58c		       00 00 00 00*	      DC.B	$00,$00,$00,$00,$28,$28,$80,$02	;140-47 GHOST:P1,2,F1,2
   1252  c594		       05 90 05 90*	      DC.B	$05,$90,$05,$90,$05,$90	;		  ;148-53 DDUP 1,2,3
   1253  c59a		       24 aa 25 aa*	      DC.B	$24,$AA,$25,$AA,$24,$A4	;		  ;154-59 DDDOWN 1,2,3
   1254  c5a0		       2a a0 15 68*	      DC.B	$2A,$A0,$15,$68,$08,$20	;		  ;160-65 SQUASH1: DD,F,P
   1255  c5a6		       aa a8 aa a8*	      DC.B	$AA,$A8,$AA,$A8,$57,$DE	;		  ;166-71 ROCK:STR,SP,CRM
   1256  c5ac		       15 15 c0 03*	      DC.B	$15,$15,$C0,$03,$00,$3C	;		  ;172-77 DPMP,DFULL,U612
   1257  c5b2		       00 00 00 00*	      DC.B	$00,$00,$00,$00,$00,$00	;		  ;178-83 200,300
   1258  c5b8		       00 00 00 00*	      DC.B	$00,$00,$00,$00,$00,$00	;		  ;184-89 500,800
   1259  c5be		       00 00 00 00*	      DC.B	$00,$00,$00,$00,$00,$00,$00,$00	;190-97 2500,4000
   1260  c5c6		       00 00 00 00*	      DC.B	$00,$00,$00,$00,$00,$00,$00,$00	;198-05 6000,8000
   1261  c5ce		       00 00 00 00	      DC.B	$00,$00,$00,$00	;			  ;206-09 10000
   1262  c5d2		       00 00 00 00	      DC.B	$00,$00,$00,$00	;			  ;210-13 12000
   1263  c5d6		       00 00 00 00	      DC.B	$00,$00,$00,$00	;			  ;214-17 15000
   1264  c5da		       00 00 00 00	      DC.B	$00,$00,$00,$00	;			  ;218-21 1000
   1265  c5de		       00 00		      DC.B	$00,$00	;				  ;222-23 ZBLANK
   1266  c5e0		       af a5 55 55*	      DC.B	$AF,$A5,$55,$55,$55,$55,$5C,$00	;224-31 RBPOOKA 1,2,3,4
   1267  c5e8		       5a fa 55 55*	      DC.B	$5A,$FA,$55,$55,$55,$55,$00,$35	;232-39 LBPOOKA 1,2,3,4
   1268  c5f0		       2a 40 55 7c*	      DC.B	$2A,$40,$55,$7C,$57,$FF,$17,$03	;240-47 RBFYGAR 1,2,3,4
   1269  c5f8		       01 a8 3d 55*	      DC.B	$01,$A8,$3D,$55,$FF,$D5,$C0,$D4	;248-55 LBFYGAR 1,2,3,4
   1270  c600
   1271  c600
   1272  c600					      ORG	$C600	;		    ;LINE 10: OFFSET = 2.
   1273  c600
   1274  c600							;*;*;*;*;*;*;*;*;*;*;*       STAMPS WITHOUT ZERO PADDING
   1275  c600
   1276  c600		       2a a4 2a a4*	      DC.B	$2A,$A4,$2A,$A4,$2A,$A4	;		  ;0-5	  DDRIGHT 1,2,3
   1277  c606		       2a a8 2a a8*	      DC.B	$2A,$A8,$2A,$A8,$1A,$A8	;		  ;6-11   DDLEFT 1,2,3
   1278  c60c		       57 d4 16 d5	      DC.B	$57,$D4,$16,$D5	;			  ;96-99  R,L FLAMEFYGAR
   1279  c610		       aa aa aa aa	      DC.B	$AA,$AA,$AA,$AA	;			  ;100-03 R,L HARPOON
   1280  c614		       00 00		      DC.B	$00,$00	;				  ;20-21  R,L 4PIX FLAME
   1281  c616		       00 54 00 25*	      DC.B	$00,$54,$00,$25,$55,$40	;		  ;22-27  8,16PIX RFLAME
   1282  c61c		       00 59 40 01*	      DC.B	$00,$59,$40,$01,$51,$45	;		  ;28-33  24PIX RFLAME
   1283  c622		       00 00 01 40*	      DC.B	$00,$00,$01,$40,$00,$00	;		  ;34-39  8,16PIX LFLAME
   1284  c628		       42 55 00 00*	      DC.B	$42,$55,$00,$00,$00,$00	;		  ;40-45  24PIX LFLAME
   1285  c62e		       00 00 00 00*	      DC.B	$00,$00,$00,$00,$00,$00,$00,$00	;46-53  LPUMP24,R24->4
   1286  c636		       00		      DC.B	$00	;				      ;54     (WIDTH OVERLAP)
   1287  c637		       00 00 00 00*	      DC.B	$00,$00,$00,$00,$00,$00,$00,$00,$00	;55-63  LPUMP20,16
   1288  c640		       00 00 00 00*	      DC.B	$00,$00,$00,$00,$00,$00	;		  ;64-69  LPUMP12,8,4,OVR
   1289  c646
   1290  c646		       3f ff ff fc*	      DC.B	$3F,$FF,$FF,$FC,$3F,$FF,$FF,$FC	;70-77  2000,3000
   1291  c64e		       3f ff ff fc*	      DC.B	$3F,$FF,$FF,$FC,$3F,$FF,$FF,$FC	;78-85  5000,7000
   1292  c656		       55 7a		      DC.B	$55,$7A	;				  ;86-87  TOTRK
   1293  c658		       aa a8		      DC.B	$AA,$A8	;				  ;88-89  LETRO
   1294  c65a		       aa a8 aa a8*	      DC.B	$AA,$A8,$AA,$A8,$2A,$A0,$A0,$00	;90-97  L,E,V,P
   1295  c662
   1296  c662							;*;*;*;*;*;*;*;*;*;*;*       ZERO PADDED STAMPS
   1297  c662
   1298  c662		       3f ff fc 3f*	      DC.B	$3F,$FF,$FC,$3F,$FF,$FC	;		  ;98-103 400,600
   1299  c668		       00 30		      DC.B	$00,$30	;				  ;104-05 UFULL,12 (PUMP)
   1300  c66a		       11 10		      DC.B	$11,$10	;				  ;106-07 HDEATH S
   1301  c66c		       2a a4 5a aa*	      DC.B	$2A,$A4,$5A,$AA,$5A,$A0	;		  ;108-13 HRDEATH 1,2,3
   1302  c672		       2a a8 aa a5*	      DC.B	$2A,$A8,$AA,$A5,$0A,$A5	;		  ;114-19 HLDEATH 1,2,3
   1303  c678		       2a a8 2a 68	      DC.B	$2A,$A8,$2A,$68	;			  ;120-23 U,D HARPOON
   1304  c67c		       ca 28 f5 54*	      DC.B	$CA,$28,$F5,$54,$28,$A3,$15,$5F	;124-31 POOKA:R1,2,L1,2
   1305  c684		       15 68 56 94*	      DC.B	$15,$68,$56,$94,$29,$54,$16,$95	;132-39 FYGAR:R1,2,L1,2
   1306  c68c		       28 0a 00 00*	      DC.B	$28,$0A,$00,$00,$A2,$8A,$A4,$1A	;140-47 GHOST:P1,2,F1,2
   1307  c694		       29 aa 29 6a*	      DC.B	$29,$AA,$29,$6A,$29,$A4	;		  ;148-53 DDUP 1,2,3
   1308  c69a		       26 aa 26 aa*	      DC.B	$26,$AA,$26,$AA,$26,$A6	;		  ;154-59 DDDOWN 1,2,3
   1309  c6a0		       2a a4 a5 5a*	      DC.B	$2A,$A4,$A5,$5A,$F5,$54	;		  ;160-65 SQUASH1: DD,F,P
   1310  c6a6		       96 58 96 5a*	      DC.B	$96,$58,$96,$5A,$96,$75	;		  ;166-71 ROCK:STR,SP,CRM
   1311  c6ac		       0c 0c c0 03*	      DC.B	$0C,$0C,$C0,$03,$00,$30	;		  ;172-77 DPMP,DFULL,U612
   1312  c6b2		       3f ff fc 3f*	      DC.B	$3F,$FF,$FC,$3F,$FF,$FC	;		  ;178-83 200,300
   1313  c6b8		       3f ff fc 3f*	      DC.B	$3F,$FF,$FC,$3F,$FF,$FC	;		  ;184-89 500,800
   1314  c6be		       3f ff ff fc*	      DC.B	$3F,$FF,$FF,$FC,$3F,$FF,$FF,$FC	;190-97 2500,4000
   1315  c6c6		       3f ff ff fc*	      DC.B	$3F,$FF,$FF,$FC,$3F,$FF,$FF,$FC	;198-05 6000,8000
   1316  c6ce		       3f ff ff fc	      DC.B	$3F,$FF,$FF,$FC	;			  ;206-09 10000
   1317  c6d2		       3f ff ff fc	      DC.B	$3F,$FF,$FF,$FC	;			  ;210-13 12000
   1318  c6d6		       3f ff ff fc	      DC.B	$3F,$FF,$FF,$FC	;			  ;214-17 15000
   1319  c6da		       3f ff ff fc	      DC.B	$3F,$FF,$FF,$FC	;			  ;218-21 1000
   1320  c6de		       00 00		      DC.B	$00,$00	;				  ;222-23 ZBLANK
   1321  c6e0		       6c ed 55 55*	      DC.B	$6C,$ED,$55,$55,$55,$55,$54,$03	;224-31 RBPOOKA 1,2,3,4
   1322  c6e8		       7b 39 55 55*	      DC.B	$7B,$39,$55,$55,$55,$55,$C0,$15	;232-39 LBPOOKA 1,2,3,4
   1323  c6f0		       f7 50 55 5c*	      DC.B	$F7,$50,$55,$5C,$57,$FF,$57,$00	;240-47 RBFYGAR 1,2,3,4
   1324  c6f8		       05 df 35 55*	      DC.B	$05,$DF,$35,$55,$FF,$D5,$00,$D5	;248-55 LBFYGAR 1,2,3,4
   1325  c700
   1326  c700
   1327  c700					      ORG	$C700	;		    ;LINE 9: OFFSET = 3.
   1328  c700
   1329  c700							;*;*;*;*;*;*;*;*;*;*;*       STAMPS WITHOUT ZERO PADDING
   1330  c700
   1331  c700		       96 a8 5a a9*	      DC.B	$96,$A8,$5A,$A9,$96,$A8	;		  ;0-5	  DDRIGHT 1,2,3
   1332  c706		       2a 96 6a a5*	      DC.B	$2A,$96,$6A,$A5,$2A,$96	;		  ;6-11   DDLEFT 1,2,3
   1333  c70c		       15 f0 0b 54	      DC.B	$15,$F0,$0B,$54	;			  ;96-99  R,L FLAMEFYGAR
   1334  c710		       aa aa aa aa	      DC.B	$AA,$AA,$AA,$AA	;			  ;100-03 R,L HARPOON
   1335  c714		       00 00		      DC.B	$00,$00	;				  ;20-21  R,L 4PIX FLAME
   1336  c716		       21 54 00 59*	      DC.B	$21,$54,$00,$59,$15,$40	;		  ;22-27  8,16PIX RFLAME
   1337  c71c		       01 a6 55 10*	      DC.B	$01,$A6,$55,$10,$05,$69	;		  ;28-33  24PIX RFLAME
   1338  c722		       00 00 01 50*	      DC.B	$00,$00,$01,$50,$54,$00	;		  ;34-39  8,16PIX LFLAME
   1339  c728		       51 45 40 01*	      DC.B	$51,$45,$40,$01,$65,$00	;		  ;40-45  24PIX LFLAME
   1340  c72e		       00 3c 00 3c*	      DC.B	$00,$3C,$00,$3C,$00,$3C,$00,$00	;46-53  LPUMP24,R24->4
   1341  c736		       00		      DC.B	$00	;				      ;54     (WIDTH OVERLAP)
   1342  c737		       00 3c 00 3c*	      DC.B	$00,$3C,$00,$3C,$00,$00,$3C,$00,$3C	;55-63  LPUMP20,16
   1343  c740		       00 3c 00 00*	      DC.B	$00,$3C,$00,$00,$3C,$00	;		  ;64-69  LPUMP12,8,4,OVR
   1344  c746
   1345  c746		       fd 5f 77 7f*	      DC.B	$FD,$5F,$77,$7F,$FF,$7F,$77,$7F	;70-77  2000,3000
   1346  c74e		       ff 7f 77 7f*	      DC.B	$FF,$7F,$77,$7F,$FD,$FF,$77,$7F	;78-85  5000,7000
   1347  c756		       7d 7e		      DC.B	$7D,$7E	;				  ;86-87  TOTRK
   1348  c758		       50 14		      DC.B	$50,$14	;				  ;88-89  LETRO
   1349  c75a		       50 00 50 00*	      DC.B	$50,$00,$50,$00,$14,$50,$50,$00	;90-97  L,E,V,P
   1350  c762
   1351  c762							;*;*;*;*;*;*;*;*;*;*;*       ZERO PADDED STAMPS
   1352  c762
   1353  c762		       ff 7d df fd*	      DC.B	$FF,$7D,$DF,$FD,$FD,$DF	;		  ;98-103 400,600
   1354  c768		       00 c0		      DC.B	$00,$C0	;				  ;104-05 UFULL,12 (PUMP)
   1355  c76a		       00 00		      DC.B	$00,$00	;				  ;106-07 HDEATH S
   1356  c76c		       aa a9 5a 9a*	      DC.B	$AA,$A9,$5A,$9A,$6A,$88	;		  ;108-13 HRDEATH 1,2,3
   1357  c772		       6a aa a6 a5*	      DC.B	$6A,$AA,$A6,$A5,$22,$A9	;		  ;114-19 HLDEATH 1,2,3
   1358  c778		       2a a8 2a 68	      DC.B	$2A,$A8,$2A,$68	;			  ;120-23 U,D HARPOON
   1359  c77c		       d6 9a d5 55*	      DC.B	$D6,$9A,$D5,$55,$A6,$97,$55,$57	;124-31 POOKA:R1,2,L1,2
   1360  c784		       a5 5a 15 a0*	      DC.B	$A5,$5A,$15,$A0,$A5,$5A,$0A,$54	;132-39 FYGAR:R1,2,L1,2
   1361  c78c		       2a 2a a8 a8*	      DC.B	$2A,$2A,$A8,$A8,$88,$22,$8A,$A2	;140-47 GHOST:P1,2,F1,2
   1362  c794		       29 6a 2a 5a*	      DC.B	$29,$6A,$2A,$5A,$29,$68	;		  ;148-53 DDUP 1,2,3
   1363  c79a		       ae a8 ae aa*	      DC.B	$AE,$A8,$AE,$AA,$AE,$AA	;		  ;154-59 DDDOWN 1,2,3
   1364  c7a0		       25 dd ff 37*	      DC.B	$25,$DD,$FF,$37,$AC,$CA	;		  ;160-65 SQUASH1: DD,F,P
   1365  c7a6		       5d 76 5d 76*	      DC.B	$5D,$76,$5D,$76,$24,$96	;		  ;166-71 ROCK:STR,SP,CRM
   1366  c7ac		       0c 0c 30 0c*	      DC.B	$0C,$0C,$30,$0C,$00,$C0	;		  ;172-77 DPMP,DFULL,U612
   1367  c7b2		       f5 7d df f5*	      DC.B	$F5,$7D,$DF,$F5,$FD,$DF	;		  ;178-83 200,300
   1368  c7b8		       fd fd df fd*	      DC.B	$FD,$FD,$DF,$FD,$FD,$DF	;		  ;184-89 500,800
   1369  c7be		       d5 f7 f7 7f*	      DC.B	$D5,$F7,$F7,$7F,$FF,$DF,$77,$7F	;190-97 2500,4000
   1370  c7c6		       ff 7f 77 7f*	      DC.B	$FF,$7F,$77,$7F,$FF,$7F,$77,$7F	;198-05 6000,8000
   1371  c7ce		       fd f7 77 7f	      DC.B	$FD,$F7,$77,$7F	;			  ;206-09 10000
   1372  c7d2		       f7 57 dd df	      DC.B	$F7,$57,$DD,$DF	;			  ;210-13 12000
   1373  c7d6		       f7 df dd df	      DC.B	$F7,$DF,$DD,$DF	;			  ;214-17 15000
   1374  c7da		       ff 7d dd ff	      DC.B	$FF,$7D,$DD,$FF	;			  ;218-21 1000
   1375  c7de		       00 00		      DC.B	$00,$00	;				  ;222-23 ZBLANK
   1376  c7e0		       6c cd 9a 55*	      DC.B	$6C,$CD,$9A,$55,$55,$55,$5C,$00	;224-31 RBPOOKA 1,2,3,4
   1377  c7e8		       73 39 55 a6*	      DC.B	$73,$39,$55,$A6,$55,$55,$00,$35	;232-39 LBPOOKA 1,2,3,4
   1378  c7f0		       ff 34 a9 55*	      DC.B	$FF,$34,$A9,$55,$55,$FF,$A9,$03	;240-47 RBFYGAR 1,2,3,4
   1379  c7f8		       1c ff 55 6a*	      DC.B	$1C,$FF,$55,$6A,$FF,$55,$C0,$6A	;248-55 LBFYGAR 1,2,3,4
   1380  c800
   1381  c800
   1382  c800					      ORG	$C800	;		    ;LINE 8: OFFSET = 4.
   1383  c800
   1384  c800							;*;*;*;*;*;*;*;*;*;*;*       STAMPS WITHOUT ZERO PADDING
   1385  c800
   1386  c800		       5a a4 6a a4*	      DC.B	$5A,$A4,$6A,$A4,$5A,$A4	;		  ;0-5	  DDRIGHT 1,2,3
   1387  c806		       1a a5 1a a9*	      DC.B	$1A,$A5,$1A,$A9,$1A,$A5	;		  ;6-11   DDLEFT 1,2,3
   1388  c80c		       3e 50 05 bc	      DC.B	$3E,$50,$05,$BC	;			  ;96-99  R,L FLAMEFYGAR
   1389  c810		       aa a6 9a aa	      DC.B	$AA,$A6,$9A,$AA	;			  ;100-03 R,L HARPOON
   1390  c814		       14 00		      DC.B	$14,$00	;				  ;20-21  R,L 4PIX FLAME
   1391  c816		       15 55 05 65*	      DC.B	$15,$55,$05,$65,$41,$54	;		  ;22-27  8,16PIX RFLAME
   1392  c81c		       1a fa 89 51*	      DC.B	$1A,$FA,$89,$51,$00,$59	;		  ;28-33  24PIX RFLAME
   1393  c822		       00 00 00 55*	      DC.B	$00,$00,$00,$55,$56,$00	;		  ;34-39  8,16PIX LFLAME
   1394  c828		       69 50 04 55*	      DC.B	$69,$50,$04,$55,$9A,$40	;		  ;40-45  24PIX LFLAME
   1395  c82e		       00 c3 00 c3*	      DC.B	$00,$C3,$00,$C3,$00,$C3,$00,$04	;46-53  LPUMP24,R24->4
   1396  c836		       00		      DC.B	$00	;				      ;54     (WIDTH OVERLAP)
   1397  c837		       00 c3 00 c3*	      DC.B	$00,$C3,$00,$C3,$00,$00,$C3,$00,$C3	;55-63  LPUMP20,16
   1398  c840		       00 c3 00 00*	      DC.B	$00,$C3,$00,$00,$C3,$00	;		  ;64-69  LPUMP12,8,4,OVR
   1399  c846
   1400  c846		       fd fd dd df*	      DC.B	$FD,$FD,$DD,$DF,$FD,$DD,$DD,$DF	;70-77  2000,3000
   1401  c84e		       fd dd dd df*	      DC.B	$FD,$DD,$DD,$DF,$FD,$FD,$DD,$DF	;78-85  5000,7000
   1402  c856		       55 75		      DC.B	$55,$75	;				  ;86-87  TOTRK
   1403  c858		       a0 28		      DC.B	$A0,$28	;				  ;88-89  LETRO
   1404  c85a		       a0 00 a0 00*	      DC.B	$A0,$00,$A0,$00,$A8,$A8,$AA,$A0	;90-97  L,E,V,P
   1405  c862
   1406  c862							;*;*;*;*;*;*;*;*;*;*;*       ZERO PADDED STAMPS
   1407  c862
   1408  c862		       ff 77 77 f7*	      DC.B	$FF,$77,$77,$F7,$77,$77	;		  ;98-103 400,600
   1409  c868		       00 c0		      DC.B	$00,$C0	;				  ;104-05 UFULL,12 (PUMP)
   1410  c86a		       00 00		      DC.B	$00,$00	;				  ;106-07 HDEATH S
   1411  c86c		       6a a5 6a a5*	      DC.B	$6A,$A5,$6A,$A5,$6A,$AA	;		  ;108-13 HRDEATH 1,2,3
   1412  c872		       5a a9 5a a9*	      DC.B	$5A,$A9,$5A,$A9,$AA,$A9	;		  ;114-19 HLDEATH 1,2,3
   1413  c878		       2a a8 2a a8	      DC.B	$2A,$A8,$2A,$A8	;			  ;120-23 U,D HARPOON
   1414  c87c		       f5 96 da 69*	      DC.B	$F5,$96,$DA,$69,$96,$5F,$69,$A7	;124-31 POOKA:R1,2,L1,2
   1415  c884		       a9 50 2a 50*	      DC.B	$A9,$50,$2A,$50,$05,$6A,$05,$A8	;132-39 FYGAR:R1,2,L1,2
   1416  c88c		       3f fe be e8*	      DC.B	$3F,$FE,$BE,$E8,$A0,$0A,$20,$08	;140-47 GHOST:P1,2,F1,2
   1417  c894		       aa 68 aa 98*	      DC.B	$AA,$68,$AA,$98,$AA,$68	;		  ;148-53 DDUP 1,2,3
   1418  c89a		       a6 a8 a6 a8*	      DC.B	$A6,$A8,$A6,$A8,$A6,$A8	;		  ;154-59 DDDOWN 1,2,3
   1419  c8a0		       a5 dd f7 cc*	      DC.B	$A5,$DD,$F7,$CC,$AC,$CA	;		  ;160-65 SQUASH1: DD,F,P
   1420  c8a6		       7d 75 7d b5*	      DC.B	$7D,$75,$7D,$B5,$00,$20	;		  ;166-71 ROCK:STR,SP,CRM
   1421  c8ac		       3c 3c 3c 3c*	      DC.B	$3C,$3C,$3C,$3C,$00,$C0	;		  ;172-77 DPMP,DFULL,U612
   1422  c8b2		       f7 f7 77 ff*	      DC.B	$F7,$F7,$77,$FF,$77,$77	;		  ;178-83 200,300
   1423  c8b8		       f7 77 77 f7*	      DC.B	$F7,$77,$77,$F7,$77,$77	;		  ;184-89 500,800
   1424  c8be		       df dd dd df*	      DC.B	$DF,$DD,$DD,$DF,$FF,$DD,$DD,$DF	;190-97 2500,4000
   1425  c8c6		       fd dd dd df*	      DC.B	$FD,$DD,$DD,$DF,$FD,$DD,$DD,$DF	;198-05 6000,8000
   1426  c8ce		       fd dd dd df	      DC.B	$FD,$DD,$DD,$DF	;			  ;206-09 10000
   1427  c8d2		       f7 7f 77 77	      DC.B	$F7,$7F,$77,$77	;			  ;210-13 12000
   1428  c8d6		       f7 77 77 77	      DC.B	$F7,$77,$77,$77	;			  ;214-17 15000
   1429  c8da		       ff 77 77 7f	      DC.B	$FF,$77,$77,$7F	;			  ;218-21 1000
   1430  c8de		       00 00		      DC.B	$00,$00	;				  ;222-23 ZBLANK
   1431  c8e0		       5a cc ab a5*	      DC.B	$5A,$CC,$AB,$A5,$55,$55,$95,$00	;224-31 RBPOOKA 1,2,3,4
   1432  c8e8		       33 a5 5a ea*	      DC.B	$33,$A5,$5A,$EA,$55,$55,$00,$56	;232-39 LBPOOKA 1,2,3,4
   1433  c8f0		       33 44 a7 57*	      DC.B	$33,$44,$A7,$57,$15,$FD,$AA,$C8	;240-47 RBFYGAR 1,2,3,4
   1434  c8f8		       11 cc d5 da*	      DC.B	$11,$CC,$D5,$DA,$7F,$54,$23,$AA	;248-55 LBFYGAR 1,2,3,4
   1435  c900
   1436  c900
   1437  c900					      ORG	$C900	;		    ;LINE 7: OFFSET = 5.
   1438  c900
   1439  c900							;*;*;*;*;*;*;*;*;*;*;*       STAMPS WITHOUT ZERO PADDING
   1440  c900
   1441  c900		       69 54 69 54*	      DC.B	$69,$54,$69,$54,$69,$54	;		  ;0-5	  DDRIGHT 1,2,3
   1442  c906		       15 69 15 69*	      DC.B	$15,$69,$15,$69,$15,$69	;		  ;6-11   DDLEFT 1,2,3
   1443  c90c		       f9 55 55 6f	      DC.B	$F9,$55,$55,$6F	;			  ;96-99  R,L FLAMEFYGAR
   1444  c910		       6a 55 55 a9	      DC.B	$6A,$55,$55,$A9	;			  ;100-03 R,L HARPOON
   1445  c914		       55 05		      DC.B	$55,$05	;				  ;20-21  R,L 4PIX FLAME
   1446  c916		       5a 55 17 ea*	      DC.B	$5A,$55,$17,$EA,$55,$05	;		  ;22-27  8,16PIX RFLAME
   1447  c91c		       aa ba a5 41*	      DC.B	$AA,$BA,$A5,$41,$00,$69	;		  ;28-33  24PIX RFLAME
   1448  c922		       15 00 00 55*	      DC.B	$15,$00,$00,$55,$19,$40	;		  ;34-39  8,16PIX LFLAME
   1449  c928		       65 00 45 62*	      DC.B	$65,$00,$45,$62,$AF,$A4	;		  ;40-45  24PIX LFLAME
   1450  c92e		       10 c3 00 c3*	      DC.B	$10,$C3,$00,$C3,$00,$C3,$00,$F5	;46-53  LPUMP24,R24->4
   1451  c936		       00		      DC.B	$00	;				      ;54     (WIDTH OVERLAP)
   1452  c937		       10 c3 00 c3*	      DC.B	$10,$C3,$00,$C3,$00,$10,$C3,$00,$C3	;55-63  LPUMP20,16
   1453  c940		       10 c3 00 10*	      DC.B	$10,$C3,$00,$10,$C3,$10	;		  ;64-69  LPUMP12,8,4,OVR
   1454  c946
   1455  c946		       ff 7d dd df*	      DC.B	$FF,$7D,$DD,$DF,$FF,$DD,$DD,$DF	;70-77  2000,3000
   1456  c94e		       ff dd dd df*	      DC.B	$FF,$DD,$DD,$DF,$FD,$7D,$DD,$DF	;78-85  5000,7000
   1457  c956		       5d dd		      DC.B	$5D,$DD	;				  ;86-87  TOTRK
   1458  c958		       50 14		      DC.B	$50,$14	;				  ;88-89  LETRO
   1459  c95a		       50 00 55 54*	      DC.B	$50,$00,$55,$54,$50,$14,$55,$54	;90-97  L,E,V,P
   1460  c962
   1461  c962							;*;*;*;*;*;*;*;*;*;*;*       ZERO PADDED STAMPS
   1462  c962
   1463  c962		       f5 57 77 f7*	      DC.B	$F5,$57,$77,$F7,$77,$77	;		  ;98-103 400,600
   1464  c968		       00 c0		      DC.B	$00,$C0	;				  ;104-05 UFULL,12 (PUMP)
   1465  c96a		       51 15		      DC.B	$51,$15	;				  ;106-07 HDEATH S
   1466  c96c		       69 55 a5 55*	      DC.B	$69,$55,$A5,$55,$6A,$A6	;		  ;108-13 HRDEATH 1,2,3
   1467  c972		       55 69 55 5a*	      DC.B	$55,$69,$55,$5A,$9A,$A9	;		  ;114-19 HLDEATH 1,2,3
   1468  c978		       2a a8 2a a8	      DC.B	$2A,$A8,$2A,$A8	;			  ;120-23 U,D HARPOON
   1469  c97c		       5a 69 6f be*	      DC.B	$5A,$69,$6F,$BE,$69,$A5,$BE,$F9	;124-31 POOKA:R1,2,L1,2
   1470  c984		       2a 50 a9 55*	      DC.B	$2A,$50,$A9,$55,$05,$A8,$55,$6A	;132-39 FYGAR:R1,2,L1,2
   1471  c98c		       20 c2 b3 28*	      DC.B	$20,$C2,$B3,$28,$08,$20,$0A,$A4	;140-47 GHOST:P1,2,F1,2
   1472  c994		       a6 68 a6 a8*	      DC.B	$A6,$68,$A6,$A8,$A6,$6A	;		  ;148-53 DDUP 1,2,3
   1473  c99a		       ae 68 ae a8*	      DC.B	$AE,$68,$AE,$A8,$AE,$6A	;		  ;154-59 DDDOWN 1,2,3
   1474  c9a0		       aa aa 73 55*	      DC.B	$AA,$AA,$73,$55,$6F,$FA	;		  ;160-65 SQUASH: DD,F,P
   1475  c9a6		       55 dd 56 5d*	      DC.B	$55,$DD,$56,$5D,$00,$00	;		  ;166-71 ROCK:STR,SP,CRM
   1476  c9ac		       30 30 0c 30*	      DC.B	$30,$30,$0C,$30,$00,$C0	;		  ;172-77 DPMP,DFULL,U612
   1477  c9b2		       fd f7 77 ff*	      DC.B	$FD,$F7,$77,$FF,$77,$77	;		  ;178-83 200,300
   1478  c9b8		       ff 77 77 f7*	      DC.B	$FF,$77,$77,$F7,$77,$77	;		  ;184-89 500,800
   1479  c9be		       f7 fd dd df*	      DC.B	$F7,$FD,$DD,$DF,$FD,$55,$DD,$DF	;190-97 2500,4000
   1480  c9c6		       fd dd dd df*	      DC.B	$FD,$DD,$DD,$DF,$FD,$DD,$DD,$DF	;198-05 6000,8000
   1481  c9ce		       fd dd dd df	      DC.B	$FD,$DD,$DD,$DF	;			  ;206-09 10000
   1482  c9d2		       f7 df 77 77	      DC.B	$F7,$DF,$77,$77	;			  ;210-13 12000
   1483  c9d6		       f7 f7 77 77	      DC.B	$F7,$F7,$77,$77	;			  ;214-17 15000
   1484  c9da		       ff 77 77 7f	      DC.B	$FF,$77,$77,$7F	;			  ;218-21 1000
   1485  c9de		       00 00		      DC.B	$00,$00	;				  ;222-23 ZBLANK
   1486  c9e0		       15 fc af e9*	      DC.B	$15,$FC,$AF,$E9,$5A,$65,$AB,$43	;224-31 RBPOOKA 1,2,3,4
   1487  c9e8		       3f 54 6b fa*	      DC.B	$3F,$54,$6B,$FA,$59,$A5,$C1,$EA	;232-39 LBPOOKA 1,2,3,4
   1488  c9f0		       1f c0 ff 33*	      DC.B	$1F,$C0,$FF,$33,$A9,$54,$79,$7C	;240-47 RBFYGAR 1,2,3,4
   1489  c9f8		       03 f4 cc ff*	      DC.B	$03,$F4,$CC,$FF,$15,$6A,$3D,$6D	;248-55 LBFYGAR 1,2,3,4
   1490  ca00
   1491  ca00
   1492  ca00					      ORG	$CA00	;		    ;LINE 6: OFFSET = 6.
   1493  ca00
   1494  ca00							;*;*;*;*;*;*;*;*;*;*;*       STAMPS WITHOUT ZERO PADDING
   1495  ca00
   1496  ca00		       25 dd 25 dd*	      DC.B	$25,$DD,$25,$DD,$25,$DD	;		  ;0-5	  DDRIGHT 1,2,3
   1497  ca06		       77 58 77 58*	      DC.B	$77,$58,$77,$58,$77,$58	;		  ;6-11   DDLEFT 1,2,3
   1498  ca0c		       e7 33 cc db	      DC.B	$E7,$33,$CC,$DB	;			  ;96-99  R,L FLAMEFYGAR
   1499  ca10		       aa a6 9a aa	      DC.B	$AA,$A6,$9A,$AA	;			  ;100-03 R,L HARPOON
   1500  ca14		       69 55		      DC.B	$69,$55	;				  ;20-21  R,L 4PIX FLAME
   1501  ca16		       59 94 16 e9*	      DC.B	$59,$94,$16,$E9,$65,$05	;		  ;22-27  8,16PIX RFLAME
   1502  ca1c		       5b e9 99 95*	      DC.B	$5B,$E9,$99,$95,$01,$64	;		  ;28-33  24PIX RFLAME
   1503  ca22		       15 48 05 50*	      DC.B	$15,$48,$05,$50,$56,$54	;		  ;34-39  8,16PIX LFLAME
   1504  ca28		       69 00 41 5a*	      DC.B	$69,$00,$41,$5A,$AE,$AA	;		  ;40-45  24PIX LFLAME
   1505  ca2e		       5f 00 c3 00*	      DC.B	$5F,$00,$C3,$00,$C3,$00,$C3,$04	;46-53  LPUMP24,R24->4
   1506  ca36		       00		      DC.B	$00	;				      ;54     (WIDTH OVERLAP)
   1507  ca37		       5f 00 c3 00*	      DC.B	$5F,$00,$C3,$00,$C3,$5F,$00,$C3,$00	;55-63  LPUMP20,16
   1508  ca40		       5f 00 c3 5f*	      DC.B	$5F,$00,$C3,$5F,$00,$5F	;		  ;64-69  LPUMP12,8,4,OVR
   1509  ca46
   1510  ca46		       ff dd dd df*	      DC.B	$FF,$DD,$DD,$DF,$FF,$5D,$DD,$DF	;70-77  2000,3000
   1511  ca4e		       fd 7d dd df*	      DC.B	$FD,$7D,$DD,$DF,$FF,$7D,$DD,$DF	;78-85  5000,7000
   1512  ca56		       5d 5d		      DC.B	$5D,$5D	;				  ;86-87  TOTRK
   1513  ca58		       50 14		      DC.B	$50,$14	;				  ;88-89  LETRO
   1514  ca5a		       50 00 55 54*	      DC.B	$50,$00,$55,$54,$50,$14,$50,$14	;90-97  L,E,V,P
   1515  ca62
   1516  ca62							;*;*;*;*;*;*;*;*;*;*;*       ZERO PADDED STAMPS
   1517  ca62
   1518  ca62		       f7 77 77 f5*	      DC.B	$F7,$77,$77,$F5,$F7,$77	;		  ;98-103 400,600
   1519  ca68		       30 30		      DC.B	$30,$30	;				  ;104-05 UFULL,12 (PUMP)
   1520  ca6a		       00 00		      DC.B	$00,$00	;				  ;106-07 HDEATH S
   1521  ca6c		       65 dd 97 74*	      DC.B	$65,$DD,$97,$74,$A5,$55	;		  ;108-13 HRDEATH 1,2,3
   1522  ca72		       77 59 1d d6*	      DC.B	$77,$59,$1D,$D6,$55,$5A	;		  ;114-19 HLDEATH 1,2,3
   1523  ca78		       2a a8 2a a8	      DC.B	$2A,$A8,$2A,$A8	;			  ;120-23 U,D HARPOON
   1524  ca7c		       6f be ac ca*	      DC.B	$6F,$BE,$AC,$CA,$BE,$F9,$A3,$3A	;124-31 POOKA:R1,2,L1,2
   1525  ca84		       29 54 a7 33*	      DC.B	$29,$54,$A7,$33,$15,$68,$CC,$DA	;132-39 FYGAR:R1,2,L1,2
   1526  ca8c		       2c ce b3 28*	      DC.B	$2C,$CE,$B3,$28,$68,$29,$90,$06	;140-47 GHOST:P1,2,F1,2
   1527  ca94		       ae 68 ae a8*	      DC.B	$AE,$68,$AE,$A8,$AE,$6A	;		  ;148-53 DDUP 1,2,3
   1528  ca9a		       a6 68 a6 a8*	      DC.B	$A6,$68,$A6,$A8,$A6,$6A	;		  ;154-59 DDDOWN 1,2,3
   1529  caa0		       2a a0 3f 54*	      DC.B	$2A,$A0,$3F,$54,$5A,$A9	;		  ;160-65 SQUASH1: DD,F,P
   1530  caa6		       5d 5d 5e 5d*	      DC.B	$5D,$5D,$5E,$5D,$00,$00	;		  ;166-71 ROCK:STR,SP,CRM
   1531  caac		       00 c0 03 c0*	      DC.B	$00,$C0,$03,$C0,$30,$30	;		  ;172-77 DPMP,DFULL,U612
   1532  cab2		       ff 77 77 fd*	      DC.B	$FF,$77,$77,$FD,$77,$77	;		  ;178-83 200,300
   1533  cab8		       f5 f7 77 fd*	      DC.B	$F5,$F7,$77,$FD,$F7,$77	;		  ;184-89 500,800
   1534  cabe		       fd d7 dd df*	      DC.B	$FD,$D7,$DD,$DF,$FD,$DD,$DD,$DF	;190-97 2500,4000
   1535  cac6		       fd 7d dd df*	      DC.B	$FD,$7D,$DD,$DF,$FF,$7D,$DD,$DF	;198-05 6000,8000
   1536  cace		       fd dd dd df	      DC.B	$FD,$DD,$DD,$DF	;			  ;206-09 10000
   1537  cad2		       f7 f7 77 77	      DC.B	$F7,$F7,$77,$77	;			  ;210-13 12000
   1538  cad6		       f7 5f 77 77	      DC.B	$F7,$5F,$77,$77	;			  ;214-17 15000
   1539  cada		       ff 77 77 7f	      DC.B	$FF,$77,$77,$7F	;			  ;218-21 1000
   1540  cade		       00 00		      DC.B	$00,$00	;				  ;222-23 ZBLANK
   1541  cae0		       05 50 68 b9*	      DC.B	$05,$50,$68,$B9,$AB,$E9,$AF,$F8	;224-31 RBPOOKA 1,2,3,4
   1542  cae8		       05 50 6e 29*	      DC.B	$05,$50,$6E,$29,$6B,$EA,$2F,$FA	;232-39 LBPOOKA 1,2,3,4
   1543  caf0		       01 70 f3 00*	      DC.B	$01,$70,$F3,$00,$A5,$54,$F5,$55	;240-47 RBFYGAR 1,2,3,4
   1544  caf8		       0d 40 00 cf*	      DC.B	$0D,$40,$00,$CF,$15,$5A,$55,$5F	;248-55 LBFYGAR 1,2,3,4
   1545  cb00
   1546  cb00
   1547  cb00					      ORG	$CB00	;		    ;LINE 5: OFFSET = 7.
   1548  cb00
   1549  cb00							;*;*;*;*;*;*;*;*;*;*;*       STAMPS WITHOUT ZERO PADDING
   1550  cb00
   1551  cb00		       a5 dd a5 dd*	      DC.B	$A5,$DD,$A5,$DD,$A5,$DD	;		  ;0-5	  DDRIGHT 1,2,3
   1552  cb06		       77 5a 77 5a*	      DC.B	$77,$5A,$77,$5A,$77,$5A	;		  ;6-11   DDLEFT 1,2,3
   1553  cb0c		       af 00 00 fa	      DC.B	$AF,$00,$00,$FA	;			  ;96-99  R,L FLAMEFYGAR
   1554  cb10		       aa aa aa aa	      DC.B	$AA,$AA,$AA,$AA	;			  ;100-03 R,L HARPOON
   1555  cb14		       14 1a		      DC.B	$14,$1A	;				  ;20-21  R,L 4PIX FLAME
   1556  cb16		       14 40 05 11*	      DC.B	$14,$40,$05,$11,$15,$54	;		  ;22-27  8,16PIX RFLAME
   1557  cb1c		       14 84 55 59*	      DC.B	$14,$84,$55,$59,$56,$54	;		  ;28-33  24PIX RFLAME
   1558  cb22		       55 54 54 15*	      DC.B	$55,$54,$54,$15,$6A,$F5	;		  ;34-39  8,16PIX LFLAME
   1559  cb28		       19 40 56 66*	      DC.B	$19,$40,$56,$66,$6B,$E5	;		  ;40-45  24PIX LFLAME
   1560  cb2e		       10 00 c3 00*	      DC.B	$10,$00,$C3,$00,$C3,$00,$C3,$00	;46-53  LPUMP24,R24->4
   1561  cb36		       00		      DC.B	$00	;				      ;54     (WIDTH OVERLAP)
   1562  cb37		       10 00 c3 00*	      DC.B	$10,$00,$C3,$00,$C3,$10,$00,$C3,$00	;55-63  LPUMP20,16
   1563  cb40		       10 00 c3 10*	      DC.B	$10,$00,$C3,$10,$00,$10	;		  ;64-69  LPUMP12,8,4,OVR
   1564  cb46
   1565  cb46		       fd dd dd df*	      DC.B	$FD,$DD,$DD,$DF,$FD,$DD,$DD,$DF	;70-77  2000,3000
   1566  cb4e		       fd fd dd df*	      DC.B	$FD,$FD,$DD,$DF,$FF,$5D,$DD,$DF	;78-85  5000,7000
   1567  cb56		       bd 5d		      DC.B	$BD,$5D	;				  ;86-87  TOTRK
   1568  cb58		       50 14		      DC.B	$50,$14	;				  ;88-89  LETRO
   1569  cb5a		       50 00 50 00*	      DC.B	$50,$00,$50,$00,$50,$14,$50,$14	;90-97  L,E,V,P
   1570  cb62
   1571  cb62							;*;*;*;*;*;*;*;*;*;*;*       ZERO PADDED STAMPS
   1572  cb62
   1573  cb62		       fd 77 77 f7*	      DC.B	$FD,$77,$77,$F7,$F7,$77	;		  ;98-103 400,600
   1574  cb68		       3c 3c		      DC.B	$3C,$3C	;				  ;104-05 UFULL,12 (PUMP)
   1575  cb6a		       00 00		      DC.B	$00,$00	;				  ;106-07 HDEATH S
   1576  cb6c		       65 dd 97 74*	      DC.B	$65,$DD,$97,$74,$94,$44	;		  ;108-13 HRDEATH 1,2,3
   1577  cb72		       77 59 1d d6*	      DC.B	$77,$59,$1D,$D6,$11,$16	;		  ;114-19 HLDEATH 1,2,3
   1578  cb78		       2a a8 2a a8	      DC.B	$2A,$A8,$2A,$A8	;			  ;120-23 U,D HARPOON
   1579  cb7c		       ac ca ac ca*	      DC.B	$AC,$CA,$AC,$CA,$A3,$3A,$A3,$3A	;124-31 POOKA:R1,2,L1,2
   1580  cb84		       ff 37 af 00*	      DC.B	$FF,$37,$AF,$00,$DC,$FF,$00,$FA	;144-49 FYGAR:R1,2,L1,2
   1581  cb8c		       0b f8 bf e8*	      DC.B	$0B,$F8,$BF,$E8,$B8,$2E,$A8,$2A	;140-47 GHOST:P1,2,F1,2
   1582  cb94		       a6 a8 a6 a8*	      DC.B	$A6,$A8,$A6,$A8,$A6,$AA	;		  ;148-53 DDUP 1,2,3
   1583  cb9a		       aa 68 aa 98*	      DC.B	$AA,$68,$AA,$98,$AA,$68	;		  ;154-59 DDDOWN 1,2,3
   1584  cba0		       0a a0 07 50*	      DC.B	$0A,$A0,$07,$50,$15,$54	;		  ;160-65 SQUASH1: DD,F,P
   1585  cba6		       5d 5d 5a 5d*	      DC.B	$5D,$5D,$5A,$5D,$00,$00	;		  ;166-71 ROCK:STR,SP,CRM
   1586  cbac		       00 c0 03 c0*	      DC.B	$00,$C0,$03,$C0,$3C,$3C	;		  ;172-77 DPMP,DFULL,U612
   1587  cbb2		       f7 77 77 ff*	      DC.B	$F7,$77,$77,$FF,$77,$77	;		  ;178-83 200,300
   1588  cbb8		       f7 f7 77 f7*	      DC.B	$F7,$F7,$77,$F7,$77,$77	;		  ;184-89 500,800
   1589  cbbe		       dd df dd df*	      DC.B	$DD,$DF,$DD,$DF,$FF,$5D,$DD,$DF	;190-97 2500,4000
   1590  cbc6		       fd fd dd df*	      DC.B	$FD,$FD,$DD,$DF,$FD,$DD,$DD,$DF	;198-05 6000,8000
   1591  cbce		       fd dd dd df	      DC.B	$FD,$DD,$DD,$DF	;			  ;206-09 10000
   1592  cbd2		       f7 77 77 77	      DC.B	$F7,$77,$77,$77	;			  ;210-13 12000
   1593  cbd6		       f7 7f 77 77	      DC.B	$F7,$7F,$77,$77	;			  ;214-17 15000
   1594  cbda		       ff 77 77 7f	      DC.B	$FF,$77,$77,$7F	;			  ;218-21 1000
   1595  cbde		       00 00		      DC.B	$00,$00	;				  ;222-23 ZBLANK
   1596  cbe0		       00 00 5b 8c*	      DC.B	$00,$00,$5B,$8C,$A8,$89,$68,$B9	;224-31 RBPOOKA 1,2,3,4
   1597  cbe8		       00 00 32 d5*	      DC.B	$00,$00,$32,$D5,$62,$2A,$6E,$29	;232-39 LBPOOKA 1,2,3,4
   1598  cbf0		       00 50 3f c0*	      DC.B	$00,$50,$3F,$C0,$BD,$55,$FF,$74	;240-47 RBFYGAR 1,2,3,4
   1599  cbf8		       05 00 03 fc*	      DC.B	$05,$00,$03,$FC,$55,$7E,$1D,$FF	;248-55 LBFYGAR 1,2,3,4
   1600  cc00
   1601  cc00
   1602  cc00					      ORG	$CC00	;		    ;LINE 4: OFFSET = 8.
   1603  cc00
   1604  cc00							;*;*;*;*;*;*;*;*;*;*;*       STAMPS WITHOUT ZERO PADDING
   1605  cc00
   1606  cc00		       aa aa aa aa*	      DC.B	$AA,$AA,$AA,$AA,$AA,$AA	;		  ;0-5	  DDRIGHT 1,2,3
   1607  cc06		       aa aa aa aa*	      DC.B	$AA,$AA,$AA,$AA,$AA,$AA	;		  ;6-11   DDLEFT 1,2,3
   1608  cc0c		       f7 cc 33 df	      DC.B	$F7,$CC,$33,$DF	;			  ;96-99  R,L FLAMEFYGAR
   1609  cc10		       aa aa aa aa	      DC.B	$AA,$AA,$AA,$AA	;			  ;100-03 R,L HARPOON
   1610  cc14		       00 05		      DC.B	$00,$05	;				  ;20-21  R,L 4PIX FLAME
   1611  cc16		       00 10 00 14*	      DC.B	$00,$10,$00,$14,$40,$14	;		  ;22-27  8,16PIX RFLAME
   1612  cc1c		       00 61 01 55*	      DC.B	$00,$61,$01,$55,$54,$55	;		  ;28-33  24PIX RFLAME
   1613  cc22		       55 a5 54 16*	      DC.B	$55,$A5,$54,$16,$5A,$E5	;		  ;34-39  8,16PIX LFLAME
   1614  cc28		       15 95 65 55*	      DC.B	$15,$95,$65,$55,$12,$14	;		  ;40-45  24PIX LFLAME
   1615  cc2e		       00 00 3c 00*	      DC.B	$00,$00,$3C,$00,$3C,$00,$3C,$00	;46-53  LPUMP24,R24->4
   1616  cc36		       00		      DC.B	$00	;				      ;54     (WIDTH OVERLAP)
   1617  cc37		       00 00 3c 00*	      DC.B	$00,$00,$3C,$00,$3C,$00,$00,$3C,$00	;55-63  LPUMP20,16
   1618  cc40		       00 00 3c 00*	      DC.B	$00,$00,$3C,$00,$00,$00	;		  ;64-69  LPUMP12,8,4,OVR
   1619  cc46
   1620  cc46		       ff 7f 77 7f*	      DC.B	$FF,$7F,$77,$7F,$FF,$7F,$77,$7F	;70-77  2000,3000
   1621  cc4e		       fd 5f 77 7f*	      DC.B	$FD,$5F,$77,$7F,$FD,$5F,$77,$7F	;78-85  5000,7000
   1622  cc56		       29 7d		      DC.B	$29,$7D	;				  ;86-87  TOTRK
   1623  cc58		       50 14		      DC.B	$50,$14	;				  ;88-89  LETRO
   1624  cc5a		       50 00 50 00*	      DC.B	$50,$00,$50,$00,$50,$14,$50,$14	;90-97  L,E,V,P
   1625  cc62
   1626  cc62							;*;*;*;*;*;*;*;*;*;*;*       ZERO PADDED STAMPS
   1627  cc62
   1628  cc62		       ff 7d df fd*	      DC.B	$FF,$7D,$DF,$FD,$7D,$DF	;		  ;98-103 400,600
   1629  cc68		       0c 0c		      DC.B	$0C,$0C	;				  ;104-05 UFULL,12 (PUMP)
   1630  cc6a		       11 10		      DC.B	$11,$10	;				  ;106-07 HDEATH S
   1631  cc6c		       6a aa aa a8*	      DC.B	$6A,$AA,$AA,$A8,$AA,$A8	;		  ;108-13 HRDEATH 1,2,3
   1632  cc72		       aa a9 2a aa*	      DC.B	$AA,$A9,$2A,$AA,$2A,$AA	;		  ;114-19 HLDEATH 1,2,3
   1633  cc78		       2a 68 2a a8	      DC.B	$2A,$68,$2A,$A8	;			  ;120-23 U,D HARPOON
   1634  cc7c		       ac ca 6f fa*	      DC.B	$AC,$CA,$6F,$FA,$A3,$3A,$AF,$F9	;124-31 POOKA:R1,2,L1,2
   1635  cc84		       f7 cc 57 cc*	      DC.B	$F7,$CC,$57,$CC,$33,$DF,$33,$DF	;132-39 FYGAR:R1,2,L1,2
   1636  cc8c		       02 a0 2a a0*	      DC.B	$02,$A0,$2A,$A0,$B8,$2E,$B8,$2E	;140-47 GHOST:P1,2,F1,2
   1637  cc94		       ae a8 ae aa*	      DC.B	$AE,$A8,$AE,$AA,$AE,$AA	;		  ;148-53 DDUP 1,2,3
   1638  cc9a		       29 6a 2a 5a*	      DC.B	$29,$6A,$2A,$5A,$29,$68	;		  ;154-59 DDDOWN 1,2,3
   1639  cca0		       00 00 00 00*	      DC.B	$00,$00,$00,$00,$00,$00	;		  ;160-65 SQUASH1: DD,F,P
   1640  cca6		       bd 7d ba bd*	      DC.B	$BD,$7D,$BA,$BD,$00,$00	;		  ;166-71 ROCK:STR,SP,CRM
   1641  ccac		       00 c0 03 c0*	      DC.B	$00,$C0,$03,$C0,$0C,$0C	;		  ;172-77 DPMP,DFULL,U612
   1642  ccb2		       fd fd df f5*	      DC.B	$FD,$FD,$DF,$F5,$FD,$DF	;		  ;178-83 200,300
   1643  ccb8		       f5 7d df fd*	      DC.B	$F5,$7D,$DF,$FD,$FD,$DF	;		  ;184-89 500,800
   1644  ccbe		       f7 d5 f7 7f*	      DC.B	$F7,$D5,$F7,$7F,$FF,$DF,$77,$7F	;190-97 2500,4000
   1645  ccc6		       ff 5f 77 7f*	      DC.B	$FF,$5F,$77,$7F,$FD,$DF,$77,$7F	;198-05 6000,8000
   1646  ccce		       fd f7 77 7f	      DC.B	$FD,$F7,$77,$7F	;			  ;206-09 10000
   1647  ccd2		       f7 df dd df	      DC.B	$F7,$DF,$DD,$DF	;			  ;210-13 12000
   1648  ccd6		       f7 57 dd df	      DC.B	$F7,$57,$DD,$DF	;			  ;214-17 15000
   1649  ccda		       ff 7d dd ff	      DC.B	$FF,$7D,$DD,$FF	;			  ;218-21 1000
   1650  ccde		       00 00		      DC.B	$00,$00	;				  ;222-23 ZBLANK
   1651  cce0		       00 00 15 fc*	      DC.B	$00,$00,$15,$FC,$68,$8C,$5B,$8C	;224-31 RBPOOKA 1,2,3,4
   1652  cce8		       00 00 3f 54*	      DC.B	$00,$00,$3F,$54,$32,$29,$32,$E5	;232-39 LBPOOKA 1,2,3,4
   1653  ccf0		       00 00 0f 5c*	      DC.B	$00,$00,$0F,$5C,$F7,$33,$33,$16	;240-47 RBFYGAR 1,2,3,4
   1654  ccf8		       00 00 35 f0*	      DC.B	$00,$00,$35,$F0,$CC,$DF,$94,$CC	;248-55 LBFYGAR 1,2,3,4
   1655  cd00
   1656  cd00
   1657  cd00					      ORG	$CD00	;		    ;LINE 3: OFFSET = 9.
   1658  cd00
   1659  cd00							;*;*;*;*;*;*;*;*;*;*;*       STAMPS WITHOUT ZERO PADDING
   1660  cd00
   1661  cd00		       2a a0 2a a0*	      DC.B	$2A,$A0,$2A,$A0,$2A,$A0	;		  ;0-5	  DDRIGHT 1,2,3
   1662  cd06		       0a a8 0a a8*	      DC.B	$0A,$A8,$0A,$A8,$0A,$A8	;		  ;6-11   DDLEFT 1,2,3
   1663  cd0c		       73 55 55 cd	      DC.B	$73,$55,$55,$CD	;			  ;96-99  R,L FLAMEFYGAR
   1664  cd10		       aa aa aa aa	      DC.B	$AA,$AA,$AA,$AA	;			  ;100-03 R,L HARPOON
   1665  cd14		       00 00		      DC.B	$00,$00	;				  ;20-21  R,L 4PIX FLAME
   1666  cd16		       00 00 00 00*	      DC.B	$00,$00,$00,$00,$00,$41	;		  ;22-27  8,16PIX RFLAME
   1667  cd1c		       00 15 00 05*	      DC.B	$00,$15,$00,$05,$55,$45	;		  ;28-33  24PIX RFLAME
   1668  cd22		       16 65 45 55*	      DC.B	$16,$65,$45,$55,$11,$14	;		  ;34-39  8,16PIX LFLAME
   1669  cd28		       55 15 55 40*	      DC.B	$55,$15,$55,$40,$49,$00	;		  ;40-45  24PIX LFLAME
   1670  cd2e		       00 00 00 00*	      DC.B	$00,$00,$00,$00,$00,$00,$00,$00	;46-53  LPUMP24,R24->4
   1671  cd36		       00		      DC.B	$00	;				      ;54     (WIDTH OVERLAP)
   1672  cd37		       00 00 00 00*	      DC.B	$00,$00,$00,$00,$00,$00,$00,$00,$00	;55-63  LPUMP20,16
   1673  cd40		       00 00 00 00*	      DC.B	$00,$00,$00,$00,$00,$00	;		  ;64-69  LPUMP12,8,4,OVR
   1674  cd46
   1675  cd46		       3f ff ff fc*	      DC.B	$3F,$FF,$FF,$FC,$3F,$FF,$FF,$FC	;70-77  2000,3000
   1676  cd4e		       3f ff ff fc*	      DC.B	$3F,$FF,$FF,$FC,$3F,$FF,$FF,$FC	;78-85  5000,7000
   1677  cd56		       09 56		      DC.B	$09,$56	;				  ;86-87  TOTRK
   1678  cd58		       55 54		      DC.B	$55,$54	;				  ;88-89  LETRO
   1679  cd5a		       50 00 55 54*	      DC.B	$50,$00,$55,$54,$50,$14,$55,$54	;90-97  L,E,V,P
   1680  cd62
   1681  cd62							;*;*;*;*;*;*;*;*;*;*;*       ZERO PADDED STAMPS
   1682  cd62
   1683  cd62		       3f ff fc 3f*	      DC.B	$3F,$FF,$FC,$3F,$FF,$FC	;		  ;98-103 400,600
   1684  cd68		       03 03		      DC.B	$03,$03	;				  ;104-05 UFULL,12 (PUMP)
   1685  cd6a		       41 04		      DC.B	$41,$04	;				  ;106-07 HDEATH S
   1686  cd6c		       5a a5 6a 80*	      DC.B	$5A,$A5,$6A,$80,$2A,$80	;		  ;108-13 HRDEATH 1,2,3
   1687  cd72		       5a a5 02 a9*	      DC.B	$5A,$A5,$02,$A9,$02,$A8	;		  ;114-19 HLDEATH 1,2,3
   1688  cd78		       2a 68 2a a8	      DC.B	$2A,$68,$2A,$A8	;			  ;120-23 U,D HARPOON
   1689  cd7c		       6f fa 5a a9*	      DC.B	$6F,$FA,$5A,$A9,$AF,$F9,$6A,$A5	;124-31 POOKA:R1,2,L1,2
   1690  cd84		       73 55 73 55*	      DC.B	$73,$55,$73,$55,$55,$CD,$55,$CD	;132-39 FYGAR:R1,2,L1,2
   1691  cd8c		       00 00 00 00*	      DC.B	$00,$00,$00,$00,$B8,$2E,$B8,$2E	;140-47 GHOST:P1,2,F1,2
   1692  cd94		       26 aa 26 aa*	      DC.B	$26,$AA,$26,$AA,$26,$A6	;		  ;148-53 DDUP 1,2,3
   1693  cd9a		       29 aa 29 6a*	      DC.B	$29,$AA,$29,$6A,$29,$A4	;		  ;154-59 DDDOWN 1,2,3
   1694  cda0		       00 00 00 00*	      DC.B	$00,$00,$00,$00,$00,$00	;		  ;160-65 SQUASH1: DD,F,P
   1695  cda6		       29 56 20 95*	      DC.B	$29,$56,$20,$95,$00,$00	;		  ;166-71 ROCK:STR,SP,CRM
   1696  cdac		       00 30 0c 30*	      DC.B	$00,$30,$0C,$30,$0C,$0C	;		  ;172-77 DPMP,DFULL,U612
   1697  cdb2		       3f ff fc 3f*	      DC.B	$3F,$FF,$FC,$3F,$FF,$FC	;		  ;178-83 200,300
   1698  cdb8		       3f ff fc 3f*	      DC.B	$3F,$FF,$FC,$3F,$FF,$FC	;		  ;184-89 500,800
   1699  cdbe		       3f ff ff fc*	      DC.B	$3F,$FF,$FF,$FC,$3F,$FF,$FF,$FC	;190-97 2500,4000
   1700  cdc6		       3f ff ff fc*	      DC.B	$3F,$FF,$FF,$FC,$FF,$7F,$FF,$FF	;198-05 6000,8000
   1701  cdce		       3f ff ff fc	      DC.B	$3F,$FF,$FF,$FC	;			  ;206-09 10000
   1702  cdd2		       3f ff ff fc	      DC.B	$3F,$FF,$FF,$FC	;			  ;210-13 12000
   1703  cdd6		       3f ff ff fc	      DC.B	$3F,$FF,$FF,$FC	;			  ;214-17 15000
   1704  cdda		       3f ff ff fc	      DC.B	$3F,$FF,$FF,$FC	;			  ;218-21 1000
   1705  cdde		       00 00		      DC.B	$00,$00	;				  ;222-23 ZBLANK
   1706  cde0		       00 00 05 50*	      DC.B	$00,$00,$05,$50,$1A,$FC,$15,$FC	;224-31 RBPOOKA 1,2,3,4
   1707  cde8		       00 00 05 50*	      DC.B	$00,$00,$05,$50,$3F,$A4,$3F,$54	;232-39 LBPOOKA 1,2,3,4
   1708  cdf0		       00 00 00 54*	      DC.B	$00,$00,$00,$54,$73,$CC,$1F,$CD	;240-47 RBFYGAR 1,2,3,4
   1709  cdf8		       00 00 15 00*	      DC.B	$00,$00,$15,$00,$33,$CD,$73,$F4	;248-55 LBFYGAR 1,2,3,4
   1710  ce00
   1711  ce00
   1712  ce00					      ORG	$CE00	;		    ;LINE 2: OFFSET = 10.
   1713  ce00
   1714  ce00							;*;*;*;*;*;*;*;*;*;*;*       STAMPS WITHOUT ZERO PADDING
   1715  ce00
   1716  ce00		       0a a0 0a a0*	      DC.B	$0A,$A0,$0A,$A0,$0A,$A0	;		  ;0-5	  DDRIGHT 1,2,3
   1717  ce06		       0a a0 0a a0*	      DC.B	$0A,$A0,$0A,$A0,$0A,$A0	;		  ;6-11   DDLEFT 1,2,3
   1718  ce0c		       3f 54 15 fc	      DC.B	$3F,$54,$15,$FC	;			  ;96-99  R,L FLAMEFYGAR
   1719  ce10		       aa a8 2a aa	      DC.B	$AA,$A8,$2A,$AA	;			  ;100-03 R,L HARPOON
   1720  ce14		       00 00		      DC.B	$00,$00	;				  ;20-21  R,L 4PIX FLAME
   1721  ce16		       00 00 00 00*	      DC.B	$00,$00,$00,$00,$00,$00	;		  ;22-27  8,16PIX RFLAME
   1722  ce1c		       00 00 40 00*	      DC.B	$00,$00,$40,$00,$50,$01	;		  ;28-33  24PIX RFLAME
   1723  ce22		       01 14 45 00*	      DC.B	$01,$14,$45,$00,$45,$00	;		  ;34-39  8,16PIX LFLAME
   1724  ce28		       51 55 50 00*	      DC.B	$51,$55,$50,$00,$54,$00	;		  ;40-45  24PIX LFLAME
   1725  ce2e		       00 00 00 00*	      DC.B	$00,$00,$00,$00,$00,$00,$00,$00	;46-53  LPUMP24,R24->4
   1726  ce36		       00		      DC.B	$00	;				      ;54     (WIDTH OVERLAP)
   1727  ce37		       00 00 00 00*	      DC.B	$00,$00,$00,$00,$00,$00,$00,$00,$00	;55-63  LPUMP20,16
   1728  ce40		       00 00 00 00*	      DC.B	$00,$00,$00,$00,$00,$00	;		  ;64-69  LPUMP12,8,4,OVR
   1729  ce46
   1730  ce46		       00 00 00 00*	      DC.B	$00,$00,$00,$00,$00,$00,$00,$00	;70-77  2000,3000
   1731  ce4e		       00 00 00 00*	      DC.B	$00,$00,$00,$00,$00,$00,$00,$00	;78-85  5000,7000
   1732  ce56		       01 74		      DC.B	$01,$74	;				  ;86-87  TOTRK
   1733  ce58		       15 50		      DC.B	$15,$50	;				  ;88-89  LETRO
   1734  ce5a		       50 00 15 54*	      DC.B	$50,$00,$15,$54,$50,$14,$95,$50	;90-97  L,E,V,P
   1735  ce62
   1736  ce62							;*;*;*;*;*;*;*;*;*;*;*       ZERO PADDED STAMPS
   1737  ce62
   1738  ce62		       00 00 00 00*	      DC.B	$00,$00,$00,$00,$00,$00	;		  ;98-103 400,600
   1739  ce68		       03 03		      DC.B	$03,$03	;				  ;104-05 UFULL,12 (PUMP)
   1740  ce6a		       01 00		      DC.B	$01,$00	;				  ;106-07 HDEATH S
   1741  ce6c		       1a a5 2a 80*	      DC.B	$1A,$A5,$2A,$80,$2A,$80	;		  ;108-13 HRDEATH 1,2,3
   1742  ce72		       5a a4 02 a8*	      DC.B	$5A,$A4,$02,$A8,$02,$A8	;		  ;114-19 HLDEATH 1,2,3
   1743  ce78		       29 58 2a 68	      DC.B	$29,$58,$2A,$68	;			  ;120-23 U,D HARPOON
   1744  ce7c		       5a a9 15 54*	      DC.B	$5A,$A9,$15,$54,$6A,$A5,$15,$54	;124-31 POOKA:R1,2,L1,2
   1745  ce84		       3f 54 3f 54*	      DC.B	$3F,$54,$3F,$54,$15,$FC,$15,$FC	;132-39 FYGAR:R1,2,L1,2
   1746  ce8c		       00 00 00 00*	      DC.B	$00,$00,$00,$00,$A8,$2A,$B8,$2E	;140-47 GHOST:P1,2,F1,2
   1747  ce94		       24 aa 25 aa*	      DC.B	$24,$AA,$25,$AA,$24,$A4	;		  ;148-53 DDUP 1,2,3
   1748  ce9a		       05 90 05 90*	      DC.B	$05,$90,$05,$90,$05,$90	;		  ;154-59 DDDOWN 1,2,3
   1749  cea0		       00 00 00 00*	      DC.B	$00,$00,$00,$00,$00,$00	;		  ;160-65 SQUASH1: DD,F,P
   1750  cea6		       09 74 00 a5*	      DC.B	$09,$74,$00,$A5,$00,$00	;		  ;166-71 ROCK:STR,SP,CRM
   1751  ceac		       00 3c 3c 3c*	      DC.B	$00,$3C,$3C,$3C,$15,$15	;		  ;172-77 DPMP,DFULL,U612
   1752  ceb2		       00 00 00 00*	      DC.B	$00,$00,$00,$00,$00,$00	;		  ;178-83 200,300
   1753  ceb8		       00 00 00 00*	      DC.B	$00,$00,$00,$00,$00,$00	;		  ;184-89 500,800
   1754  cebe		       00 00 00 00*	      DC.B	$00,$00,$00,$00,$00,$00,$00,$00	;190-97 2500,4000
   1755  cec6		       00 00 00 00*	      DC.B	$00,$00,$00,$00,$3F,$FF,$FF,$FC	;198-05 6000,8000
   1756  cece		       00 00 00 00	      DC.B	$00,$00,$00,$00	;			  ;206-09 10000
   1757  ced2		       00 00 00 00	      DC.B	$00,$00,$00,$00	;			  ;210-13 12000
   1758  ced6		       00 00 00 00	      DC.B	$00,$00,$00,$00	;			  ;214-17 15000
   1759  ceda		       00 00 00 00	      DC.B	$00,$00,$00,$00	;			  ;218-21 1000
   1760  cede		       00 00		      DC.B	$00,$00	;				  ;222-23 ZBLANK
   1761  cee0		       00 00 00 00*	      DC.B	$00,$00,$00,$00,$05,$50,$05,$50	;224-31 RBPOOKA 1,2,3,4
   1762  cee8		       00 00 00 00*	      DC.B	$00,$00,$00,$00,$05,$50,$05,$50	;232-39 LBPOOKA 1,2,3,4
   1763  cef0		       00 00 00 00*	      DC.B	$00,$00,$00,$00,$3F,$54,$0F,$51	;240-47 RBFYGAR 1,2,3,4
   1764  cef8		       00 00 00 00*	      DC.B	$00,$00,$00,$00,$15,$FC,$45,$F0	;248-55 LBFYGAR 1,2,3,4
   1765  cf00
   1766  cf00
   1767  cf00					      ORG	$CF00	;		    ;TOP SCAN LINE: OFFSET = 11.
   1768  cf00
   1769  cf00							;*;*;*;*;*;*;*;*;*;*;*       STAMPS WITHOUT ZERO PADDING
   1770  cf00
   1771  cf00		       00 00 00 00*	      DC.B	$00,$00,$00,$00,$00,$00	;		  ;0-5	  DDRIGHT 1,2,3
   1772  cf06		       00 00 00 00*	      DC.B	$00,$00,$00,$00,$00,$00	;		  ;6-11   DDLEFT 1,2,3
   1773  cf0c		       07 50 05 d0	      DC.B	$07,$50,$05,$D0	;			  ;96-99  R,L FLAMEFYGAR
   1774  cf10		       00 00 00 00	      DC.B	$00,$00,$00,$00	;			  ;100-03 R,L HARPOON
   1775  cf14		       00 00		      DC.B	$00,$00	;				  ;20-21  R,L 4PIX FLAME
   1776  cf16		       00 00 00 00*	      DC.B	$00,$00,$00,$00,$00,$00	;		  ;22-27  8,16PIX RFLAME
   1777  cf1c		       00 00 00 00*	      DC.B	$00,$00,$00,$00,$00,$00	;		  ;28-33  24PIX RFLAME
   1778  cf22		       04 00 10 40*	      DC.B	$04,$00,$10,$40,$00,$00	;		  ;34-39  8,16PIX LFLAME
   1779  cf28		       04 05 00 01*	      DC.B	$04,$05,$00,$01,$00,$00	;		  ;40-45  24PIX LFLAME
   1780  cf2e		       00 00 00 00*	      DC.B	$00,$00,$00,$00,$00,$00,$00,$00	;46-53  LPUMP24,R24->4
   1781  cf36		       00		      DC.B	$00	;				      ;54     (WIDTH OVERLAP)
   1782  cf37		       00 00 00 00*	      DC.B	$00,$00,$00,$00,$00,$00,$00,$00,$00	;55-63  LPUMP20,16
   1783  cf40		       00 00 00 00*	      DC.B	$00,$00,$00,$00,$00,$00	;		  ;64-69  LPUMP12,8,4,OVR
   1784  cf46
   1785  cf46		       00 00 00 00*	      DC.B	$00,$00,$00,$00,$00,$00,$00,$00	;70-77  2000,3000
   1786  cf4e		       00 00 00 00*	      DC.B	$00,$00,$00,$00,$00,$00,$00,$00	;78-85  5000,7000
   1787  cf56		       00 f4		      DC.B	$00,$F4	;				  ;86-87  TOTRK
   1788  cf58		       00 00		      DC.B	$00,$00	;				  ;88-89  LETRO
   1789  cf5a		       00 00 00 00*	      DC.B	$00,$00,$00,$00,$00,$00,$00,$00	;90-97  L,E,V,P
   1790  cf62
   1791  cf62							;*;*;*;*;*;*;*;*;*;*;*       ZERO PADDED STAMPS
   1792  cf62
   1793  cf62		       00 00 00 00*	      DC.B	$00,$00,$00,$00,$00,$00	;		  ;98-103 400,600
   1794  cf68		       03 03		      DC.B	$03,$03	;				  ;104-05 UFULL,12 (PUMP)
   1795  cf6a		       00 00		      DC.B	$00,$00	;				  ;106-07 HDEATH S
   1796  cf6c		       00 00 00 00*	      DC.B	$00,$00,$00,$00,$00,$00	;		  ;108-13 HRDEATH 1,2,3
   1797  cf72		       00 00 00 00*	      DC.B	$00,$00,$00,$00,$00,$00	;		  ;114-19 HLDEATH 1,2,3
   1798  cf78		       0a 60 2a 68	      DC.B	$0A,$60,$2A,$68	;			  ;120-23 U,D HARPOON
   1799  cf7c		       15 54 00 00*	      DC.B	$15,$54,$00,$00,$15,$54,$00,$00	;124-31 POOKA:R1,2,L1,2
   1800  cf84		       07 50 07 50*	      DC.B	$07,$50,$07,$50,$05,$D0,$05,$D0	;132-39 FYGAR:R1,2,L1,2
   1801  cf8c		       00 00 00 00*	      DC.B	$00,$00,$00,$00,$A0,$0A,$68,$29	;140-47 GHOST:P1,2,F1,2
   1802  cf94		       24 a2 25 a2*	      DC.B	$24,$A2,$25,$A2,$24,$A0	;		  ;148-53 DDUP 1,2,3
   1803  cf9a		       00 00 00 00*	      DC.B	$00,$00,$00,$00,$00,$00	;		  ;154-59 DDDOWN 1,2,3
   1804  cfa0		       00 00 00 00*	      DC.B	$00,$00,$00,$00,$00,$00	;		  ;160-65 SQUASH1: DD,F,P
   1805  cfa6		       02 f4 00 24*	      DC.B	$02,$F4,$00,$24,$00,$00	;		  ;166-71 ROCK:STR,SP,CRM
   1806  cfac		       00 0c 30 0c*	      DC.B	$00,$0C,$30,$0C,$04,$04	;		  ;172-77 DPMP,DFULL,U612
   1807  cfb2		       00 00 00 00*	      DC.B	$00,$00,$00,$00,$00,$00	;		  ;178-83 200,300
   1808  cfb8		       00 00 00 00*	      DC.B	$00,$00,$00,$00,$00,$00	;		  ;184-89 500,800
   1809  cfbe		       00 00 00 00*	      DC.B	$00,$00,$00,$00,$00,$00,$00,$00	;190-97 2500,4000
   1810  cfc6		       00 00 00 00*	      DC.B	$00,$00,$00,$00,$00,$00,$00,$00	;198-05 6000,8000
   1811  cfce		       00 00 00 00	      DC.B	$00,$00,$00,$00	;			  ;206-09 10000
   1812  cfd2		       00 00 00 00	      DC.B	$00,$00,$00,$00	;			  ;210-13 12000
   1813  cfd6		       00 00 00 00	      DC.B	$00,$00,$00,$00	;			  ;214-17 15000
   1814  cfda		       00 00 00 00	      DC.B	$00,$00,$00,$00	;			  ;218-21 1000
   1815  cfde		       00 00		      DC.B	$00,$00	;				  ;222-23 ZBLANK
   1816  cfe0		       00 00 00 00*	      DC.B	$00,$00,$00,$00,$00,$00,$00,$00	;224-31 RBPOOKA 1,2,3,4
   1817  cfe8		       00 00 00 00*	      DC.B	$00,$00,$00,$00,$00,$00,$00,$00	;232-39 LBPOOKA 1,2,3,4
   1818  cff0		       00 00 00 00*	      DC.B	$00,$00,$00,$00,$07,$50,$00,$54	;240-47 RBFYGAR 1,2,3,4
   1819  cff8		       00 00 00 00*	      DC.B	$00,$00,$00,$00,$05,$D0,$15,$00	;248-55 LBFYGAR 1,2,3,4
   1820  d000				   ENDCHARS
   1821  d000					      ORG	$D000
   1822  d000							;*;*;*;*;*;*;*;*;*;*;*;*;*;*;*;*;*;*;*;*;*;*;*;*;*;*;*;*;*;*;*;*;*;*;*;*;*;*;*;*;*;*;*;*;*;*;*;*;*;*;*;*;*;*;*;*;*;*;*;*;*;*;*;*;*;*;*;*;*;*;*;*;*;*;*;*;*;*;*
   1823  d000
   1824  d000							;*;*;*;*;*;*;*;*;*;*;*;		    3600 DIG DUG		       ;*;*;*;*;*;*;*;*;*;*;*;*;*
   1825  d000
   1826  d000							;*;*;*;*;*;*;*;*;*;*;*;*;*;*;*;*;*;*;*;*;*;*;*;*;*;*;*;*;*;*;*;*;*;*;*;*;*;*;*;*;*;*;*;*;*;*;*;*;*;*;*;*;*;*;*;*;*;*;*;*;*;*;*;*;*;*;*;*;*;*;*;*;*;*;*;*;*;*;*
   1827  d000							;*;*;*;*;*;*;*;*;*;*;*;*;*;*;*;*;*;*;*;*;*;*;*;*;*;*;*;*;*;*;*;*;*;*;*;*;*;*;*;*;*;*;*;*;*;*;*;*;*;*;*;*;*;*;*;*;*;*;*;*;*;*;*;*;*;*;*;*;*;*;*;*;*;*;*;*;*;*;*
   1828  d000				   MAIN
   1829  d000		       78		      SEI
   1830  d001		       d8		      CLD
   1831  d002		       a9 17		      LDA	#$17	;		     ;LOCK 3600 MODE.
   1832  d004		       85 01		      STA	$1
   1833  d006		       a2 ff		      LDX	#STACK
   1834  d008		       9a		      TXS
   1835  d009		       a9 7f		      LDA	#$7F
   1836  d00b		       85 3c		      STA	CTRL
   1837  d00d		       a9 00		      LDA	#0	;		       ;UNFREEZE JOYSTICKS.
   1838  d00f		       85 01		      STA	$1
   1839  d011
   1840  d011		       20 57 d0 	      JSR	INIT	;		     ;INIT DISPLAY LIST, VARIABLES, ETC.
   1841  d014
   1842  d014		       20 f7 e6 	      JSR	WAITVBL	;		  ;WE WANT TO SYNC OURSELVES WITH MARIA:
   1843  d017		       a9 50		      LDA	#$50	;		     ;	WAIT FOR VBLANK.
   1844  d019		       85 3c		      STA	CTRL	;		     ;ENABLE DMA.
   1845  d01b
   1846  d01b		       20 2e fc    PLAYTITL   JSR	TITLEPAG	;		 ;START OFF IN TITLE PAGE.
   1847  d01e
   1848  d01e
   1849  d01e				   PLAYGAME
   1850  d01e		       a5 a1		      LDA	SYNCFRAM
   1851  d020		       10 fc		      BPL	PLAYGAME
   1852  d022
   1853  d022				   DOCODE
   1854  d022		       a5 86		      LDA	FRMCNT
   1855  d024		       85 aa		      STA	AVAROBIN
   1856  d026							;*	    LDY     DOOMPTR+1
   1857  d026							;*	    CPY     #$A0
   1858  d026							;*	    BEQ     DOOMOVER
   1859  d026							;*	    LDY     #0
   1860  d026							;*	    STA     (DOOMPTR),Y
   1861  d026							;*	    INC     DOOMPTR
   1862  d026							;*	    BNE     DOCODE2
   1863  d026							;*	    INC     DOOMPTR+1
   1864  d026							;*	    BNE     DOCODE2
   1865  d026							;*DOOMOVER  NOP
   1866  d026		       ee 00 23    DOCODE2    INC	RACKTIME
   1867  d029		       20 fe db 	      JSR	CHKDEATH	;		 ;CHKDEATH SHOULD PRECEDE CHKSTATE
   1868  d02c		       20 6d de 	      JSR	CHKSTATE
   1869  d02f		       20 25 df 	      JSR	CHKRACK
   1870  d032
   1871  d032		       a5 84		      LDA	DETHWISH
   1872  d034		       d0 0f		      BNE	DOFALL
   1873  d036
   1874  d036		       20 53 d7 	      JSR	DDMOVE	;		   ;DDMOVE SHOULD PRECEDE COLLISON
   1875  d039							;	   ;				   ; DDMOVE SHOULD PRECEDE ALL GAMEPLAY
   1876  d039							;				 ;DDMOVE SHOULD PRECEDE PUMPER
   1877  d039		       20 68 da 	      JSR	EATVEG	;		   ;EATVEG SHOULD PRECEDE FRUITER
   1878  d03c		       20 00 ef 	      JSR	MONSTERS	;		 ;INCLUDES PUMPER,FRUITER,FLAMER,FLAMCOL
   1879  d03f							;				 ;PUMPER SHOULD PRECEDE COLLISONS+FALL
   1880  d03f		       20 1c f7 	      JSR	COLLISON
   1881  d042
   1882  d042							;*	    LDA     DETHWISH;		    ; PROBABLY NOT NECESSARY ANYMORE
   1883  d042							;*	    BNE     DOFALL
   1884  d042
   1885  d042		       20 33 fa 	      JSR	BLOWUP
   1886  d045		       20 ef f4    DOFALL     JSR	FALL
   1887  d048
   1888  d048		       20 58 fb 	      JSR	GENDPL	;		   ;GENERATE NEW DISPLAY LIST.
   1889  d04b
   1890  d04b		       a5 86		      LDA	FRMCNT	;		   ;IF WE TOOK LONGER THAN ONE FRAME, GO
   1891  d04d		       c5 aa		      CMP	AVAROBIN	;		 ;  BACK TO PLAYGAME TO EXECUTE AGAIN IN
   1892  d04f							;*	    BEQ     WAIT1FRM
   1893  d04f		       d0 cd	   DOCODE4    BNE	PLAYGAME	;		 ;  CASE THE FRAME WE SKIPPED SHOULD
   1894  d051							;				 ;  HAVE BEEN EXECUTED.
   1895  d051
   1896  d051		       c5 86	   WAIT1FRM   CMP	FRMCNT	;		   ;WE TOOK LESS THAN OR EQUAL TO ONE
   1897  d053		       f0 fc		      BEQ	WAIT1FRM	;		 ;  FRAME TO EXECUTE DOCODE.  WAIT FOR
   1898  d055		       d0 c7		      BNE	PLAYGAME	;		 ;  NEXT FRAME BEFORE CONTINUING.
   1899  d057
   1900  d057
   1901  d057							;*	    AND     #$07;		    ;DO STUFF 5 OUT OF 8 FRAMES
   1902  d057							;*	    BEQ     DOCODE
   1903  d057							;*	    CMP     #1
   1904  d057							;*	    BEQ     DOCODE
   1905  d057							;*	    CMP     #3
   1906  d057							;*	    BEQ     DOCODE
   1907  d057							;*	    CMP     #4
   1908  d057							;*	    BEQ     DOCODE
   1909  d057							;*	    CMP     #6
   1910  d057							;*	    BNE     PLAYGAME
   1911  d057
   1912  d057							;*	    LDA     AVAROBIN
   1913  d057							;*WAITARC   CMP     FRMCNT
   1914  d057							;*	    BEQ     WAITARC
   1915  d057							;*	    BNE     PLAYGAME
   1916  d057							;*;*;*;*;*;*;*;*;*;*;*;*;*;*;*;*;*;*;*;*;*;*;*;*;*;*;*;*;*;*;*;*;*;*;*;*;*;*;*;*;*;*;*;*;*;*;*;*;*;*;*;*;*;*;*;*;*;*;*;*;*;*;*;*;*;*;*;*;*;*;*;*;*;*;*;*;*;*;*;*
   1917  d057							;*;*;*;*;*;*;*;*;*;*;*;							   ;*;*;*;*;*;*;*;*;*;*
   1918  d057							;*;*;*;*;*;*;*;*;*;*;*       INIT:  CALLED UPON POWER-UP, THIS INITIALIZES	  ;*;*;*;*;*;*;*;*;*;*
   1919  d057							;*;*;*;*;*;*;*;*;*;*;*;	      THE DISPLAY LISTS, SKY IN DIRTMAP, AND	   ;*;*;*;*;*;*;*;*;*;*
   1920  d057							;*;*;*;*;*;*;*;*;*;*;*;	      CALLS INITGAME TO INITIALIZE ATTRACT MODE.   ;*;*;*;*;*;*;*;*;*;*
   1921  d057							;*;*;*;*;*;*;*;*;*;*;*;							   ;*;*;*;*;*;*;*;*;*;*
   1922  d057							;*;*;*;*;*;*;*;*;*;*;*;*;*;*;*;*;*;*;*;*;*;*;*;*;*;*;*;*;*;*;*;*;*;*;*;*;*;*;*;*;*;*;*;*;*;*;*;*;*;*;*;*;*;*;*;*;*;*;*;*;*;*;*;*;*;*;*;*;*;*;*;*;*;*;*;*;*;*;*;*
   1923  d057							;*IGAMERAK
   1924  d057				   INIT
   1925  d057		       a9 00		      LDA	#0
   1926  d059		       85 01		      STA	VBLANK
   1927  d05b		       8d 84 02 	      STA	INTIM
   1928  d05e		       8d c0 1f 	      STA	HSCOREX
   1929  d061		       85 aa		      STA	AVAROBIN
   1930  d063							;*	    STA     ALIEN
   1931  d063
   1932  d063		       a2 e0		      LDX	#CSET1
   1933  d065		       86 34		      STX	CHARBASE
   1934  d067		       a2 b5		      LDX	#$B5	;		     ;WILL NEED DIFF VALUE FOR PAL/SECAM
   1935  d069		       86 a1		      STX	SYNCFRAM	;		 ;WILL NEED DIFF VALUE FOR PAL/SECAM
   1936  d06b		       a2 4c		      LDX	#$4C	;		     ;SET UP JUMP INSTRUCTION FOR DLI"S.
   1937  d06d		       8e bd 1f 	      STX	DLIJMP
   1938  d070		       a2 57		      LDX	#<DLISETUP
   1939  d072		       8e be 1f 	      STX	DLIVECT
   1940  d075		       a2 ee		      LDX	#>DLISETUP
   1941  d077		       8e bf 1f 	      STX	DLIVECT+1
   1942  d07a
   1943  d07a		       85 38		      STA	$38	;		      ; A CONTAINS 0
   1944  d07c		       8d e8 23 	      STA	DUMMYDPL+1
   1945  d07f
   1946  d07f							;*	    STA     CURSONG;		    ;THESE 11 REGISTERS ARE ZERO PAGE.
   1947  d07f							;*	    STA     SNGTEMP1;		    ;THEY MUST BE KEPT ADJACENT TO BE
   1948  d07f							;*	    STA     LASTMOVE;		    ;SERVED BY THE FOLLOWING LOOP.
   1949  d07f							;*	    STA     DLSTPTR
   1950  d07f							;*	    STA     NUMPLAYR
   1951  d07f							;*	    STA     DEATH
   1952  d07f							;*	    STA     DETHWISH
   1953  d07f							;*	    STA     ENTRY
   1954  d07f							;*	    STA     FRMCNT
   1955  d07f							;*	    STA     PLAYNUM
   1956  d07f							;*	    STA     BONZO
   1957  d07f
   1958  d07f		       a2 0a		      LDX	#10
   1959  d081		       95 7e	   ZIVARS     STA	CURSONG,X	;	       ;SEE DIGDEF FOR WHICH VARS ARE INIT"ED
   1960  d083		       ca		      DEX
   1961  d084		       10 fb		      BPL	ZIVARS
   1962  d086
   1963  d086		       a2 12		      LDX	#TOTLSTMP
   1964  d088		       95 40	   ZEROSTMY   STA	STMPYPOS,X	;	       ;NO STAMPS ON SCREEN INITIALLY.
   1965  d08a		       9d c0 24 	      STA	STMPRIOR,X
   1966  d08d		       ca		      DEX
   1967  d08e		       10 f8		      BPL	ZEROSTMY
   1968  d090
   1969  d090		       a9 01		      LDA	#1
   1970  d092		       85 a8		      STA	NONOISE
   1971  d094		       a2 03		      LDX	#3
   1972  d096		       9d cf 24    ZPRIOR1    STA	PUMPRIOR,X
   1973  d099		       9d c9 24 	      STA	RCKPRIOR,X
   1974  d09c		       ca		      DEX
   1975  d09d		       10 f7		      BPL	ZPRIOR1
   1976  d09f		       8d cd 24 	      STA	RCKPRIOR+4
   1977  d0a2
   1978  d0a2		       a0 8f		      LDY	#143	;		     ;SET UP STMPPALW ARRAY.
   1979  d0a4		       a2 28		      LDX	#40
   1980  d0a6		       bd cc ea    EXPANDA    LDA	NUMBYTES,X
   1981  d0a9		       85 cc		      STA	TEMP
   1982  d0ab		       bd 08 c0 	      LDA	PALWBYTE,X
   1983  d0ae		       99 00 24    EXPANDB    STA	STMPPALW,Y
   1984  d0b1		       88		      DEY
   1985  d0b2		       c6 cc		      DEC	TEMP
   1986  d0b4		       10 f8		      BPL	EXPANDB
   1987  d0b6		       ca		      DEX
   1988  d0b7		       10 ed		      BPL	EXPANDA
   1989  d0b9
   1990  d0b9		       a2 2f		      LDX	#47	;		      ;THIS LOOP LEAVES A=0,Y=FF,X=FF
   1991  d0bb		       a0 0f		      LDY	#15	;		      ;SET UP DIV3TAB IN RAM.
   1992  d0bd		       a9 02	   ZEXPAND0   LDA	#2
   1993  d0bf		       85 cc		      STA	TEMP
   1994  d0c1		       98		      TYA
   1995  d0c2		       9d 90 24    ZEXPAND1   STA	DIV3TAB,X
   1996  d0c5		       ca		      DEX
   1997  d0c6		       c6 cc		      DEC	TEMP
   1998  d0c8		       10 f8		      BPL	ZEXPAND1
   1999  d0ca		       88		      DEY
   2000  d0cb		       10 f0		      BPL	ZEXPAND0
   2001  d0cd
   2002  d0cd		       a8		      TAY		;			      ;ASSUME A CONTAINS 0
   2003  d0ce		       aa		      TAX		;			      ;ASSUME A CONTAINS 0
   2004  d0cf		       bd 79 d5    RACKTUNL   LDA	PTUNNELS,X
   2005  d0d2		       48	   ZEROTUNL   PHA
   2006  d0d3		       99 00 22 	      STA	TUNNELS,Y
   2007  d0d6		       c8		      INY
   2008  d0d7		       e8		      INX
   2009  d0d8		       98		      TYA
   2010  d0d9		       29 07		      AND	#7
   2011  d0db		       f0 06		      BEQ	TRAKDONE
   2012  d0dd		       68		      PLA
   2013  d0de		       d0 ef		      BNE	RACKTUNL
   2014  d0e0		       ca		      DEX
   2015  d0e1		       d0 ef		      BNE	ZEROTUNL
   2016  d0e3		       68	   TRAKDONE   PLA
   2017  d0e4		       c0 c8		      CPY	#200
   2018  d0e6		       90 e7		      BCC	RACKTUNL
   2019  d0e8
   2020  d0e8		       a2 00		      LDX	#0
   2021  d0ea		       a0 11		      LDY	#17
   2022  d0ec		       b9 aa e7    SETDPLS    LDA	DLIBITS,Y
   2023  d0ef		       9d 5d 23 	      STA	DPL0LIST,X
   2024  d0f2		       9d a2 23 	      STA	DPL1LIST,X
   2025  d0f5		       9d 00 25 	      STA	DPL2LIST,X
   2026  d0f8		       e8		      INX
   2027  d0f9		       b9 c1 eb 	      LDA	LISTTBH0+1,Y
   2028  d0fc		       9d 5d 23 	      STA	DPL0LIST,X
   2029  d0ff		       b9 d7 eb 	      LDA	LISTTBH1+1,Y
   2030  d102		       9d a2 23 	      STA	DPL1LIST,X
   2031  d105		       a9 23		      LDA	#>DUMMYDPL
   2032  d107		       9d 00 25 	      STA	DPL2LIST,X
   2033  d10a		       e8		      INX
   2034  d10b		       b9 ab eb 	      LDA	LISTTABL+1,Y
   2035  d10e		       9d 5d 23 	      STA	DPL0LIST,X
   2036  d111		       9d a2 23 	      STA	DPL1LIST,X
   2037  d114		       a9 e7		      LDA	#<DUMMYDPL
   2038  d116		       9d 00 25 	      STA	DPL2LIST,X
   2039  d119		       e8		      INX
   2040  d11a		       e0 45		      CPX	#69
   2041  d11c		       f0 07		      BEQ	ZDPLDONE
   2042  d11e		       88		      DEY
   2043  d11f		       10 cb		      BPL	SETDPLS
   2044  d121		       a0 14		      LDY	#20
   2045  d123		       d0 c7		      BNE	SETDPLS
   2046  d125
   2047  d125		       a2 0e	   ZDPLDONE   LDX	#14	;		      ;INIT CHARACTER MAP FOR SCORE LINE.
   2048  d127		       a9 1e		      LDA	#FULLSKY	;		 ;SKY BEHIND NUMBERS AT TOP OF SCREEN.
   2049  d129		       9d f0 25    ISCOREM    STA	SCOREMAP,X
   2050  d12c		       ca		      DEX
   2051  d12d		       d0 fa		      BNE	ISCOREM
   2052  d12f
   2053  d12f
   2054  d12f		       20 9a d1 	      JSR	IDIRTRAM	;		 ;INITIALIZE DIRT RAM.
   2055  d132		       20 0d d6 	      JSR	ISCOREL
   2056  d135
   2057  d135		       20 f9 e9 	      JSR	SETRACK1
   2058  d138		       aa		      TAX		;			      ;ATTRACT MODE.
   2059  d139		       20 de d1 	      JSR	INITGAME
   2060  d13c
   2061  d13c		       4c ca d1 	      JMP	SCRNON	;		   ;TURN DISPLAY BACK ON.
   2062  d13f							;*;*;*       RTS
   2063  d13f
   2064  d13f
   2065  d13f		       a2 18	   ICOLORS    LDX	#24	;		      ;INIT ORIGINAL PALETTE COLORS.
   2066  d141		       a0 1f		      LDY	#31
   2067  d143		       bd ce e7    IPALS      LDA	IPALETTE,X	;	       ;X INDEXES THROUGH PALETTE COLOR TABLE
   2068  d146		       99 07 23 	      STA	P0C0SHAD,Y
   2069  d149		       ca		      DEX
   2070  d14a		       f0 09		      BEQ	ENDIPAL
   2071  d14c		       88		      DEY
   2072  d14d		       98		      TYA
   2073  d14e		       29 03		      AND	#3
   2074  d150		       d0 f1		      BNE	IPALS
   2075  d152		       88		      DEY
   2076  d153		       10 ee		      BPL	IPALS
   2077  d155		       86 20	   ENDIPAL    STX	P0C0	;		     ;BACKGROUND COLOR 0.
   2078  d157		       8e 07 23 	      STX	P0C0SHAD
   2079  d15a		       60		      RTS
   2080  d15b							;*;*;*;*;*;*;*;*;*;*;*;*;*;*;*;*;*;*;*;*;*;*;*;*;*;*;*;*;*;*;*;*;*;*;*;*;*;*;*;*;*;*
   2081  d15b		       20 6c d1    IDLISTS    JSR	CHARDPL
   2082  d15e		       a5 81		      LDA	DLSTPTR
   2083  d160		       48		      PHA
   2084  d161		       49 40		      EOR	#$40
   2085  d163		       85 81		      STA	DLSTPTR
   2086  d165		       20 6c d1 	      JSR	CHARDPL
   2087  d168		       68		      PLA
   2088  d169		       85 81		      STA	DLSTPTR
   2089  d16b		       60		      RTS
   2090  d16c							;*;*;*;*;*;*;*;*;*;*;*;*;*;*;*;*;*;*;*;*;*;*;*;*;*;*;*;*;*;*;*;*;*;*;*;*;*;*;*;*;*;*
   2091  d16c				   CHARDPL
   2092  d16c		       a2 0f		      LDX	#NUMZONES
   2093  d16e		       20 d6 db    INITBACK   JSR	SETDPLH	;		  ;ADDRESS OF ZONE DISPLAY LIST.
   2094  d171		       a0 00		      LDY	#0
   2095  d173		       bd bf e7 	      LDA	MAPLOW,X	;		 ;LOW ADDRESS OF CHARACTER MAP.
   2096  d176		       91 db		      STA	(DPLOW),Y
   2097  d178		       c8		      INY
   2098  d179		       a9 60		      LDA	#W1ZONE
   2099  d17b		       91 db		      STA	(DPLOW),Y
   2100  d17d		       8d be 1b 	      STA	L0Z0+1
   2101  d180		       c8		      INY
   2102  d181		       a9 26		      LDA	#>DIRTMAP	;	      ;INIT TO CURRENT PLAYER"S DIRT MAP.
   2103  d183		       91 db		      STA	(DPLOW),Y
   2104  d185		       c8		      INY
   2105  d186		       bd 80 24 	      LDA	PALWIDZ,X	;		;PALETTE/WIDTH FOR ZONE.
   2106  d189		       91 db		      STA	(DPLOW),Y
   2107  d18b		       c8		      INY
   2108  d18c		       a9 10		      LDA	#16	;		      ;HORIZONTAL POSITION.
   2109  d18e		       91 db		      STA	(DPLOW),Y
   2110  d190		       c8		      INY
   2111  d191		       c8		      INY
   2112  d192		       a9 00		      LDA	#0
   2113  d194		       91 db		      STA	(DPLOW),Y	;		;ZERO OUT WIDTH OF NEXT HEADER IN ZONE.
   2114  d196		       ca		      DEX
   2115  d197		       d0 d5		      BNE	INITBACK
   2116  d199		       60		      RTS
   2117  d19a							;*;*;*;*;*;*;*;*;*;*;*;*;*;*;*;*;*;*;*;*;*;*;*;*;*;*;*;*;*;*;*;*;*;*;*;*;*;*;*;*;*;*
   2118  d19a				   IDIRTRAM
   2119  d19a		       a9 00		      LDA	#BLANK1
   2120  d19c		       a2 f0		      LDX	#$F0
   2121  d19e		       9d 00 26    FILLBLNK   STA	DIRTMAP,X	;		;ZERO OUT END OF DIRTMAP FOR SELECT,
   2122  d1a1		       9d 00 27 	      STA	BACKDIRT,X	;	       ;  TITLE PAGE USE.
   2123  d1a4		       e8		      INX
   2124  d1a5		       d0 f7		      BNE	FILLBLNK
   2125  d1a7
   2126  d1a7		       a9 8c		      LDA	#LSKYHALF
   2127  d1a9		       8d f0 25 	      STA	SCOREMAP	;		 ;HALF SKY.
   2128  d1ac		       8d 00 26 	      STA	DIRTMAP
   2129  d1af		       8d 00 27 	      STA	BACKDIRT
   2130  d1b2		       a9 88		      LDA	#RSKYHALF
   2131  d1b4		       8d ff 25 	      STA	SCOREMAP+15
   2132  d1b7		       8d 0f 26 	      STA	DIRTMAP+15
   2133  d1ba		       8d 0f 27 	      STA	BACKDIRT+15
   2134  d1bd		       60		      RTS
   2135  d1be							;*;*;*;*;*;*;*;*;*;*;*;*;*;*;*;*;*;*;*;*;*;*;*;*;*;*;*;*;*;*;*;*;*;*;*;*;*;*;*;*;*;*
   2136  d1be				   SCRNOFF
   2137  d1be		       20 f7 e6 	      JSR	WAITVBL
   2138  d1c1		       a9 00		      LDA	#<DPL2LIST	;	     ;TURN DISPLAY OFF BY SETTING DPPL,DPPH
   2139  d1c3		       85 30		      STA	DPPL	;		     ;	TO POINT TO BLANK DISPLAY LIST.
   2140  d1c5		       a9 25		      LDA	#>DPL2LIST
   2141  d1c7		       85 2c		      STA	DPPH
   2142  d1c9		       60		      RTS
   2143  d1ca				   SCRNON
   2144  d1ca		       20 f7 e6 	      JSR	WAITVBL
   2145  d1cd		       a2 00		      LDX	#0	;		       ;TURN DISPLAY ON BY SETTING DPPL,DPPH
   2146  d1cf		       24 81		      BIT	DLSTPTR	;		  ;  TO POINT TO CURRENT DISPLAY LIST.
   2147  d1d1		       50 01		      BVC	ZSCRNON
   2148  d1d3		       e8		      INX
   2149  d1d4		       bd aa ea    ZSCRNON    LDA	LDPPL,X
   2150  d1d7		       85 30		      STA	DPPL
   2151  d1d9		       a9 23		      LDA	#>DPL0LIST
   2152  d1db		       85 2c		      STA	DPPH
   2153  d1dd		       60		      RTS
   2154  d1de
   2155  d1de							;*;*;*;*;*;*;*;*;*;*;*;*;*;*;*;*;*;*;*;*;*;*;*;*;*;*;*;*;*;*;*;*;*;*;*;*;*;*;*;*;*;*;*;*;*;*;*;*;*;*;*;*;*;*;*;*;*;*;*;*;*;*;*;*;*;*;*;*;*;*;*;*;*;*;*;*;*;*;*;*
   2156  d1de							;*;*;*;*;*;*;*;*;*;*;*;							  ;*;*;*;*;*;*;*;*;*;*;*
   2157  d1de							;*;*;*;*;*;*;*;*;*;*;*       INITGAME:  INITIALIZE DIGDUG GAME.;		  ;*;*;*;*;*;*;*;*;*;*;*
   2158  d1de							;*;*;*;*;*;*;*;*;*;*;*;		  INPUT:  X = 0 => REAL GAME.		  ;*;*;*;*;*;*;*;*;*;*;*
   2159  d1de							;*;*;*;*;*;*;*;*;*;*;*;			  X = 1 => ATTRACT GAME.	  ;*;*;*;*;*;*;*;*;*;*;*
   2160  d1de							;*;*;*;*;*;*;*;*;*;*;*;							  ;*;*;*;*;*;*;*;*;*;*;*
   2161  d1de							;*;*;*;*;*;*;*;*;*;*;*;*;*;*;*;*;*;*;*;*;*;*;*;*;*;*;*;*;*;*;*;*;*;*;*;*;*;*;*;*;*;*;*;*;*;*;*;*;*;*;*;*;*;*;*;*;*;*;*;*;*;*;*;*;*;*;*;*;*;*;*;*;*;*;*;*;*;*;*;*
   2162  d1de				   INITGAME
   2163  d1de		       86 a0		      STX	ATTRACT
   2164  d1e0		       8a		      TXA
   2165  d1e1		       49 01		      EOR	#1	;		       ;IF ATTRACT MODE, DON"T GO THROUGH
   2166  d1e3		       85 85		      STA	ENTRY	;		    ;  ENTRY WALK.
   2167  d1e5
   2168  d1e5		       20 5b d1 	      JSR	IDLISTS
   2169  d1e8		       20 3f d1 	      JSR	ICOLORS	;		  ;RETURNS 0 IN X.
   2170  d1eb
   2171  d1eb		       8a		      TXA
   2172  d1ec							;*;*;*       LDA     #0;		      ;START WITH PLAYER 0.
   2173  d1ec		       8d f3 23 	      STA	P2INIT
   2174  d1ef		       85 87		      STA	PLAYNUM
   2175  d1f1		       85 83		      STA	DEATH
   2176  d1f3		       85 84		      STA	DETHWISH
   2177  d1f5		       8d f1 23 	      STA	IGNORE
   2178  d1f8		       a2 12		      LDX	#TOTLSTMP
   2179  d1fa		       95 40	   ZISTAMPS   STA	STMPYPOS,X
   2180  d1fc		       ca		      DEX
   2181  d1fd		       10 fb		      BPL	ZISTAMPS
   2182  d1ff		       a5 a0		      LDA	ATTRACT
   2183  d201		       d0 08		      BNE	ZNOPLAY0
   2184  d203		       a5 82		      LDA	NUMPLAYR
   2185  d205		       f0 04		      BEQ	ZNOPLAY0
   2186  d207		       e8		      INX
   2187  d208		       20 1c de 	      JSR	PLAYREDY
   2188  d20b
   2189  d20b		       20 44 d2    ZNOPLAY0   JSR	INITRACK	;		 ;INITIALIZE APPROPRIATE RACK: THIS
   2190  d20e							;				 ;  INVOLVES FILLING IN DIRT, PUTTING
   2191  d20e							;				 ;  CREATURES IN TUNNELS, AND UPDATING
   2192  d20e							;				 ;  FLOWERS AT TOP OF SCREEN.
   2193  d20e
   2194  d20e
   2195  d20e		       a6 a0		      LDX	ATTRACT	;		  ;ATTRACT MODE?
   2196  d210		       d0 28		      BNE	IATTRACT
   2197  d212		       a2 05		      LDX	#5	;		       ;SET UP NUMBER OF MEN LEFT.
   2198  d214		       86 9e		      STX	NUMMEN	;		   ;PLAYER 0"S MEN.
   2199  d216		       a5 82		      LDA	NUMPLAYR
   2200  d218		       d0 01		      BNE	ISCORE
   2201  d21a		       aa		      TAX
   2202  d21b		       86 9f	   ISCORE     STX	NUMMEN+1	;		 ;PLAYER 1"S MEN.
   2203  d21d		       20 0d d6 	      JSR	ISCOREL	;		  ;RETURNS 0 IN A.
   2204  d220
   2205  d220							;*;*;*       LDA     #0;		      ;SET UP SCORE:  IT TAKES MORE TIME TO
   2206  d220		       a8		      TAY		;			      ;  CALL UPDSCORE, BUT LESS ROM.
   2207  d221		       20 7e df 	      JSR	UPDSCORE
   2208  d224		       a5 82		      LDA	NUMPLAYR
   2209  d226		       f0 0f		      BEQ	ZISETBZ
   2210  d228		       e6 87		      INC	PLAYNUM	;		  ;ALSO SET UP SCORE FOR PLAYER 2.
   2211  d22a		       a9 96		      LDA	#FULL0
   2212  d22c		       8d ee 1b 	      STA	L0Z0+49
   2213  d22f		       a9 00		      LDA	#0
   2214  d231		       a8		      TAY
   2215  d232		       20 7e df 	      JSR	UPDSCORE
   2216  d235		       c6 87		      DEC	PLAYNUM
   2217  d237		       4c 3b dd    ZISETBZ    JMP	UPDMEN	;		   ;UPDMEN IS A SUBR
   2218  d23a
   2219  d23a							;*IGAMEDON  RTS
   2220  d23a
   2221  d23a		       e8	   IATTRACT   INX		;			      ;2 MEN IN ATTRACT MODE.
   2222  d23b		       86 9e		      STX	NUMMEN
   2223  d23d		       a9 00		      LDA	#0
   2224  d23f		       85 a9		      STA	ASTAGE
   2225  d241		       85 9f		      STA	NUMMEN+1	;		 ;NO MEN FOR PLAYER 1.
   2226  d243		       60		      RTS
   2227  d244
   2228  d244
   2229  d244
   2230  d244							;*;*;*;*;*;*;*;*;*;*;*;*;*;*;*;*;*;*;*;*;*;*;*;*;*;*;*;*;*;*;*;*;*;*;*;*;*;*;*;*;*;*;*;*;*;*;*;*;*;*;*;*;*;*;*;*;*;*;*;*;*;*;*;*;*;*;*;*;*;*;*;*;*;*;*;*;*;*;*;*
   2231  d244							;*;*;*;*;*;*;*;*;*;*;*;							  ;*;*;*;*;*;*;*;*;*;*;*
   2232  d244							;*;*;*;*;*;*;*;*;*;*;*       INITRACK:  CALLED WHEN INITIALIZING A GAME, OR	 ;*;*;*;*;*;*;*;*;*;*;*
   2233  d244							;*;*;*;*;*;*;*;*;*;*;*;		  WHEN ALL CREATURES HAVE BEEN KILLED	  ;*;*;*;*;*;*;*;*;*;*;*
   2234  d244							;*;*;*;*;*;*;*;*;*;*;*;		  OR HAVE ESCAPED, AND A NEW RACK IS	  ;*;*;*;*;*;*;*;*;*;*;*
   2235  d244							;*;*;*;*;*;*;*;*;*;*;*;		  NEEDED.				  ;*;*;*;*;*;*;*;*;*;*;*
   2236  d244							;*;*;*;*;*;*;*;*;*;*;*;							  ;*;*;*;*;*;*;*;*;*;*;*
   2237  d244							;*;*;*;*;*;*;*;*;*;*;*;*;*;*;*;*;*;*;*;*;*;*;*;*;*;*;*;*;*;*;*;*;*;*;*;*;*;*;*;*;*;*;*;*;*;*;*;*;*;*;*;*;*;*;*;*;*;*;*;*;*;*;*;*;*;*;*;*;*;*;*;*;*;*;*;*;*;*;*;*
   2238  d244				   INITRACK
   2239  d244		       a2 07		      LDX	#7	;		       ;SET UP MONSTAT SO ALL POSSIBLE
   2240  d246		       a9 00		      LDA	#0	;		       ;  CREATURES ARE INITIALIZED.
   2241  d248		       95 b2	   PUTALLC    STA	MONSTAT,X
   2242  d24a		       95 4b		      STA	FLAMEY-3,X	;	       ;FRUITY,PUMPY,FLAMEY,ROCKYS REDUNDANT
   2243  d24c		       ca		      DEX
   2244  d24d		       10 f9		      BPL	PUTALLC
   2245  d24f							;				 ;DO TUNNELS AND CREATURES.
   2246  d24f		       85 c2		      STA	NOTUNNEL	;		 ;ZERO PAGE
   2247  d251		       85 c8		      STA	FALLCNT	;		  ;ZERO PAGE
   2248  d253							;*	    STA     FRUIT;		    ;ABSOLUTE
   2249  d253		       8d 00 23 	      STA	RACKTIME	;		 ;ABSOLUTE
   2250  d256
   2251  d256		       20 c0 d2 	      JSR	INITDIRT	;		 ;FILL IN DIRT FOR NEW RACK.
   2252  d259		       20 00 d5 	      JSR	INITROCK	;		 ;INITIALIZE ROCKS IN DIRT.
   2253  d25c
   2254  d25c		       a5 85		      LDA	ENTRY
   2255  d25e		       d0 19		      BNE	DOEWALK
   2256  d260		       a8		      TAY
   2257  d261		       20 db e4 	      JSR	DDMIDDLE	;		 ;USES A ONLY
   2258  d264		       a9 14	   WELLOOP    LDA	#20
   2259  d266		       99 17 26 	      STA	$2617,Y	;		  ;DIG OUT VERTICAL TUNNEL.
   2260  d269		       98		      TYA
   2261  d26a		       18		      CLC
   2262  d26b		       69 10		      ADC	#$10
   2263  d26d		       a8		      TAY
   2264  d26e		       c0 60		      CPY	#$60
   2265  d270		       d0 f2		      BNE	WELLOOP
   2266  d272
   2267  d272							;*	    STX     $2617;		    ;DIG OUT VERTICAL TUNNEL.
   2268  d272							;*	    STX     $2627
   2269  d272							;*	    STX     $2637
   2270  d272							;*	    STX     $2647
   2271  d272							;*	    STX     $2657
   2272  d272							;*	    STX     $2667
   2273  d272		       a2 08		      LDX	#8
   2274  d274		       8e 77 26 	      STX	$2677
   2275  d277		       d0 0c		      BNE	DOFLOWR
   2276  d279		       a9 60	   DOEWALK    LDA	#DDSTRTX	;		 ;DIGDUG WILL MAKE ENTRANCE: SET HIM
   2277  d27b		       85 53		      STA	DDXPOS	;		   ;  UP IN TOP RIGHT CORNER OF DIRT.
   2278  d27d		       a9 bf		      LDA	#DDSTRTY
   2279  d27f		       85 40		      STA	DDYPOS
   2280  d281		       a9 06		      LDA	#LDIGDUG1
   2281  d283		       85 66		      STA	DDINDX
   2282  d285
   2283  d285		       a6 87	   DOFLOWR    LDX	PLAYNUM
   2284  d287		       b5 9b		      LDA	RACKNUM,X
   2285  d289		       a0 0e		      LDY	#$E
   2286  d28b		       a2 00		      LDX	#0
   2287  d28d		       c9 0a		      CMP	#10
   2288  d28f		       90 07		      BCC	GOTBIG
   2289  d291							;*	    SEC
   2290  d291		       e8	   GETBIG     INX
   2291  d292		       e9 0a		      SBC	#10
   2292  d294		       c9 0a		      CMP	#10
   2293  d296		       b0 f9		      BCS	GETBIG
   2294  d298		       85 cc	   GOTBIG     STA	TEMP	;		     ;TEMP CONTAINS NUMBER OF SMALL FLOWERS.
   2295  d29a		       8a		      TXA		;			      ;X CONTAINS NUMBER OF BIG FLOWERS.
   2296  d29b		       f0 0b		      BEQ	GETSMALL	;		 ;ANY BIG FLOWERS?
   2297  d29d		       a9 20		      LDA	#BIGFLOWR	;		;STAMP INDEX FOR BIG FLOWER.
   2298  d29f		       99 00 26    PUTBIG     STA	DIRTMAP,Y
   2299  d2a2		       88		      DEY
   2300  d2a3		       f0 1a		      BEQ	IRACKDON	;		 ;SKY IS FULL OF FLOWERS ALREADY.
   2301  d2a5		       ca		      DEX
   2302  d2a6		       d0 f7		      BNE	PUTBIG
   2303  d2a8		       a6 cc	   GETSMALL   LDX	TEMP	;		     ;NUMBER OF SMALL FLOWERS.
   2304  d2aa		       f0 0b		      BEQ	IFILLSKY
   2305  d2ac		       a9 22		      LDA	#SMLFLOWR	;		;STAMP INDEX FOR SMALL FLOWER.
   2306  d2ae		       99 00 26    PUTSMALL   STA	DIRTMAP,Y
   2307  d2b1		       88		      DEY
   2308  d2b2		       f0 0b		      BEQ	IRACKDON
   2309  d2b4		       ca		      DEX
   2310  d2b5		       d0 f7		      BNE	PUTSMALL
   2311  d2b7
   2312  d2b7				   IFILLSKY
   2313  d2b7		       a9 1e		      LDA	#FULLSKY	;		 ;FILL IN REST OF SKY WITH SKY CHAR.
   2314  d2b9		       99 00 26    ZFILLSKY   STA	DIRTMAP,Y
   2315  d2bc		       88		      DEY
   2316  d2bd		       d0 fa		      BNE	ZFILLSKY
   2317  d2bf
   2318  d2bf		       60	   IRACKDON   RTS
   2319  d2c0
   2320  d2c0							;*;*;*;*;*;*;*;*;*;*;*;*;*;*;*;*;*;*;*;*;*;*;*;*;*;*;*;*;*;*;*;*;*;*;*;*;*;*;*;*;*;*;*;*;*;*;*;*;*;*;*;*;*;*;*;*;*;*;*;*;*;*;*;*;*;*;*;*;*;*;*;*;*;*;*;*;*;*;*;*
   2321  d2c0							;*;*;*;*;*;*;*;*;*;*;*;							   ;*;*;*;*;*;*;*;*;*;*
   2322  d2c0							;*;*;*;*;*;*;*;*;*;*;*       INITDIRT:  CALLED AT START OF EACH RACK TO;	   ;*;*;*;*;*;*;*;*;*;*
   2323  d2c0							;*;*;*;*;*;*;*;*;*;*;*;		  INITIALIZE DIRT, TUNNELS, AND 	   ;*;*;*;*;*;*;*;*;*;*
   2324  d2c0							;*;*;*;*;*;*;*;*;*;*;*;		  CREATURES FOR THE RACK.		   ;*;*;*;*;*;*;*;*;*;*
   2325  d2c0							;*;*;*;*;*;*;*;*;*;*;*;*;*;*;*;*;*;*;*;*;*;*;*;*;*;*;*;*;*;*;*;*;*;*;*;*;*;*;*;*;*;*;*;*;*;*;*;*;*;*;*;*;*;*;*;*;*;*;*;*;*;*;*;*;*;*;*;*;*;*;*;*;*;*;*;*;*;*;*;*
   2326  d2c0				   INITDIRT
   2327  d2c0		       a5 c2		      LDA	NOTUNNEL
   2328  d2c2		       d0 56		      BNE	JUSTCRET
   2329  d2c4
   2330  d2c4		       a9 24		      LDA	#FULLDIRT	;		;FULL DIRT CHARACTER INDEX.
   2331  d2c6		       a2 e0		      LDX	#224	;		     ;FIRST, FILL IN ALL THE DIRT.
   2332  d2c8		       9d 0f 26    FILLDRT    STA	DIRTMAP+$F,X
   2333  d2cb		       ca		      DEX
   2334  d2cc		       d0 fa		      BNE	FILLDRT
   2335  d2ce
   2336  d2ce		       a2 76		      LDX	#$76
   2337  d2d0		       20 ef e2 	      JSR	HCARVE
   2338  d2d3
   2339  d2d3		       a2 0d		      LDX	#13	;		      ;FILL LEFT AND RIGHT EDGES OF DIRT WITH
   2340  d2d5		       bc bf e7    BLACKEDG   LDY	MAPLOW,X	;		 ;  BLANKS: THIS CREATES 14 COLUMNS OF
   2341  d2d8		       a9 4c		      LDA	#BLANKL
   2342  d2da		       99 00 26 	      STA	DIRTMAP,Y	;		;  DIRT, 8 PIXELS WIDE EACH.
   2343  d2dd		       8d 10 26 	      STA	DIRTMAP+$10
   2344  d2e0		       a9 4a		      LDA	#BLANKR
   2345  d2e2		       99 ff 25 	      STA	DIRTMAP-1,Y
   2346  d2e5		       ca		      DEX
   2347  d2e6		       d0 ed		      BNE	BLACKEDG
   2348  d2e8		       8d ef 26 	      STA	DIRTMAP+$EF
   2349  d2eb
   2350  d2eb							;*;*;*       LDX     #0;		      ;X IS ALREADY 0.
   2351  d2eb		       8a		      TXA		;			      ;CALCULATE EFFECTIVE RACK NUMBER, GIVEN
   2352  d2ec		       a4 a0		      LDY	ATTRACT	;		  ;  THAT RACKS 12-15 REPEAT.
   2353  d2ee		       d0 27		      BNE	GOTERACK
   2354  d2f0		       a6 87		      LDX	PLAYNUM
   2355  d2f2		       b4 9b		      LDY	RACKNUM,X	;		;ACTUAL RACK NUMBER.
   2356  d2f4		       d0 03		      BNE	RACKN	;		    ;  NUMBER WHEN WE"RE DONE.
   2357  d2f6		       c8		      INY
   2358  d2f7		       94 9b		      STY	RACKNUM,X
   2359  d2f9		       88	   RACKN      DEY
   2360  d2fa		       a5 88		      LDA	BONZO
   2361  d2fc		       f0 0e		      BEQ	NOBONZ
   2362  d2fe		       98		      TYA		;			      ;BONZO MODE: EFFRACK MAX AT 2+15.
   2363  d2ff		       18		      CLC
   2364  d300		       69 0f		      ADC	#15
   2365  d302		       b0 04		      BCS	WRAPBONZ
   2366  d304		       c9 11		      CMP	#MAXEFFR	;		 ;17
   2367  d306		       90 0f		      BCC	GOTERACK
   2368  d308		       a9 11	   WRAPBONZ   LDA	#MAXEFFR
   2369  d30a		       d0 0b		      BNE	GOTERACK
   2370  d30c		       98	   NOBONZ     TYA
   2371  d30d		       c0 0f		      CPY	#15
   2372  d30f		       90 06		      BCC	GOTERACK
   2373  d311		       b5 9b		      LDA	RACKNUM,X
   2374  d313		       29 03		      AND	#3	;		       ;CLOSEST MULTIPLE OF 4.
   2375  d315							;*;*;*       CLC
   2376  d315							;*;*;*       ADC     #11
   2377  d315		       69 0a		      ADC	#10	;		      ;(CARRY SET).
   2378  d317		       9d c4 1f    GOTERACK   STA	EFFRACK,X
   2379  d31a
   2380  d31a		       a4 87	   JUSTCRET   LDY	PLAYNUM
   2381  d31c		       be c4 1f 	      LDX	EFFRACK,Y
   2382  d31f		       e0 11		      CPX	#MAXEFFR
   2383  d321		       90 29		      BCC	REGTUNL
   2384  d323		       a5 c2		      LDA	NOTUNNEL
   2385  d325		       f0 0c		      BEQ	ZNEWCRET
   2386  d327		       a6 c9		      LDX	BRCREAT
   2387  d329		       bd e2 e9 	      LDA	RANDCRET,X
   2388  d32c		       85 d1		      STA	RCREATS
   2389  d32e		       a5 ca		      LDA	BRTUNNL
   2390  d330		       4c 42 d3 	      JMP	ZANYCRET
   2391  d333		       a5 86	   ZNEWCRET   LDA	FRMCNT
   2392  d335		       29 07		      AND	#7
   2393  d337		       aa		      TAX
   2394  d338		       bd e2 e9 	      LDA	RANDCRET,X
   2395  d33b		       85 d1		      STA	RCREATS
   2396  d33d		       86 c9		      STX	BRCREAT
   2397  d33f		       20 6a d5 	      JSR	RANDOM
   2398  d342		       85 d2	   ZANYCRET   STA	RTUNNELS
   2399  d344		       85 ca		      STA	BRTUNNL
   2400  d346		       8a		      TXA
   2401  d347		       18		      CLC
   2402  d348		       69 11		      ADC	#17
   2403  d34a		       d0 0b		      BNE	ZTUNNEL0
   2404  d34c		       bc d1 e9    REGTUNL    LDY	CREATS,X	;		 ;CREATURE BYTE: 0=> POOKA, 1=> FYGAR.
   2405  d34f		       84 d1		      STY	RCREATS
   2406  d351		       bc e3 e8 	      LDY	TUNLDIR,X	;		;TUNNEL DIRECTION: 0=> HORIZ, 1=> VERT.
   2407  d354		       84 d2		      STY	RTUNNELS
   2408  d356		       8a		      TXA
   2409  d357		       0a	   ZTUNNEL0   ASL		;			;MULTIPLY BY 8 FOR INDEX INTO TUNNELS.
   2410  d358		       0a		      ASL
   2411  d359		       0a		      ASL
   2412  d35a		       a8		      TAY
   2413  d35b		       a9 00		      LDA	#0	;		       ;INITIALIZE POINTERS INTO POOKA AND
   2414  d35d		       85 cf		      STA	PCOUNT	;		   ;  FYGAR ARRAYS.
   2415  d35f		       a9 04		      LDA	#4
   2416  d361		       85 d0		      STA	FCOUNT
   2417  d363		       a2 07		      LDX	#7	;		       ;POSSIBLE 8 TUNNELS PER RACK.
   2418  d365		       86 ce		      STX	TCOUNT
   2419  d367		       be 00 22    ITUNNEL    LDX	TUNNELS,Y
   2420  d36a		       d0 05		      BNE	ZTUNNEL
   2421  d36c		       8a		      TXA
   2422  d36d		       48		      PHA
   2423  d36e		       08		      PHP
   2424  d36f		       f0 23		      BEQ	ZCREATS
   2425  d371		       06 d2	   ZTUNNEL    ASL	RTUNNELS	;		 ;GET TUNNEL DIRECTION.
   2426  d373		       a5 c2		      LDA	NOTUNNEL	;		 ;JUST INIT CREATURES?
   2427  d375		       d0 16		      BNE	ICREATS
   2428  d377		       b0 05		      BCS	VTUNNEL	;		  ;(SET BY ASL).
   2429  d379		       20 ef e2 	      JSR	HCARVE
   2430  d37c		       d0 0f		      BNE	ICREATS
   2431  d37e		       a9 16	   VTUNNEL    LDA	#DTOPEND	;		 ;;*;*;*MARIA 1...
   2432  d380		       9d 00 26 	      STA	DIRTMAP,X	;		;VERTICAL TUNNEL.
   2433  d383		       a9 14		      LDA	#DVMIDDLE	;		;;*;*;*MARIA 1...
   2434  d385		       9d 10 26 	      STA	DIRTMAP+$10,X
   2435  d388		       a9 1c		      LDA	#DBOTEND	;		 ;;*;*;*MARIA 1...
   2436  d38a		       9d 20 26 	      STA	DIRTMAP+$20,X
   2437  d38d				   ICREATS
   2438  d38d		       8a		      TXA		;			      ;IF CARRY CLEAR, HORIZONTAL TUNNEL.
   2439  d38e		       20 e8 e4 	      JSR	GETRXY	;		   ;RETURNS X POS IN A, Y IN X.
   2440  d391		       48		      PHA
   2441  d392		       08		      PHP
   2442  d393		       8a		      TXA
   2443  d394		       06 d1	   ZCREATS    ASL	RCREATS
   2444  d396		       b0 06		      BCS	IFYGAR
   2445  d398		       a6 cf		      LDX	PCOUNT	;		   ;INDEX INTO POOKA ARRAY.
   2446  d39a		       e6 cf		      INC	PCOUNT
   2447  d39c		       d0 04		      BNE	GOTCINDX
   2448  d39e		       a6 d0	   IFYGAR     LDX	FCOUNT
   2449  d3a0		       e6 d0		      INC	FCOUNT
   2450  d3a2				   GOTCINDX
   2451  d3a2		       28		      PLP
   2452  d3a3		       08		      PHP
   2453  d3a4		       90 07		      BCC	ZHTUNL
   2454  d3a6		       fd e7 e7 	      SBC	CRYOFST,X	;		;VERT TUNNEL - OFFSET CREATURE Y POS.
   2455  d3a9		       b0 02		      BCS	ZHTUNL
   2456  d3ab		       a9 00		      LDA	#0
   2457  d3ad		       95 41	   ZHTUNL     STA	POOKAY,X
   2458  d3af							;*	    JSR     DOOM
   2459  d3af		       c9 00		      CMP	#0
   2460  d3b1		       d0 08		      BNE	ZGOTCRET
   2461  d3b3		       28		      PLP
   2462  d3b4		       68		      PLA
   2463  d3b5		       a9 80		      LDA	#$80
   2464  d3b7		       95 b2		      STA	MONSTAT,X
   2465  d3b9		       30 13		      BMI	NOCREAT
   2466  d3bb				   ZGOTCRET
   2467  d3bb		       28		      PLP
   2468  d3bc		       68		      PLA
   2469  d3bd		       b0 03		      BCS	ZVTUNL
   2470  d3bf		       7d aa e9 	      ADC	CRXOFST,X	;		;HORIZ TUNNEL: OFFSET CREATURE X POS.
   2471  d3c2		       95 54	   ZVTUNL     STA	POOKAX,X
   2472  d3c4		       b5 b2		      LDA	MONSTAT,X
   2473  d3c6		       30 06		      BMI	NOCREAT
   2474  d3c8		       a9 00		      LDA	#0
   2475  d3ca		       95 b2		      STA	MONSTAT,X
   2476  d3cc		       f0 04		      BEQ	ZGOTC2
   2477  d3ce		       a9 00	   NOCREAT    LDA	#0
   2478  d3d0		       95 41		      STA	POOKAY,X
   2479  d3d2		       c8	   ZGOTC2     INY
   2480  d3d3		       c6 ce		      DEC	TCOUNT
   2481  d3d5		       10 90		      BPL	ITUNNEL
   2482  d3d7
   2483  d3d7		       a4 87		      LDY	PLAYNUM
   2484  d3d9		       a5 88		      LDA	BONZO
   2485  d3db		       f0 04		      BEQ	REALVEG
   2486  d3dd		       a2 12		      LDX	#NUMVEG+1
   2487  d3df		       d0 0b		      BNE	GETVCOL
   2488  d3e1		       b6 9b	   REALVEG    LDX	RACKNUM,Y
   2489  d3e3		       f0 07		      BEQ	GETVCOL
   2490  d3e5		       ca		      DEX
   2491  d3e6		       e0 11		      CPX	#NUMVEG
   2492  d3e8		       90 02		      BCC	GETVCOL
   2493  d3ea		       a2 11		      LDX	#NUMVEG
   2494  d3ec		       bd bd e8    GETVCOL    LDA	VEGCOL2,X
   2495  d3ef		       8d ef 23 	      STA	VEGCOLR
   2496  d3f2		       bd aa e8 	      LDA	VEGCOL1,X
   2497  d3f5		       8d f0 23 	      STA	VEGCOLR+1
   2498  d3f8		       bd d0 e8 	      LDA	VEGCOL3,X
   2499  d3fb		       8d 1e 23 	      STA	P0C0SHAD+23
   2500  d3fe		       a9 e0		      LDA	#CSET1
   2501  d400		       8d ce 1f 	      STA	FRUITCST
   2502  d403		       a9 be		      LDA	#VEGPALW
   2503  d405		       8d cf 1f 	      STA	FRUITPAL
   2504  d408		       b6 9b		      LDX	RACKNUM,Y
   2505  d40a		       f0 03		      BEQ	DORAK1
   2506  d40c		       ca		      DEX
   2507  d40d		       d0 32		      BNE	ADJ12
   2508  d40f				   DORAK1
   2509  d40f		       a5 c2		      LDA	NOTUNNEL
   2510  d411		       d0 2e		      BNE	ADJ12
   2511  d413		       a5 a0		      LDA	ATTRACT
   2512  d415		       d0 04		      BNE	ZDORAK1
   2513  d417		       a5 88		      LDA	BONZO
   2514  d419		       d0 26		      BNE	ADJ12
   2515  d41b		       a9 0a	   ZDORAK1    LDA	#DHMIDDLE	;		;RACK 1 IS ONLY RACK WITH TUNNELS
   2516  d41d		       8d 2c 26 	      STA	DIRTMAP+$2C	;	      ;  TALLER OR WIDER THAN 3 DIRT BLOCKS.
   2517  d420		       8d a5 26 	      STA	DIRTMAP+$A5
   2518  d423		       a9 0e		      LDA	#DRHTEND
   2519  d425		       8d 2d 26 	      STA	DIRTMAP+$2D
   2520  d428		       8d a6 26 	      STA	DIRTMAP+$A6
   2521  d42b		       a9 14		      LDA	#DVMIDDLE
   2522  d42d		       8d 42 26 	      STA	DIRTMAP+$42
   2523  d430		       8d 52 26 	      STA	DIRTMAP+$52
   2524  d433		       8d ba 26 	      STA	DIRTMAP+$BA
   2525  d436		       8d ca 26 	      STA	DIRTMAP+$CA
   2526  d439		       a9 1c		      LDA	#DBOTEND
   2527  d43b		       8d 62 26 	      STA	DIRTMAP+$62
   2528  d43e		       8d da 26 	      STA	DIRTMAP+$DA
   2529  d441		       8a	   ADJ12      TXA
   2530  d442		       c9 0c		      CMP	#12
   2531  d444		       90 06		      BCC	GOTDCOLR
   2532  d446		       e9 0c	   ADJ12A     SBC	#12	;		      ;3 COLOR SCHEMES: EACH COLOR SCHEME
   2533  d448		       c9 0c		      CMP	#12
   2534  d44a		       b0 fa		      BCS	ADJ12A	;		   ;  LASTS FOR FOUR RACKS.
   2535  d44c		       29 0c	   GOTDCOLR   AND	#$C
   2536  d44e		       aa		      TAX
   2537  d44f		       bd 08 d7 	      LDA	DIRTCOLR,X	;	       ;INITIALIZE PALETTES FOR THIS RACK.
   2538  d452		       8d 20 23 	      STA	P0C0SHAD+25
   2539  d455		       bd c5 e9 	      LDA	PEBBCOLR,X
   2540  d458		       8d 22 23 	      STA	P0C0SHAD+27
   2541  d45b		       a0 00		      LDY	#0
   2542  d45d		       bd 09 d7    ZTOPLOOP   LDA	DIRTCOLR+1,X
   2543  d460		       99 e9 23 	      STA	DRT1COLR,Y
   2544  d463		       bd c6 e9 	      LDA	PEBBCOLR+1,X
   2545  d466		       99 ea 23 	      STA	DRT1COLR+1,Y
   2546  d469		       e8		      INX
   2547  d46a		       c8		      INY
   2548  d46b		       c8		      INY
   2549  d46c		       c0 06		      CPY	#6
   2550  d46e		       90 ed		      BCC	ZTOPLOOP
   2551  d470							;*	    LDA     DIRTCOLR+1,X;	    LDY #0
   2552  d470							;*	    STA     DRT1COLR;		    LDA DIRTCOLR+1,X
   2553  d470							;*	    LDA     PEBBCOLR+1,X;	    STA DRT1COLR,Y
   2554  d470							;*	    STA     DRT1COLR+1; 	    LDA PEBBCOLR+1,X
   2555  d470							;*	    LDA     DIRTCOLR+2,X;	    STA DRT1COLR+1,Y
   2556  d470							;*	    STA     DRT2COLR;		    INX
   2557  d470							;*	    LDA     PEBBCOLR+2,X;	    INY  INY
   2558  d470							;*	    STA     DRT2COLR+1; 	    CPY #6
   2559  d470							;*	    LDA     DIRTCOLR+3,X;	    BCC TOPLOOP
   2560  d470							;*	    STA     DRT3COLR
   2561  d470							;*	    LDA     PEBBCOLR+3,X
   2562  d470							;*	    STA     DRT3COLR+1
   2563  d470
   2564  d470							;*;*;*;*;*;*;*;*  RTS	   OLD RTS FOR INITDIRT!!!!!!!!!!!!!!!!
   2565  d470
   2566  d470							;*;*;*;*;*;*;*;*;*;*;*;*;*;*;*;*;*;*;*;*;*;*;*;*;*;*;*;*;*;*;*;*;*;*;*;*;*;*;*;*;*;*;*;*;*;*;*;*;*;*;*;*;*;*;*;*;*;*;*;*;*;*;*;*;*;*;*;*;*;*;*;*;*;*;*;*;*;*;*;*
   2567  d470							;*;*;*;*;*;*;*;*;*;*;*;							  ;*;*;*;*;*;*;*;*;*;*;*
   2568  d470							;*;*;*;*;*;*;*;*;*;*;*       INCREATS:  INITIALIZE CREATURES IN TUNNELS.	 ;*;*;*;*;*;*;*;*;*;*;*
   2569  d470							;*;*;*;*;*;*;*;*;*;*;*;							  ;*;*;*;*;*;*;*;*;*;*;*
   2570  d470							;*;*;*;*;*;*;*;*;*;*;*    INCREATS : NOW A PART OF INITDIRT!!!!!
   2571  d470
   2572  d470							;-------- INITIALIZE RAM VARIABLES FOR MONSTER MOVEMENT ALGORITHMS
   2573  d470							;-------- AND OTHER THINGS .....
   2574  d470
   2575  d470		       20 b9 d4 	      JSR	DOSTART	;		  ;RETURNS 0 IN A
   2576  d473
   2577  d473							;*	    LDA     #0
   2578  d473		       a2 08		      LDX	#8
   2579  d475		       9d c0 24    ZPRIOR0    STA	STMPRIOR,X
   2580  d478		       ca		      DEX
   2581  d479		       10 fa		      BPL	ZPRIOR0
   2582  d47b
   2583  d47b		       a2 07		      LDX	#$07
   2584  d47d		       a9 00	   EACHMONS   LDA	#$00
   2585  d47f		       9d 37 23 	      STA	BLWSTAT,X
   2586  d482		       9d 30 21 	      STA	GHOST,X
   2587  d485		       9d e8 22 	      STA	YMODC,X
   2588  d488		       a9 08		      LDA	#$08
   2589  d48a		       9d 38 21 	      STA	FACING,X
   2590  d48d		       20 28 d7 	      JSR	GHSTSUB1
   2591  d490							;*	    JSR     GETDIRT
   2592  d490							;*	    STY     TEMP3;		    NECESSARY FOR CHKOTHER CODE
   2593  d490							;*	    JSR     CHKOTHER
   2594  d490		       4a		      LSR		;			INDEX=CHAR
   2595  d491		       85 cc		      STA	TEMP1
   2596  d493		       a9 04		      LDA	#$04
   2597  d495		       46 cc		      LSR	TEMP1
   2598  d497		       90 12		      BCC	NEXT115
   2599  d499		       0a		      ASL		;			;ASSUME A CONTAINS 4
   2600  d49a		       46 cc		      LSR	TEMP1
   2601  d49c		       90 0d		      BCC	NEXT115
   2602  d49e		       a9 01		      LDA	#$01
   2603  d4a0		       46 cc		      LSR	TEMP1
   2604  d4a2		       90 07		      BCC	NEXT115
   2605  d4a4		       0a		      ASL		;			;ASSUME A CONTAINS 1
   2606  d4a5		       46 cc		      LSR	TEMP1
   2607  d4a7		       90 02		      BCC	NEXT115
   2608  d4a9		       a9 00		      LDA	#$00
   2609  d4ab		       95 ba	   NEXT115    STA	DIR,X	;		    SETUP FOR JSR NEWSEQ
   2610  d4ad		       20 5c f2 	      JSR	NEWSEQ
   2611  d4b0		       20 85 f3 	      JSR	SPEEDER
   2612  d4b3							;*	    LDA     CHARSEQL,X; 	    ;NOW DONE IN NEWSEQ - 1/18/84
   2613  d4b3							;*	    STA     TEMP1
   2614  d4b3							;*	    LDA     #>RPOOKA
   2615  d4b3							;*	    STA     TEMP2
   2616  d4b3							;*	    LDY     #$00
   2617  d4b3							;*	    LDA     (TEMP1),Y
   2618  d4b3							;*	    STA     POOKAIX,X
   2619  d4b3		       ca		      DEX
   2620  d4b4		       10 c7		      BPL	EACHMONS
   2621  d4b6
   2622  d4b6		       4c 20 f3 	      JMP	GETMODE	;		  ;GETMODE IS A SUBR
   2623  d4b9							;-------- END OF MONSTER MOVEMENT VAR. INITIALIZATION
   2624  d4b9
   2625  d4b9							;*	    RTS
   2626  d4b9
   2627  d4b9		       a5 86	   DOSTART    LDA	FRMCNT	;		   ;CALLED FROM INCREATS AND DDMOVE
   2628  d4bb		       18		      CLC
   2629  d4bc		       69 3c		      ADC	#60	;		      ; CHANGE FOR PAL/SECAM
   2630  d4be		       8d 06 23 	      STA	NXTSEC	;		   ;  ...ALSO NEXT LINE
   2631  d4c1
   2632  d4c1		       a2 43		      LDX	#67	;		      ;1 MINUTE, 7 SECONDS
   2633  d4c3		       a5 88		      LDA	BONZO
   2634  d4c5		       d0 05		      BNE	BONZSPED
   2635  d4c7		       a4 87		      LDY	PLAYNUM
   2636  d4c9		       b9 9b 00 	      LDA	RACKNUM,Y
   2637  d4cc		       c9 18	   BONZSPED   CMP	#24
   2638  d4ce		       90 02		      BCC	SETFAST
   2639  d4d0		       a2 02		      LDX	#2	;		       ;ABOUT TWO SECONDS
   2640  d4d2		       8e 01 23    SETFAST    STX	SPEEDUP
   2641  d4d5
   2642  d4d5		       20 4d c2 	      JSR	SETDFAST	;		 ;SET DD SPEEDS
   2643  d4d8
   2644  d4d8		       20 67 ff 	      JSR	INITALLS	;		 ;SETS A TO 0, USES Y
   2645  d4db		       85 7e		      STA	CURSONG
   2646  d4dd		       85 7f		      STA	SNGTEMP1
   2647  d4df							;*	    LDA     #$00
   2648  d4df							;*	    STA     ANIMCNT;		    ;THESE 20 REGISTERS MUST STAY ADJACENT
   2649  d4df							;*	    STA     DIGGING
   2650  d4df							;*	    STA     PUMPNUM
   2651  d4df							;*	    STA     SQUASH
   2652  d4df
   2653  d4df							;*	    STA     NOTGRID
   2654  d4df							;*	    STA     NEEDDIR
   2655  d4df							;*	    STA     FSCORE
   2656  d4df							;*	    STA     FSCORCTR
   2657  d4df							;*	    STA     GHOSTIME
   2658  d4df							;*	    STA     ESCAPER
   2659  d4df							;*	    STA     PUMP
   2660  d4df							;*	    STA     PUMPING
   2661  d4df							;*	    STA     PUMPCNT
   2662  d4df							;*	    STA     WALKING
   2663  d4df							;*	    STA     FREEZE
   2664  d4df							;*	    STA     FLAMIE
   2665  d4df							;*	    STA     FLAMTIME
   2666  d4df							;*	    STA     FRUIT
   2667  d4df							;*	    STA     DIGREST
   2668  d4df							;*	    STA     SCNDTIM
   2669  d4df
   2670  d4df		       a2 13		      LDX	#19
   2671  d4e1		       95 e0	   ZIFSCOR    STA	ANIMCNT,X
   2672  d4e3		       ca		      DEX
   2673  d4e4		       10 fb		      BPL	ZIFSCOR
   2674  d4e6
   2675  d4e6		       86 7b		      STX	PUMPIE	;		   ;EXPECTS X TO BE FF
   2676  d4e8		       8d 04 23 	      STA	FLEE	;		     ;EXPECTS A TO BE 0
   2677  d4eb		       8d 05 23 	      STA	FAST
   2678  d4ee		       85 80		      STA	LASTMOVE
   2679  d4f0
   2680  d4f0
   2681  d4f0		       a2 b5		      LDX	#$B5
   2682  d4f2		       86 8a		      STX	PROPORT3
   2683  d4f4		       86 89		      STX	PROPORT2
   2684  d4f6		       86 af		      STX	PROPORT
   2685  d4f8		       a2 04		      LDX	#4	;		       ;FORCE GHOSTING AFTER ABOUT 4 SECONDS
   2686  d4fa		       8e 03 23 	      STX	GHOSTOUT
   2687  d4fd
   2688  d4fd		       4c ef e3 	      JMP	INITDIGS	;		 ;SETS A TO 0, USES Y (INITDIGS IS SUBR)
   2689  d500							;*	    RTS
   2690  d500
   2691  d500
   2692  d500							;*;*;*;*;*;*;*;*;*;*;*;*;*;*;*;*;*;*;*;*;*;*;*;*;*;*;*;*;*;*;*;*;*;*;*;*;*;*;*;*;*;*;*;*;*;*;*;*;*;*;*;*;*;*;*;*;*;*;*;*;*;*;*;*;*;*;*;*;*;*;*;*;*;*;*;*;*;*;*;*
   2693  d500							;*;*;*;*;*;*;*;*;*;*;*;							  ;*;*;*;*;*;*;*;*;*;*;*
   2694  d500							;*;*;*;*;*;*;*;*;*;*;*       INITROCK:  INITIALIZE ROCKS IN DIRT.;		  ;*;*;*;*;*;*;*;*;*;*;*
   2695  d500							;*;*;*;*;*;*;*;*;*;*;*;							  ;*;*;*;*;*;*;*;*;*;*;*
   2696  d500							;*;*;*;*;*;*;*;*;*;*;*;*;*;*;*;*;*;*;*;*;*;*;*;*;*;*;*;*;*;*;*;*;*;*;*;*;*;*;*;*;*;*;*;*;*;*;*;*;*;*;*;*;*;*;*;*;*;*;*;*;*;*;*;*;*;*;*;*;*;*;*;*;*;*;*;*;*;*;*;*
   2697  d500				   INITROCK
   2698  d500		       a9 00		      LDA	#0
   2699  d502		       85 cf		      STA	REGROCK
   2700  d504		       a0 07		      LDY	#$07
   2701  d506		       99 d1 00    ZIROCK0    STA	TEMP+5,Y
   2702  d509		       88		      DEY
   2703  d50a		       10 fa		      BPL	ZIROCK0
   2704  d50c		       a5 86		      LDA	FRMCNT
   2705  d50e		       6a		      ROR
   2706  d50f		       85 d0		      STA	RANDROCK
   2707  d511		       a0 04		      LDY	#4	;		       ;MAXIMUM OF 5 ROCKS.
   2708  d513		       a6 87		      LDX	PLAYNUM
   2709  d515		       bd c4 1f 	      LDA	EFFRACK,X
   2710  d518		       c9 11		      CMP	#MAXEFFR
   2711  d51a		       90 04		      BCC	ZIROCK
   2712  d51c		       e6 cf		      INC	REGROCK	;		  ;RANDOM ROCK RACK.
   2713  d51e		       10 08		      BPL	DOROCKS
   2714  d520		       0a	   ZIROCK     ASL
   2715  d521		       0a		      ASL
   2716  d522		       18		      CLC
   2717  d523		       7d c4 1f 	      ADC	EFFRACK,X
   2718  d526		       85 ce		      STA	TEMPX
   2719  d528
   2720  d528		       a6 ce	   DOROCKS    LDX	TEMPX
   2721  d52a		       a5 cf		      LDA	REGROCK
   2722  d52c		       f0 1c		      BEQ	TABLROCK
   2723  d52e
   2724  d52e		       20 6a d5 	      JSR	RANDOM	;		   ;RANDOM ROCK RACK:  SHOULD WE PLACE A
   2725  d531		       29 01		      AND	#1	;		       ;  ROCK HERE?
   2726  d533		       f0 1a		      BEQ	ZTABROK0
   2727  d535		       66 d0	   ZGETROK    ROR	RANDROCK	;		 ;YES: GET A RANDOM INDEX INTO POSSIBLE
   2728  d537		       20 6a d5 	      JSR	RANDOM	;		   ;  ROCKS FOR RANDOM RACKS.
   2729  d53a		       45 d0		      EOR	RANDROCK
   2730  d53c		       29 07		      AND	#7
   2731  d53e		       aa		      TAX
   2732  d53f		       b5 d1		      LDA	TEMP+5,X
   2733  d541		       d0 f2		      BNE	ZGETROK
   2734  d543		       bd 00 c0 	      LDA	RANDROKS,X	;	       ;GET ROCK POSITION.
   2735  d546		       95 d1		      STA	TEMP+5,X
   2736  d548		       d0 08		      BNE	ZROCK
   2737  d54a
   2738  d54a		       bd 00 c1    TABLROCK   LDA	ROCKS,X	;		  ;ROCK X,Y COMBINED POSITION.
   2739  d54d		       d0 03		      BNE	ZROCK
   2740  d54f
   2741  d54f		       aa	   ZTABROK0   TAX		;			      ;NO ROCK HERE...
   2742  d550		       f0 06		      BEQ	ZROCK1
   2743  d552
   2744  d552		       20 e8 e4    ZROCK      JSR	GETRXY	;		   ;RETURNS X IN A, Y IN X.
   2745  d555		       99 5c 00 	      STA	ROCKSX,Y
   2746  d558		       96 49	   ZROCK1     STX	ROCKSY,Y
   2747  d55a		       a9 a6		      LDA	#STRTROCK
   2748  d55c		       99 6f 00 	      STA	ROCKSIX,Y
   2749  d55f		       a9 00		      LDA	#0
   2750  d561		       99 c3 00 	      STA	TUMBLE,Y
   2751  d564		       e6 ce		      INC	TEMPX	;		    ;MOVE TO NEXT ENTRY IN ROCK TABLE.
   2752  d566		       88		      DEY		;			      ;MOVE TO NEXT POSSIBLE ROCK.
   2753  d567		       10 bf		      BPL	DOROCKS
   2754  d569		       60		      RTS
   2755  d56a
   2756  d56a
   2757  d56a
   2758  d56a							;*;*;*;*;*;*;*;*;*;*;*;*;*;*;*;*;*;*;*
   2759  d56a							;*;*;*;*;*;*;*;*;*;*;*;*;*;*;*;*;*;*;*
   2760  d56a							;*;*;*;*;*;*;*;*;*;*;*;*;*;*;*;*;*;*;*
   2761  d56a							;*;*;*;*;*;*;*;*;*;*;*;*;*;*;*;*;*;*;*
   2762  d56a							;*;*;*;*;*;*;*;*;*;*;*;*;*;*;*;*;*;*;*
   2763  d56a				   RANDOM
   2764  d56a		       a5 86		      LDA	FRMCNT
   2765  d56c		       65 ab		      ADC	RNDM
   2766  d56e		       65 ac		      ADC	RNDM+1
   2767  d570		       48		      PHA
   2768  d571		       a5 ab		      LDA	RNDM
   2769  d573		       85 ac		      STA	RNDM+1
   2770  d575		       68		      PLA
   2771  d576		       85 ab		      STA	RNDM
   2772  d578		       60		      RTS
   2773  d579
   2774  d579							;*DOOM      PHA
   2775  d579							;*	    TYA
   2776  d579							;*	    PHA
   2777  d579							;*	    LDY     #15
   2778  d579							;*	    LDA     GHOST,X
   2779  d579							;*	    BNE     Z2
   2780  d579							;*	    LDA     POOKAY,X
   2781  d579							;*	    BEQ     Z2
   2782  d579							;*DOOMLOOP  CMP     TOPZONE,Y
   2783  d579							;*	    BEQ     Z2
   2784  d579							;*	    DEY
   2785  d579							;*	    BPL     DOOMLOOP
   2786  d579							;*DOOMTRAP  NOP
   2787  d579							;*	    NOP
   2788  d579							;*Z2	     PLA
   2789  d579							;*	    TAY
   2790  d579							;*	    PLA
   2791  d579							;*DOOMRTS   RTS
   2792  d579		       2a a3	   PTUNNELS   DC.B	$2A,$A3
   2793  d57b		       22 9a		      DC.B	$22,$9A
   2794  d57d		       00		      DC.B	0
   2795  d57e
   2796  d57e		       97 bb 3b 62	      DC.B	$97,$BB,$3B,$62
   2797  d582		       92		      DC.B	$92
   2798  d583		       00		      DC.B	0
   2799  d584
   2800  d584		       2b 52 c9 	      DC.B	$2B,$52,$C9
   2801  d587		       38 96		      DC.B	$38,$96
   2802  d589		       00		      DC.B	0
   2803  d58a
   2804  d58a		       34 a4 c8 	      DC.B	$34,$A4,$C8
   2805  d58d		       38 7c		      DC.B	$38,$7C
   2806  d58f		       00		      DC.B	0
   2807  d590
   2808  d590		       32 93 ab 	      DC.B	$32,$93,$AB
   2809  d593		       36 2a 6b 	      DC.B	$36,$2A,$6B
   2810  d596		       00		      DC.B	0
   2811  d597
   2812  d597		       34 34 8a 92*	      DC.B	$34,$34,$8A,$92,$B6
   2813  d59c							;*		    PP F F F
   2814  d59c		       53		      DC.B	$53
   2815  d59d							;*		    F
   2816  d59d		       00		      DC.B	0
   2817  d59e
   2818  d59e		       3a 3a 93 93*	      DC.B	$3A,$3A,$93,$93,$B9
   2819  d5a3							;*		    FP	FP  F
   2820  d5a3		       26 26		      DC.B	$26,$26
   2821  d5a5							;*		    PP
   2822  d5a5		       00		      DC.B	0
   2823  d5a6
   2824  d5a6		       32 4a aa c5	      DC.B	$32,$4A,$AA,$C5
   2825  d5aa							;*		    F P F P
   2826  d5aa		       36 36 83 	      DC.B	$36,$36,$83
   2827  d5ad							;*		    PP F
   2828  d5ad		       00		      DC.B	0
   2829  d5ae
   2830  d5ae		       59 59 96 b2*	      DC.B	$59,$59,$96,$B2,$B2,$BB
   2831  d5b4							;*		    PP F FF F
   2832  d5b4		       35 5d		      DC.B	$35,$5D
   2833  d5b6							;*		    P P
   2834  d5b6
   2835  d5b6		       48 48 a4 ba	      DC.B	$48,$48,$A4,$BA
   2836  d5ba							;*		    PF F P
   2837  d5ba		       2c 2c 54 6a	      DC.B	$2C,$2C,$54,$6A
   2838  d5be							;*		    PP F F
   2839  d5be
   2840  d5be		       44 44 62 62	      DC.B	$44,$44,$62,$62
   2841  d5c2							;*		    PF PP
   2842  d5c2		       4a 4a 6d 93	      DC.B	$4A,$4A,$6D,$93
   2843  d5c6							;*		    PF F F
   2844  d5c6
   2845  d5c6		       43 43 58 58*	      DC.B	$43,$43,$58,$58,$AA,$AA,$B5	;THESE REPEAT -- RACK 12
   2846  d5cd							;*		    PF PP FF F
   2847  d5cd		       4d		      DC.B	$4D
   2848  d5ce							;*		    P
   2849  d5ce
   2850  d5ce		       3a 3a a6 a6*	      DC.B	$3A,$3A,$A6,$A6,$CB,$CB
   2851  d5d4							;*		    PP FF FF
   2852  d5d4		       6c 54		      DC.B	$6C,$54
   2853  d5d6							;*		    P P
   2854  d5d6
   2855  d5d6		       38 38 8a a4*	      DC.B	$38,$38,$8A,$A4,$A4
   2856  d5db							;*		    PP F FF
   2857  d5db		       34 34 4d 	      DC.B	$34,$34,$4D
   2858  d5de							;*		    PF P
   2859  d5de
   2860  d5de		       2b 6a 72 72	      DC.B	$2B,$6A,$72,$72
   2861  d5e2							;*		    P P FF
   2862  d5e2		       36 36 96 98	      DC.B	$36,$36,$96,$98
   2863  d5e6							;*		    PP F F
   2864  d5e6
   2865  d5e6		       3b a2 00 	      DC.B	$3B,$A2,0	;		;BONZO LEVEL 0.
   2866  d5e9							;*		    F P
   2867  d5e9		       23 a7 00 	      DC.B	$23,$A7,0	;		;BONZO LEVEL 1.
   2868  d5ec							;*		    P F
   2869  d5ec
   2870  d5ec		       6b 42 ba 00	      DC.B	$6B,$42,$BA,0	;	    ;RANDOM RACKS.
   2871  d5f0							;*		    F F P
   2872  d5f0		       23 93 3a 00	      DC.B	$23,$93,$3A,0
   2873  d5f4							;*		    F F F
   2874  d5f4		       6b 42 a7 00	      DC.B	$6B,$42,$A7,0
   2875  d5f8							;*		    P F P
   2876  d5f8		       b2 ba 23 3a*	      DC.B	$B2,$BA,$23,$3A,0
   2877  d5fd							;*		    P P P P
   2878  d5fd		       23 ba 00 	      DC.B	$23,$BA,0
   2879  d600							;*		    F P
   2880  d600		       b2 a7 ba 00	      DC.B	$B2,$A7,$BA,0
   2881  d604							;*		    P F F
   2882  d604		       23 3a a7 00	      DC.B	$23,$3A,$A7,0
   2883  d608							;*		    P P F
   2884  d608		       93 6b 42 3a*	      DC.B	$93,$6B,$42,$3A,0
   2885  d60d							;*		    F P P F
   2886  d60d							;*MOVED TO ARRAYS:
   2887  d60d							;*TEDYPINE  DC.B      TEDDY,$BE,CSET1,76,0,0;		   ;(PALETTE 5).
   2888  d60d
   2889  d60d		       a2 3a	   ISCOREL    LDX	#58	;		      ;INIT DISPLAY LIST FOR SCORE LINE.
   2890  d60f		       bd aa e6    ISCOREL0   LDA	ISCORLIN,X
   2891  d612		       9d bd 1b 	      STA	L0Z0,X
   2892  d615		       ca		      DEX
   2893  d616		       10 f7		      BPL	ISCOREL0
   2894  d618		       a2 05		      LDX	#5
   2895  d61a		       a9 00		      LDA	#0
   2896  d61c		       95 a2	   ISCOREL1   STA	SCOREL,X
   2897  d61e		       ca		      DEX
   2898  d61f		       10 fb		      BPL	ISCOREL1
   2899  d621		       60		      RTS		;			      ;RETURNS 0 IN A.
   2900  d622
   2901  d622
   2902  d622		       85 d1	   CRUNCH     STA	VICTIMY
   2903  d624		       b5 5c		      LDA	ROCKSX,X	;		 ;ROCK HOR POS
   2904  d626		       38		      SEC
   2905  d627		       e5 d0		      SBC	VICTIMX
   2906  d629		       10 04		      BPL	CRUNCH2
   2907  d62b		       49 ff		      EOR	#$FF	;		     ; DOES NOT AFFECT CARRY
   2908  d62d							;*	    CLC;			    ; MINUS MEANS CARRY CLEAR
   2909  d62d		       69 01		      ADC	#1
   2910  d62f		       c9 06	   CRUNCH2    CMP	#6	;		       ;REQUIRE OVERLAP OF 2
   2911  d631		       b0 27		      BCS	CRUNCH5
   2912  d633		       b5 49		      LDA	ROCKSY,X	;		 ;LDA DOES NOT AFFECT CARRY
   2913  d635							;*	    CLC
   2914  d635		       69 06		      ADC	#6
   2915  d637		       38		      SEC
   2916  d638		       e5 d1		      SBC	VICTIMY
   2917  d63a		       90 1e		      BCC	CRUNCH5
   2918  d63c		       c9 11		      CMP	#17
   2919  d63e		       b0 1a		      BCS	CRUNCH5
   2920  d640
   2921  d640		       b5 49		      LDA	ROCKSY,X
   2922  d642							;*	    SEC;			    ; CARRY IS CLEAR HERE
   2923  d642		       e9 05		      SBC	#$06-1	;		   ;MIGHT NEED TO TWEAK THIS
   2924  d644		       85 d2		      STA	RTEMP
   2925  d646		       c9 17		      CMP	#MINDDY	;		  ;DON"T SQUASH OFF EDGE
   2926  d648		       90 12		      BCC	MINSQSHY
   2927  d64a							;*	    SEC
   2928  d64a		       e5 d1		      SBC	VICTIMY
   2929  d64c		       90 08		      BCC	NEWSQSHY
   2930  d64e		       c9 04		      CMP	#$04
   2931  d650		       90 04		      BCC	NEWSQSHY
   2932  d652		       a5 d1		      LDA	VICTIMY
   2933  d654		       d0 02		      BNE	NOCADJST
   2934  d656		       a5 d2	   NEWSQSHY   LDA	RTEMP
   2935  d658		       38	   NOCADJST   SEC		;			      ;SQUASH
   2936  d659		       60		      RTS
   2937  d65a		       18	   CRUNCH5    CLC		;			      ;NO SQUASH
   2938  d65b		       60		      RTS
   2939  d65c		       a9 17	   MINSQSHY   LDA	#MINDDY
   2940  d65e		       38		      SEC
   2941  d65f		       60		      RTS
   2942  d660
   2943  d660		       b9 00 26    LOOKDIRT   LDA	DIRTMAP,Y
   2944  d663		       c9 24		      CMP	#CHARD12
   2945  d665		       b0 08		      BCS	ENDLOOK
   2946  d667		       c9 1e		      CMP	#CHARDF
   2947  d669		       90 02		      BCC	ZNXT120
   2948  d66b		       a9 02		      LDA	#$02	;		     ;SKY CHARACTER
   2949  d66d							;*	    LDA     #$01;		    SKY CHARACTER
   2950  d66d							;*	    RTS
   2951  d66d		       4a	   ZNXT120    LSR
   2952  d66e		       60		      RTS
   2953  d66f		       a9 0f	   ENDLOOK    LDA	#$0F
   2954  d671		       60		      RTS
   2955  d672
   2956  d672		       a9 37	   TITLCOLR   LDA	#RED
   2957  d674		       8d 21 23 	      STA	P0C0SHAD+26
   2958  d677		       8d 22 23 	      STA	P0C0SHAD+27
   2959  d67a		       a9 85		      LDA	#DDBLUE
   2960  d67c		       9d 07 23 	      STA	P0C0SHAD,X
   2961  d67f		       a9 37		      LDA	#RED
   2962  d681		       9d 08 23 	      STA	P0C0SHAD+1,X
   2963  d684		       a9 0e		      LDA	#WHITE
   2964  d686		       9d 09 23 	      STA	P0C0SHAD+2,X
   2965  d689		       ad bb e8    PINECOLR   LDA	VEGCOL1+17
   2966  d68c		       8d f0 23 	      STA	VEGCOLR+1
   2967  d68f		       ad e1 e8 	      LDA	VEGCOL3+17
   2968  d692		       8d 1e 23 	      STA	P0C0SHAD+23
   2969  d695		       ad ce e8 	      LDA	VEGCOL2+17
   2970  d698		       8d ef 23 	      STA	VEGCOLR
   2971  d69b		       60		      RTS
   2972  d69c
   2973  d69c
   2974  d69c				   SETTITLE
   2975  d69c		       20 ec eb 	      JSR	BACKMAP
   2976  d69f		       a2 09		      LDX	#9	;		       ;ZONE 9.
   2977  d6a1		       a9 a3		      LDA	#163	;		     ;COPYRIGHT ATARI AND NAMCO.
   2978  d6a3		       a0 0e		      LDY	#14
   2979  d6a5		       20 e5 e6 	      JSR	PUTTITLE
   2980  d6a8		       a2 0d		      LDX	#13	;		      ;ZONE 13.
   2981  d6aa		       a9 1d		      LDA	#29	;		      ;TOP OF DIGDUG LOGO.
   2982  d6ac		       a0 22		      LDY	#34
   2983  d6ae		       20 e5 e6 	      JSR	PUTTITLE
   2984  d6b1		       a2 0c		      LDX	#12	;		      ;ZONE 12.
   2985  d6b3		       a9 99		      LDA	#153	;		     ;BOTTOM OF DIGDUG LOGO.
   2986  d6b5		       a0 22		      LDY	#34
   2987  d6b7		       4c e5 e6 	      JMP	PUTTITLE
   2988  d6ba							;*;*;*       RTS
   2989  d6ba
   2990  d6ba							;*;*;*BONZDIFF  DC.B	   29,29,29,29,29,29,29,29
   2991  d6ba							;*;*;*       DC.B	29,29,29,29,29,29,29,29
   2992  d6ba							;*;*;*       DC.B	29,29,29,29,29,29,29,29
   2993  d6ba							;*;*;*       DC.B	29,29
   2994  d6ba
   2995  d6ba
   2996  d6ba							;-------- BUTTON INPUT ROUTINE;	   (FROM COLLISON FILE)
   2997  d6ba
   2998  d6ba
   2999  d6ba		       a2 00	   INPUT      LDX	#0
   3000  d6bc		       a4 87		      LDY	PLAYNUM
   3001  d6be							;*	    BEQ     INPUTGO
   3002  d6be							;*	    LDA     ALIEN
   3003  d6be							;*	    BNE     INPUTGO
   3004  d6be							;*	    DEY
   3005  d6be							;*INPUTGO
   3006  d6be		       b9 0c 00 	      LDA	INPT4,Y
   3007  d6c1		       30 0c		      BMI	INOUT
   3008  d6c3		       a5 ec		      LDA	PUMPCNT
   3009  d6c5		       f0 15		      BEQ	DOPUMP
   3010  d6c7		       e6 ec		      INC	PUMPCNT
   3011  d6c9		       c9 18		      CMP	#$18	;		     TIME DELAY FOR PUMPING
   3012  d6cb		       f0 09		      BEQ	DPUMPING
   3013  d6cd		       d0 02		      BNE	INOUT2
   3014  d6cf							;*	    LDA     #$00
   3015  d6cf							;*	    BEQ     INOUT2
   3016  d6cf				   INOUT
   3017  d6cf							;*	    LDA     #$00
   3018  d6cf							;*	    STA     PUMPCNT
   3019  d6cf		       86 ec		      STX	PUMPCNT
   3020  d6d1				   INOUT2
   3021  d6d1							;*	    STA     PUMPING
   3022  d6d1							;*	    STA     PUMP
   3023  d6d1		       86 eb		      STX	PUMPING
   3024  d6d3		       86 ea		      STX	PUMP
   3025  d6d5		       60		      RTS
   3026  d6d6				   DPUMPING
   3027  d6d6							;*	    LDA     #$01
   3028  d6d6							;*	    STA     PUMPING
   3029  d6d6							;*	    STA     PUMPCNT
   3030  d6d6		       e8		      INX
   3031  d6d7		       86 eb		      STX	PUMPING
   3032  d6d9		       86 ec		      STX	PUMPCNT
   3033  d6db		       60		      RTS
   3034  d6dc				   DOPUMP
   3035  d6dc							;*	    LDA     #$01
   3036  d6dc							;*	    STA     PUMP
   3037  d6dc							;*	    STA     PUMPCNT
   3038  d6dc		       e8		      INX
   3039  d6dd		       86 ea		      STX	PUMP
   3040  d6df		       86 ec		      STX	PUMPCNT
   3041  d6e1		       a4 7b		      LDY	PUMPIE
   3042  d6e3		       c8		      INY
   3043  d6e4		       f0 08		      BEQ	DOPEND
   3044  d6e6		       a5 b1		      LDA	PUMPCT
   3045  d6e8		       d0 04		      BNE	DOPEND
   3046  d6ea		       a9 10		      LDA	#$10
   3047  d6ec		       85 b1		      STA	PUMPCT
   3048  d6ee		       60	   DOPEND     RTS
   3049  d6ef
   3050  d6ef
   3051  d6ef		       32 be e0 48 TEDYPINE   DC.B	TEDDY,$BE,CSET1,72	;  ,0,0;	      ;(PALETTE 5).
   3052  d6f3							;*;*;*;*;*  FROM DDMOVE.S FILE
   3053  d6f3		       00	   YFROMPL    DC.B	$00	;			   ;	   ,$00,$00,$F4
   3054  d6f4
   3055  d6f4		       00 00 f4 00*YTOPL      DC.B	$00,$00,$F4,$00,$00,$00,$F4,$0C,$0C,$0C,$00,$11
   3056  d700		       00 00 e8 0c	      DC.B	$00,$00,$E8,$0C
   3057  d704		       0c 0c 00 17	      DC.B	$0C,$0C,$00,$17
   3058  d708
   3059  d708		       1a 27 24 10 DIRTCOLR   DC.B	YELLOW0,GOLD0,ORANG0,DKORANG0
   3060  d70c		       0a 15 1e 27	      DC.B	PALPURP1,PALBRWN1,YELLOW1,GOLD1
   3061  d710		       0a 15 b2 04	      DC.B	PALPURP2,PALBRWN2,PALTURQ2,DKPURP2
   3062  d714
   3063  d714		       38	   GHSTSUB2   SEC		;			      ;USED BY GHOSTONX AND CHKOTHER
   3064  d715		       e9 10		      SBC	#$10
   3065  d717		       a8		      TAY
   3066  d718		       b9 00 26 	      LDA	DIRTMAP,Y
   3067  d71b		       c9 24		      CMP	#CHARD12
   3068  d71d		       60		      RTS
   3069  d71e
   3070  d71e		       a5 ce	   SKYSUB     LDA	TEMP3	;		    ;USED BY SKY15 AND CHKDOWN
   3071  d720		       18		      CLC		;			      GET DIRT UNDER POSITION
   3072  d721		       69 10		      ADC	#$10
   3073  d723		       a8		      TAY
   3074  d724		       b9 00 26 	      LDA	DIRTMAP,Y
   3075  d727		       60		      RTS
   3076  d728
   3077  d728		       20 2b f4    GHSTSUB1   JSR	GETDIRT	;		  ;USED BY GHOSTONX AND MOVECONT
   3078  d72b		       84 ce		      STY	TEMP3	;		    ;	AND EACHMONS
   3079  d72d		       4c 9f f3 	      JMP	CHKOTHER	;		 ;CHKOTHER IS A SUBR
   3080  d730
   3081  d730		       a5 40	   SUB3       LDA	DDYPOS
   3082  d732		       18		      CLC
   3083  d733		       69 01		      ADC	#$01
   3084  d735		       4a		      LSR
   3085  d736		       4a		      LSR
   3086  d737		       a8		      TAY
   3087  d738		       b9 90 24 	      LDA	DIV3TAB,Y
   3088  d73b		       85 cc		      STA	TEMP1
   3089  d73d		       18		      CLC
   3090  d73e		       65 cc		      ADC	TEMP1
   3091  d740		       65 cc		      ADC	TEMP1
   3092  d742		       0a		      ASL
   3093  d743		       0a		      ASL
   3094  d744		       85 cc		      STA	TEMP1
   3095  d746		       a5 40		      LDA	DDYPOS
   3096  d748		       18		      CLC
   3097  d749		       69 01		      ADC	#$01
   3098  d74b		       38		      SEC
   3099  d74c		       e5 cc		      SBC	TEMP1
   3100  d74e		       60		      RTS
   3101  d74f
   3102  d74f		       02 01 04 03 CVTDIR     DC.B	$02,$01,$04,$03
   3103  d753							;*;*;*;*;*;*;*;*;*;*;*;*;*;*;*;*;*;*;*;*;*;*;*;*;*;*;*;*;*;*;*;*;*;*;*;*;*;*;*;*;*;*;*;*;*;*;*;*;*;*;*;*;*;*;*;*;*;*;*;*;*;*;*;*;*;*;*;*;*;*;*;*;*;*;*;*;*;*;*;*
   3104  d753							;*;*;*;*;*;*;*;*;*;*;*;							  ;*;*;*;*;*;*;*;*;*;*;*
   3105  d753							;*;*;*;*;*;*;*;*;*;*;*       DDMOVE:  CONTROLS ENTRY MODE IF DIGDUG IS;	  ;*;*;*;*;*;*;*;*;*;*;*
   3106  d753							;*;*;*;*;*;*;*;*;*;*;*;		JUST WALKING OUT ON SCREEN, AND 	  ;*;*;*;*;*;*;*;*;*;*;*
   3107  d753							;*;*;*;*;*;*;*;*;*;*;*;		HANDLES MOVING DIGDUG AND DIGGING	  ;*;*;*;*;*;*;*;*;*;*;*
   3108  d753							;*;*;*;*;*;*;*;*;*;*;*;		TUNNELS OTHERWISE.  ALSO CHECKS FOR	  ;*;*;*;*;*;*;*;*;*;*;*
   3109  d753							;*;*;*;*;*;*;*;*;*;*;*;		EXISTENCE OF ROCKS SO DIGDUG WON"T	  ;*;*;*;*;*;*;*;*;*;*;*
   3110  d753							;*;*;*;*;*;*;*;*;*;*;*;		RUN INTO THEM, AND SETS FALLING ROCK	  ;*;*;*;*;*;*;*;*;*;*;*
   3111  d753							;*;*;*;*;*;*;*;*;*;*;*;		FLAG WHEN DIRT UNDER A ROCK GOES AWAY.	  ;*;*;*;*;*;*;*;*;*;*;*
   3112  d753							;*;*;*;*;*;*;*;*;*;*;*;							  ;*;*;*;*;*;*;*;*;*;*;*
   3113  d753							;*;*;*;*;*;*;*;*;*;*;*;*;*;*;*;*;*;*;*;*;*;*;*;*;*;*;*;*;*;*;*;*;*;*;*;*;*;*;*;*;*;*;*;*;*;*;*;*;*;*;*;*;*;*;*;*;*;*;*;*;*;*;*;*;*;*;*;*;*;*;*;*;*;*;*;*;*;*;*;*
   3114  d753
   3115  d753
   3116  d753		       00 d5	   DHFASTL    EQU	$D5	;		      ;DD HOR SPEED FAST LOW BYTE
   3117  d753		       00 aa	   DHFASTH    EQU	$AA	;		      ;DD HOR SPEED FAST HIGH BYTE
   3118  d753		       00 52	   DHSLOWL    EQU	$52	;		      ;DD HOR SPEED SLOW LOW BYTE
   3119  d753		       00 52	   DHSLOWH    EQU	$52	;		      ;DD HOR SPEED SLOW HIGH BYTE
   3120  d753
   3121  d753		       00 5b	   DIGSLOW    EQU	$5B	;		      DIGDUG SLOW    5 BITS
   3122  d753							;	   FOR 16 BIT VERSION	   DIGSLOW = $5B $5B	 10 BITS
   3123  d753		       00 f7	   DIGFAST    EQU	$F7	;		      DUGDUG FAST    7 BITS
   3124  d753							;	   FOR 16 BIT VERSION	   DIGFAST = $7F $7F	 14 BITS
   3125  d753
   3126  d753
   3127  d753
   3128  d753				   DDMOVE
   3129  d753		       a9 ed		      LDA	#>SOUTH7	;	       ;ASSUME ALL ARRAYS ON SAME PAGE.
   3130  d755		       85 d0		      STA	DRTPTR+1
   3131  d757
   3132  d757		       a5 e1		      LDA	DIGGING
   3133  d759		       85 d2		      STA	DIGTEMP
   3134  d75b
   3135  d75b		       a5 a0		      LDA	ATTRACT
   3136  d75d		       f0 2d		      BEQ	CHKENTR
   3137  d75f
   3138  d75f		       a5 e3		      LDA	SQUASH
   3139  d761		       d0 62		      BNE	NOGO
   3140  d763
   3141  d763		       a6 80		      LDX	LASTMOVE
   3142  d765		       a5 f2		      LDA	DIGREST	;		  ;DIGDUG MOVING?
   3143  d767		       d0 0b		      BNE	ATNEWDIR
   3144  d769		       a5 a9		      LDA	ASTAGE	;		   ;STILL WALKING IN SAME DIRECTION?
   3145  d76b		       f0 07		      BEQ	ATNEWDIR
   3146  d76d		       c6 a9		      DEC	ASTAGE
   3147  d76f		       bd aa e2 	      LDA	JOYSWCH,X	;		; E,W,S,N   -	 7F,BF,DF,EF
   3148  d772		       d0 37		      BNE	GPREZJOY	;		 ; CONTINUE IN OLD DIR
   3149  d774		       20 6a d5    ATNEWDIR   JSR	RANDOM
   3150  d777		       29 03		      AND	#$03
   3151  d779		       69 00		      ADC	#$00
   3152  d77b		       85 a9		      STA	ASTAGE	;		   ;NEW COUNTDOWN
   3153  d77d		       29 03	   DOATDIR    AND	#$03
   3154  d77f		       a8		      TAY
   3155  d780		       b9 aa e2 	      LDA	JOYSWCH,Y
   3156  d783		       dd bb e2 	      CMP	REVSWCH,X
   3157  d786		       d0 23		      BNE	GPREZJOY
   3158  d788		       c8		      INY		;			      ;TRY NOT TO REVERSE
   3159  d789		       98		      TYA
   3160  d78a		       10 f1		      BPL	DOATDIR
   3161  d78c
   3162  d78c							;*	    LDY     ASTAGE;		    ;WE"RE IN ATTRACT MODE: USE ATTRACT
   3163  d78c							;*	    LDA     ATTDIREC,Y; 	    ;  MODE TABLE MOVEMENTS INSTEAD OF
   3164  d78c							;*	    BPL     AHORIZ;		    ;  READING JOYSTICK.
   3165  d78c							;*	    ASL
   3166  d78c							;*	    BPL     AHORIZ
   3167  d78c							;*	    LDA     DDYPOS;		    ;UP OR DOWN: CHECK Y POSITION.
   3168  d78c							;*	    BNE     CHKBOUND
   3169  d78c							;*AHORIZ    LDA     DDXPOS;		     ;LEFT OR RIGHT: CHECK X POSITION.
   3170  d78c							;*CHKBOUND  CMP     ATTBOUND,Y
   3171  d78c							;*	    BNE     GOTDIREC
   3172  d78c							;*;*;*B      CPY     #15;		      ;DIGDUG NOT DEAD YET: RECYCLE DIREC"S.
   3173  d78c							;*;*;*B      BCC     NEWDIREC
   3174  d78c							;*;*;*B      LDY     #3
   3175  d78c							;*NEWDIREC  INY;			     ;TURN TO NEW DIRECTION.
   3176  d78c							;*	    STY     ASTAGE
   3177  d78c							;*GOTDIREC;				     ;EVENTUALLY, PUMP CHECK WILL GO HERE.
   3178  d78c							;*	    LDA     ATTDIREC,Y
   3179  d78c							;*	    BNE     GPREZJOY
   3180  d78c
   3181  d78c		       a5 85	   CHKENTR    LDA	ENTRY	;		    ;ARE WE IN ENTRY MODE?
   3182  d78e		       f0 3c		      BEQ	JOYMOVE
   3183  d790
   3184  d790		       a5 53		      LDA	DDXPOS
   3185  d792		       c9 60		      CMP	#DDSTRTX
   3186  d794		       d0 09		      BNE	NOENTRY
   3187  d796		       a0 00		      LDY	#0
   3188  d798		       84 a8		      STY	NONOISE
   3189  d79a		       a0 13		      LDY	#SNG15
   3190  d79c		       20 ef fd 	      JSR	NOISE
   3191  d79f
   3192  d79f		       a5 40	   NOENTRY    LDA	DDYPOS	;		   ;HAS DIGDUG STARTED DOWN YET?
   3193  d7a1		       c9 bf		      CMP	#DDSTRTY
   3194  d7a3		       d0 08		      BNE	DOWNDD
   3195  d7a5		       a9 bf		      LDA	#$BF	;		     ;MOVE DIGDUG LEFT.
   3196  d7a7		       a6 53		      LDX	DDXPOS
   3197  d7a9		       e0 38		      CPX	#DDMIDLX	;		 ;ARE WE FAR ENOUGH LEFT YET?
   3198  d7ab		       d0 49	   GPREZJOY   BNE	PREZJOY
   3199  d7ad
   3200  d7ad		       c9 6b	   DOWNDD     CMP	#DDMIDLY	;		 ;ALL THE WAY DOWN?
   3201  d7af		       d0 10		      BNE	WDOWN
   3202  d7b1		       a9 02		      LDA	#RDIGDUG2
   3203  d7b3		       85 66		      STA	DDINDX
   3204  d7b5		       a9 28		      LDA	#40
   3205  d7b7		       20 33 dd 	      JSR	GENFREEZ
   3206  d7ba		       a9 00		      LDA	#0
   3207  d7bc		       85 85		      STA	ENTRY
   3208  d7be							;*	    STA     LASTMOVE;		    ;FAKE LAST DIRECTION
   3209  d7be							;*	    STA     NOTGRID
   3210  d7be							;*	    LDA     #$B5
   3211  d7be							;*	    STA     PROPORT
   3212  d7be							;*	    JMP     SETDFAST
   3213  d7be							;*	    RTS
   3214  d7be		       4c b9 d4 	      JMP	DOSTART	;		  ;DOSTART IS A SUBR
   3215  d7c1		       a9 df	   WDOWN      LDA	#$DF
   3216  d7c3		       d0 31		      BNE	PREZJOY
   3217  d7c5
   3218  d7c5							;*;*;*;*MOVEDONE  RTS
   3219  d7c5
   3220  d7c5							;*FOO	     DC.B      $7F,$DF,$BF,$EF,$7F    ; E,S,W,N,E  (IN ARRAYS.S)
   3221  d7c5							;*BAR	     DC.B      $20,$40,$10,$90	      ; S,W,N,NE
   3222  d7c5
   3223  d7c5		       a5 ed	   NOGO       LDA	WALKING
   3224  d7c7		       f0 02		      BEQ	NOGO2
   3225  d7c9		       c6 ed		      DEC	WALKING	;		  ;DIGDUG CAN"T OR WON"T MOVE
   3226  d7cb		       60	   NOGO2      RTS
   3227  d7cc
   3228  d7cc				   JOYMOVE
   3229  d7cc							;*	    LDA     WALKING
   3230  d7cc							;*	    STA     DTEMP1;		    ;SAVE FOR LATER...
   3231  d7cc		       a5 e3		      LDA	SQUASH
   3232  d7ce		       05 ee		      ORA	FREEZE
   3233  d7d0		       d0 f3		      BNE	NOGO
   3234  d7d2		       ad 80 02 	      LDA	SWCHA	;		    ;READ JOYSTICK...
   3235  d7d5
   3236  d7d5		       a6 87		      LDX	PLAYNUM
   3237  d7d7		       f0 04		      BEQ	JOYMOVE0
   3238  d7d9
   3239  d7d9							;*	    LDX     ALIEN;		    ;IF THERE IS ONLY ONE JOYSTICK,
   3240  d7d9							;*	    BEQ     JOYMOVE0;		    ; USE PLAYER 0 INPUT FOR PLAYER 1.
   3241  d7d9
   3242  d7d9		       0a		      ASL		;			;FETCH SECOND USER"S INPUT
   3243  d7da		       0a		      ASL
   3244  d7db		       0a		      ASL
   3245  d7dc		       0a		      ASL
   3246  d7dd
   3247  d7dd		       09 0f	   JOYMOVE0   ORA	#$0F
   3248  d7df		       c9 ff		      CMP	#$FF
   3249  d7e1		       f0 13		      BEQ	JOYMOVE1
   3250  d7e3		       a2 0a		      LDX	#$0A	;		     ;TWEAKABLE; <8 STOPS DD SONG REVERSING
   3251  d7e5		       86 ed		      STX	WALKING
   3252  d7e7
   3253  d7e7		       a2 06		      LDX	#6
   3254  d7e9		       a8		      TAY
   3255  d7ea		       3d ad e2    FOOLOOP    AND	BAR-1,X
   3256  d7ed		       f0 04		      BEQ	FOODONE
   3257  d7ef		       98		      TYA
   3258  d7f0		       ca		      DEX
   3259  d7f1		       d0 f7		      BNE	FOOLOOP
   3260  d7f3		       bd b4 e2    FOODONE    LDA	FOO,X
   3261  d7f6
   3262  d7f6							;;*	    AND     #$10;		    ; N?
   3263  d7f6							;;*	    BEQ     FOODONE
   3264  d7f6							;;*	    DEX
   3265  d7f6							;;*	    TYA
   3266  d7f6							;;*	    AND     #$40;		    ; W?
   3267  d7f6							;;*	    BEQ     FOODONE
   3268  d7f6							;;*	    DEX
   3269  d7f6							;;*	    TYA
   3270  d7f6							;;*	    AND     #$20;		    ; S?
   3271  d7f6							;;*	    BEQ     FOODONE
   3272  d7f6							;;*	    DEX;			    ; MUST BE EAST
   3273  d7f6							;*FOODONE   LDA     FOO,X
   3274  d7f6
   3275  d7f6							;;;	   STA	   TEMP+10;		   ;JOYSTICK REQUEST
   3276  d7f6							;;;	   LDX	   LASTMOVE
   3277  d7f6							;;;	   LDA	   JOYSWCH,X
   3278  d7f6							;;;	   EOR	   #$FF;		   ;RESULT IS BIT SET WHERE DD LAST MOVED
   3279  d7f6							;;;	   BIT	   TEMP+10
   3280  d7f6							;;;	   BNE	   NEWDIR;		   ;OLDDIR AMONG DIRS REQUESTED?
   3281  d7f6
   3282  d7f6							;;;	   ORA	   TEMP+10;		   ; !!!!! USE NEWDIR
   3283  d7f6							;;;	   CMP	   #$FF;		   ; !!!!! USE NEWDIR
   3284  d7f6
   3285  d7f6							;*	    LDA     JOYSWCH,X;		    ; !!!!! USE OLDDIR
   3286  d7f6
   3287  d7f6							;;;	   BNE	   JOYMOVE1
   3288  d7f6							;;;NEWDIR    LDY     #3
   3289  d7f6							;;;SWCHLOOP  LDA     TEMP+10;		      ;JOYSTICK REQUEST
   3290  d7f6							;;;	   CMP	   JOYSWCH,Y
   3291  d7f6							;;;	   BEQ	   JOYMOVE1;		   ;IF ONE BIT IS LOW, USE IT
   3292  d7f6							;;;	   DEY
   3293  d7f6							;;;	   BPL	   SWCHLOOP
   3294  d7f6							;;;	   ORA	   AREVSWCH,X;		   ;IF TWO BITS ARE LOW, MOVE 90 DEGREES
   3295  d7f6
   3296  d7f6							;*	    LDA     REVSWCH,X;		    ;IF TWO BITS ARE LOW, MOVE IN REVERSE
   3297  d7f6
   3298  d7f6				   JOYMOVE1
   3299  d7f6
   3300  d7f6		       e6 f2	   PREZJOY    INC	DIGREST	;		  ;GETS CLEARED IF DD TRIES TO MOVE
   3301  d7f8		       a6 80	   ZJOY       LDX	LASTMOVE
   3302  d7fa		       a0 00		      LDY	#0
   3303  d7fc		       0a		      ASL
   3304  d7fd		       90 02		      BCC	GOMDDE
   3305  d7ff		       c8	   ZJOY0      INY
   3306  d800		       0a		      ASL
   3307  d801		       90 7b	   GOMDDE     BCC	MDDE
   3308  d803		       c8	   ZJOY1      INY
   3309  d804		       0a		      ASL
   3310  d805		       90 04		      BCC	MDDN
   3311  d807		       c8		      INY
   3312  d808		       0a		      ASL
   3313  d809		       b0 ba		      BCS	NOGO
   3314  d80b				   MDDN
   3315  d80b		       a5 53		      LDA	DDXPOS	;		   ;COLUMN BORDER?
   3316  d80d		       29 07		      AND	#$07
   3317  d80f		       f0 05		      BEQ	COLBORDN
   3318  d811		       bd aa e2 	      LDA	JOYSWCH,X	;		;TRY PREVIOUS DIRECTION
   3319  d814		       d0 e2		      BNE	ZJOY
   3320  d816
   3321  d816		       bd aa e2    COLBORDN   LDA	JOYSWCH,X
   3322  d819		       06 b0		      ASL	DIGSPEED	;		 ;TIME TO MOVE?
   3323  d81b		       b0 07		      BCS	NTIME
   3324  d81d		       d9 bb e2 	      CMP	REVSWCH,Y	;		;ALWAYS MOVE IF REVERSING
   3325  d820		       d0 69		      BNE	NOTREST
   3326  d822		       f0 02		      BEQ	NREV
   3327  d824							;*	    CMP     JOYSWCH,Y;		    ;ALWAYS MOVE IF DIFF DIRECTION
   3328  d824							;*	    BEQ     NOTREST
   3329  d824		       e6 b0	   NTIME      INC	DIGSPEED
   3330  d826		       84 80	   NREV       STY	LASTMOVE
   3331  d828		       d9 aa e2 	      CMP	JOYSWCH,Y	;		;TUNNEL SPEED AND NO HARPOON
   3332  d82b		       f0 06		      BEQ	STILLN	;		   ; IF CHANGING DIRECTION
   3333  d82d		       a9 00		      LDA	#0
   3334  d82f		       85 d2		      STA	DIGTEMP
   3335  d831		       f0 06		      BEQ	DOANIMN
   3336  d833		       06 8a	   STILLN     ASL	PROPORT3	;		 ;TIME TO DO VERT ANIMATION?
   3337  d835		       90 05		      BCC	RUBN
   3338  d837		       e6 8a		      INC	PROPORT3
   3339  d839		       20 c4 e0    DOANIMN    JSR	ANIM	;		     ;UPDATE STAMP INDEX
   3340  d83c
   3341  d83c		       20 09 da    RUBN       JSR	CHKROCK	;		  ;AGAINST ROCK?
   3342  d83f		       30 11		      BMI	RUBN3
   3343  d841		       c0 02		      CPY	#2	;		       ;MOVING SOUTH?
   3344  d843		       d0 06		      BNE	RUBN2
   3345  d845		       b5 c3		      LDA	TUMBLE,X
   3346  d847		       c9 07		      CMP	#7	;		       ;DD CAN MOVE SOUTH THROUGH CRUMBLE
   3347  d849		       b0 07		      BCS	RUBN3
   3348  d84b		       a9 00	   RUBN2      LDA	#0
   3349  d84d		       85 d2		      STA	DIGTEMP
   3350  d84f		       4c c4 d9 	      JMP	FINMOV1
   3351  d852
   3352  d852		       a6 40	   RUBN3      LDX	DDYPOS
   3353  d854
   3354  d854		       98		      TYA
   3355  d855		       4a		      LSR
   3356  d856		       90 14		      BCC	DIGS	;		     ;DIG SOUTH
   3357  d858		       e8		      INX
   3358  d859		       ec bb ea 	      CPX	TOPZONE+15	;	       ;AT UPPERMOST LIMIT?
   3359  d85c		       90 13		      BCC	NOTTOP
   3360  d85e		       ad c3 e1 	      LDA	DANIMS+0	;		 ;FACE RIGHT
   3361  d861		       85 66		      STA	DDINDX
   3362  d863		       a9 bf		      LDA	#191
   3363  d865		       85 40		      STA	DDYPOS
   3364  d867		       a0 00		      LDY	#0	;		       ;FAKE LAST DIRECTION
   3365  d869		       84 80		      STY	LASTMOVE
   3366  d86b		       60		      RTS
   3367  d86c
   3368  d86c		       e0 17	   DIGS       CPX	#23
   3369  d86e		       f0 db		      BEQ	RUBN2
   3370  d870		       ca		      DEX
   3371  d871
   3372  d871		       86 40	   NOTTOP     STX	DDYPOS	;		   ;STORE NEW VERT VALUE
   3373  d873		       8a		      TXA		;			      ;NEW VERT VALUE
   3374  d874		       38		      SEC
   3375  d875		       e9 0c	   GETNOFST   SBC	#12
   3376  d877		       c9 0c		      CMP	#12
   3377  d879		       b0 fa		      BCS	GETNOFST
   3378  d87b
   3379  d87b		       4c d8 d8 	      JMP	FINVERT
   3380  d87e
   3381  d87e
   3382  d87e				   MDDE
   3383  d87e		       20 55 c3 	      JSR	ROWHERE	;		  ;ROW BORDER?
   3384  d881		       f0 0d		      BEQ	ROWBORDE
   3385  d883		       a6 80		      LDX	LASTMOVE
   3386  d885		       bd aa e2 	      LDA	JOYSWCH,X	;		;TRY PREVIOUS DIRECTION
   3387  d888		       4c f8 d7 	      JMP	ZJOY
   3388  d88b
   3389  d88b		       a9 00	   NOTREST    LDA	#0
   3390  d88d		       85 f2		      STA	DIGREST
   3391  d88f		       60	   GLVDIRTN   RTS
   3392  d890
   3393  d890		       a6 80	   ROWBORDE   LDX	LASTMOVE
   3394  d892		       bd aa e2 	      LDA	JOYSWCH,X
   3395  d895		       0e 2f 23 	      ASL	DHORSPDL	;		 ;ALRIGHT TO MOVE HORIZONTALLY?
   3396  d898		       2e 30 23 	      ROL	DHORSPDH
   3397  d89b		       b0 07		      BCS	ETIME
   3398  d89d		       d9 bb e2 	      CMP	REVSWCH,Y	;		;ALWAYS MOVE IF REVERSING
   3399  d8a0		       d0 e9		      BNE	NOTREST
   3400  d8a2		       f0 03		      BEQ	EREV
   3401  d8a4							;*	    CMP     JOYSWCH,Y;		    ;ALWAYS MOVE IF DIFF DIRECTION
   3402  d8a4							;*	    BEQ     NOTREST
   3403  d8a4		       ee 2f 23    ETIME      INC	DHORSPDL
   3404  d8a7		       84 80	   EREV       STY	LASTMOVE
   3405  d8a9		       d9 aa e2 	      CMP	JOYSWCH,Y	;		;TUNNEL SPEED AND NO HARPOON
   3406  d8ac		       f0 04		      BEQ	STILLE	;		   ; IF CHANGING DIRECTION
   3407  d8ae		       a9 00		      LDA	#0
   3408  d8b0		       85 d2		      STA	DIGTEMP
   3409  d8b2		       20 c4 e0    STILLE     JSR	ANIM	;		     ;UPDATE STAMP INDEX
   3410  d8b5
   3411  d8b5		       20 09 da 	      JSR	CHKROCK	;		  ;AGAINST ROCK?
   3412  d8b8		       10 91		      BPL	RUBN2
   3413  d8ba
   3414  d8ba		       a6 53		      LDX	DDXPOS
   3415  d8bc
   3416  d8bc		       98		      TYA
   3417  d8bd		       4a		      LSR
   3418  d8be		       b0 07		      BCS	DIGW	;		     ;DIG WEST
   3419  d8c0
   3420  d8c0		       e0 70		      CPX	#112
   3421  d8c2		       f0 87		      BEQ	RUBN2
   3422  d8c4		       e8		      INX
   3423  d8c5		       d0 05		      BNE	NOTSID
   3424  d8c7
   3425  d8c7		       e0 08	   DIGW       CPX	#8
   3426  d8c9		       f0 80		      BEQ	RUBN2
   3427  d8cb		       ca		      DEX
   3428  d8cc
   3429  d8cc		       86 53	   NOTSID     STX	DDXPOS	;		   ;STORE NEW HOR VALUE
   3430  d8ce		       8a		      TXA
   3431  d8cf		       29 f8		      AND	#$F8
   3432  d8d1		       85 cc		      STA	TEMP
   3433  d8d3		       a5 53		      LDA	DDXPOS
   3434  d8d5		       38		      SEC
   3435  d8d6		       e5 cc		      SBC	TEMP
   3436  d8d8
   3437  d8d8		       a2 01	   FINVERT    LDX	#1
   3438  d8da		       86 e4		      STX	NOTGRID
   3439  d8dc		       20 e2 d8 	      JSR	DIGDISP
   3440  d8df		       4c 89 d9 	      JMP	FINMOV
   3441  d8e2
   3442  d8e2
   3443  d8e2		       d9 dd e1    DIGDISP    CMP	VPRE1,Y
   3444  d8e5		       f0 0a		      BEQ	VANHARP
   3445  d8e7		       d9 d9 e1 	      CMP	VPRE2,Y
   3446  d8ea		       f0 05		      BEQ	VANHARP
   3447  d8ec		       d9 e5 e1 	      CMP	VPRE3,Y
   3448  d8ef		       d0 05		      BNE	DIGONE
   3449  d8f1		       a9 0c	   VANHARP    LDA	#12
   3450  d8f3		       4c 42 c3 	      JMP	CHKNXTD	;		  ;CHKNXTD IS A SUBR
   3451  d8f6
   3452  d8f6		       d9 cf e1    DIGONE     CMP	VONE,Y
   3453  d8f9		       d0 3e		      BNE	GETN1	;		    ; 1 IN
   3454  d8fb
   3455  d8fb		       b9 b3 e1 	      LDA	FROMXFM,Y
   3456  d8fe		       85 cf		      STA	DRTPTR
   3457  d900		       a5 40		      LDA	DDYPOS	;		   ;FROM
   3458  d902		       18		      CLC
   3459  d903		       79 f3 d6 	      ADC	YFROMPL,Y
   3460  d906		       aa		      TAX
   3461  d907		       a5 53		      LDA	DDXPOS
   3462  d909		       18		      CLC
   3463  d90a		       79 dc e0 	      ADC	XFROMPL,Y
   3464  d90d
   3465  d90d		       20 0a c3 	      JSR	CALCINDX
   3466  d910		       c9 24		      CMP	#36
   3467  d912		       b0 03		      BCS	DIGONE2
   3468  d914		       20 43 fd 	      JSR	BORE1	;		    ;FOUND IN FALL FILE
   3469  d917				   DIGONE2		;				 ;TO
   3470  d917		       a9 00		      LDA	#0
   3471  d919		       85 d2		      STA	DIGTEMP
   3472  d91b		       a4 80		      LDY	LASTMOVE
   3473  d91d		       b9 bb e1 	      LDA	ENTRXFM,Y
   3474  d920		       85 cf		      STA	DRTPTR
   3475  d922		       20 e9 e1 	      JSR	ADJUSTTO
   3476  d925		       20 0a c3 	      JSR	CALCINDX
   3477  d928		       c9 24		      CMP	#36
   3478  d92a		       b0 0a		      BCS	DIGONE3
   3479  d92c		       48		      PHA
   3480  d92d		       b9 b7 e1 	      LDA	TOXFM,Y
   3481  d930		       85 cf		      STA	DRTPTR
   3482  d932		       68		      PLA
   3483  d933		       4c 43 fd 	      JMP	BORE1	;		    ;FOUND IN FALL FILE  (BORE1 IS A SUBR)
   3484  d936				   DIGONE3
   3485  d936		       4c 22 c3 	      JMP	DIGGER	;		   ;DIGGER IS A SUBR
   3486  d939
   3487  d939		       d9 d6 e1    GETN1      CMP	VHALF,Y
   3488  d93c		       d0 16		      BNE	GETN2	;		    ; 1 PAST HALFWAY IN
   3489  d93e
   3490  d93e				   DIGHALF
   3491  d93e		       a9 00		      LDA	#0
   3492  d940		       85 d2		      STA	DIGTEMP
   3493  d942		       b9 af e1 	      LDA	HALFXFM,Y
   3494  d945		       85 cf		      STA	DRTPTR
   3495  d947		       20 e9 e1 	      JSR	ADJUSTTO	;		 ;TAKE LEADING EDGE
   3496  d94a		       20 0a c3 	      JSR	CALCINDX	;		 ;CALC DIRCHAR
   3497  d94d		       c9 24		      CMP	#36
   3498  d94f		       90 1c		      BCC	GETN3
   3499  d951		       4c 22 c3 	      JMP	DIGGER	;		   ;DIGGER IS A SUBR
   3500  d954
   3501  d954		       d9 d2 e1    GETN2      CMP	VBOUND,Y
   3502  d957		       d0 14		      BNE	GETN3
   3503  d959
   3504  d959		       20 55 c3    DIGBOUND   JSR	ROWHERE
   3505  d95c		       d0 0f		      BNE	DIGBND2
   3506  d95e		       a5 53		      LDA	DDXPOS
   3507  d960		       29 07		      AND	#7
   3508  d962		       d0 09		      BNE	DIGBND2
   3509  d964		       a9 04		      LDA	#4
   3510  d966		       20 42 c3 	      JSR	CHKNXTD
   3511  d969		       b0 02		      BCS	DIGBND2
   3512  d96b		       85 e4		      STA	NOTGRID	;		  ;WHEN CARRY CLR, CHKNXTD SET A TO BE 0
   3513  d96d				   DIGBND2
   3514  d96d		       60	   GETN3      RTS
   3515  d96e
   3516  d96e		       a5 80	   BETTY      LDA	LASTMOVE
   3517  d970		       09 0c		      ORA	#$0C
   3518  d972		       a8		      TAY
   3519  d973		       20 09 da 	      JSR	CHKROCK	;		  ;DIGDUG ONE PIXEL INTO SQUARE
   3520  d976		       30 4c		      BMI	FINMOV1	;		  ;   UNDER ROCK?
   3521  d978		       b5 c3		      LDA	TUMBLE,X	;		 ;ROCK NOT ALREADY FALLING?
   3522  d97a		       d0 48		      BNE	FINMOV1
   3523  d97c		       86 d6		      STX	TEMP+10	;		  ;SAVE ROCK INDEX
   3524  d97e		       20 00 c3 	      JSR	ROCKPUSH	;		 ;SQUARE UNDER ROCK HAS HOLLOW CENTER?
   3525  d981		       a6 d6		      LDX	TEMP+10	;		  ;RESTORE ROCK INDEX
   3526  d983		       c9 24		      CMP	#36
   3527  d985		       b0 3d		      BCS	FINMOV1
   3528  d987		       90 2e		      BCC	CHKFALL1	;		 ;ROCK SHOULD FALL WHEN DD REVERSES
   3529  d989
   3530  d989				   FINMOV		;				 ;DO THIS STUFF ONLY IF DIGDUG MOVES
   3531  d989
   3532  d989		       a9 00		      LDA	#0
   3533  d98b		       85 f2		      STA	DIGREST
   3534  d98d		       a4 e5		      LDY	NEEDDIR	;		  ; DIGDUG HOLDING UP ROCK?
   3535  d98f		       f0 11		      BEQ	CHKFALL
   3536  d991		       30 05		      BMI	STRTFALL	;		 ; FF MEANS ANY MOVE WILL CAUSE FALL
   3537  d993		       88		      DEY		;			      ; TRUE DIRECTION NEEDED
   3538  d994		       c4 80		      CPY	LASTMOVE	;		 ; WILL CURRENT DIR CAUSE FALL?
   3539  d996		       d0 0a		      BNE	CHKFALL
   3540  d998		       a6 cb	   STRTFALL   LDX	HITROCK
   3541  d99a		       a9 02		      LDA	#ONEDGE
   3542  d99c		       95 c3		      STA	TUMBLE,X
   3543  d99e		       a9 00		      LDA	#0
   3544  d9a0		       85 e5		      STA	NEEDDIR
   3545  d9a2
   3546  d9a2		       a5 80	   CHKFALL    LDA	LASTMOVE
   3547  d9a4		       09 04		      ORA	#$04
   3548  d9a6		       a8		      TAY
   3549  d9a7		       20 09 da 	      JSR	CHKROCK
   3550  d9aa		       10 0b		      BPL	CHKFALL1
   3551  d9ac		       a0 03		      LDY	#3
   3552  d9ae		       20 09 da 	      JSR	CHKROCK	;		  ;UNDER ROCK?
   3553  d9b1		       30 bb		      BMI	BETTY
   3554  d9b3		       a9 ff		      LDA	#$FF
   3555  d9b5		       30 05		      BMI	CHKFALL2
   3556  d9b7		       a4 80	   CHKFALL1   LDY	LASTMOVE
   3557  d9b9		       b9 4f d7 	      LDA	CVTDIR,Y
   3558  d9bc		       b4 c3	   CHKFALL2   LDY	TUMBLE,X	;		 ;IGNORE ROCK ALREADY FALLING
   3559  d9be		       d0 04		      BNE	FINMOV1
   3560  d9c0		       85 e5		      STA	NEEDDIR
   3561  d9c2		       86 cb		      STX	HITROCK
   3562  d9c4
   3563  d9c4
   3564  d9c4		       a4 80	   FINMOV1    LDY	LASTMOVE	;		 ;DO THIS IF DIGTEMP CHANGED
   3565  d9c6		       a5 d2		      LDA	DIGTEMP
   3566  d9c8		       c5 e1		      CMP	DIGGING	;		  ;CHANGE IN SPEED REQUESTED?
   3567  d9ca		       f0 13		      BEQ	FINMOV4
   3568  d9cc		       85 e1		      STA	DIGGING
   3569  d9ce		       aa		      TAX
   3570  d9cf		       f0 14		      BEQ	FINMOV2
   3571  d9d1		       a2 52		      LDX	#DHSLOWL
   3572  d9d3		       8e 2f 23 	      STX	DHORSPDL
   3573  d9d6		       a2 52		      LDX	#DHSLOWH
   3574  d9d8		       8e 30 23 	      STX	DHORSPDH
   3575  d9db		       a2 5b		      LDX	#DIGSLOW
   3576  d9dd		       86 b0		      STX	DIGSPEED
   3577  d9df		       aa	   FINMOV4    TAX
   3578  d9e0		       f0 06		      BEQ	FINMOV3
   3579  d9e2		       4c ee d9 	      JMP	HARP	;		     ;HARP IS A SUBR
   3580  d9e5		       20 4d c2    FINMOV2    JSR	SETDFAST
   3581  d9e8		       20 c8 f7    FINMOV3    JSR	VANPUMP	;		  ;RETURNS  0 IN A
   3582  d9eb		       85 4f	   FINMOV5    STA	PUMPY
   3583  d9ed		       60	   LEAVDIRT   RTS
   3584  d9ee
   3585  d9ee		       a4 80	   HARP       LDY	LASTMOVE
   3586  d9f0		       b9 bf e1 	      LDA	HARPSTMP,Y
   3587  d9f3		       85 75		      STA	PUMPIX
   3588  d9f5		       a5 53		      LDA	DDXPOS
   3589  d9f7		       18		      CLC
   3590  d9f8		       79 5c c2 	      ADC	HARPXPL,Y
   3591  d9fb		       85 62		      STA	PUMPX
   3592  d9fd		       a5 40		      LDA	DDYPOS
   3593  d9ff		       18		      CLC
   3594  da00		       79 5e c2 	      ADC	HARPYPL,Y
   3595  da03		       c9 17		      CMP	#MINDDY
   3596  da05		       90 e1		      BCC	FINMOV3
   3597  da07		       b0 e2		      BCS	FINMOV5
   3598  da09
   3599  da09							;  USES X AND A.
   3600  da09							;  IF WAY CLEAR, RETURNS MINUS.
   3601  da09							;  IF WAY BLOCKED, RETURNS PLUS AND ROCK INDEX IN X.
   3602  da09		       a5 53	   CHKROCK    LDA	DDXPOS	;		   ;ADJUST FOR DIRECTION
   3603  da0b		       18		      CLC
   3604  da0c		       79 e1 e0 	      ADC	XTOPL+4,Y
   3605  da0f		       85 d3		      STA	TEMP+7
   3606  da11		       a5 40		      LDA	DDYPOS
   3607  da13		       18		      CLC
   3608  da14		       79 f8 d6 	      ADC	YTOPL+4,Y
   3609  da17		       85 cd		      STA	TEMP+1
   3610  da19		       a2 04		      LDX	#4
   3611  da1b
   3612  da1b		       a5 d3	   ROCKER     LDA	TEMP+7	;		   ;HOR COORDINATES MATCH?
   3613  da1d		       d5 5c		      CMP	ROCKSX,X
   3614  da1f		       d0 43		      BNE	NROCKY
   3615  da21
   3616  da21		       b5 6f		      LDA	ROCKSIX,X	;		;IGNORE ROCK AS SCORE
   3617  da23		       c9 b2		      CMP	#LOWSCOR
   3618  da25		       b0 3d		      BCS	NROCKY
   3619  da27
   3620  da27		       a5 cd		      LDA	TEMP+1	;		   ;VERT COORDINATES MATCH?
   3621  da29		       d5 49		      CMP	ROCKSY,X
   3622  da2b		       f0 34		      BEQ	BLOCKED
   3623  da2d							;
   3624  da2d							;  LET"S RECONSIDER....
   3625  da2d							;
   3626  da2d		       b5 c3		      LDA	TUMBLE,X	;		 ;FALLING?
   3627  da2f		       f0 33		      BEQ	NROCKY
   3628  da31		       a5 80		      LDA	LASTMOVE	;		 ;DIGDUG MOVING HORIZONTALLY?
   3629  da33		       29 02		      AND	#$02
   3630  da35		       d0 2d		      BNE	NROCKY
   3631  da37		       b5 49		      LDA	ROCKSY,X	;		 ;ROCK OVERLAPS DIGDUG VERTICALLY?
   3632  da39		       18		      CLC
   3633  da3a							;*	    ADC     #6; 		    ;TWEAK??
   3634  da3a		       69 07		      ADC	#7
   3635  da3c							;*	    SEC
   3636  da3c		       e5 cd		      SBC	TEMP+1
   3637  da3e		       90 24		      BCC	NROCKY
   3638  da40		       c9 11		      CMP	#17
   3639  da42		       b0 20		      BCS	NROCKY
   3640  da44		       a5 40		      LDA	DDYPOS
   3641  da46		       c9 17		      CMP	#23	;		      ;DIGDUG ON BOTTOM ROW?
   3642  da48		       f0 17		      BEQ	BLOCKED
   3643  da4a		       86 d5		      STX	TEMP+9	;		   ;SAVE X
   3644  da4c		       a5 40		      LDA	DDYPOS
   3645  da4e		       38		      SEC
   3646  da4f		       e9 0c		      SBC	#12
   3647  da51		       aa		      TAX		;			      ;WHAT KIND OF DIRT CHAR IS BELOW ROCK?
   3648  da52		       a5 d3		      LDA	TEMP+7
   3649  da54		       20 0a c3 	      JSR	CALCINDX
   3650  da57		       a6 d5		      LDX	TEMP+9	;		   ;RESTORE X
   3651  da59		       c9 24		      CMP	#36	;		      ;SOLID
   3652  da5b		       f0 04		      BEQ	BLOCKED
   3653  da5d		       c9 2c		      CMP	#44	;		      ;CUP
   3654  da5f		       d0 03		      BNE	NROCKY
   3655  da61		       a9 00	   BLOCKED    LDA	#$00	;		     ;ROCK FOUND
   3656  da63		       60		      RTS
   3657  da64		       ca	   NROCKY     DEX
   3658  da65		       10 b4		      BPL	ROCKER
   3659  da67		       60	   ENDEAT     RTS
   3660  da68
   3661  da68		       a5 e6	   EATVEG     LDA	FSCORE	;		   ;FRUIT SCORE PRESENT?
   3662  da6a		       f0 0a		      BEQ	EATVEG1
   3663  da6c		       c6 e7		      DEC	FSCORCTR
   3664  da6e		       d0 f7		      BNE	ENDEAT
   3665  da70		       a9 00		      LDA	#0
   3666  da72		       85 e6		      STA	FSCORE
   3667  da74		       85 52		      STA	FRUITY	;		   ;STOP DISPLAYING SCORE
   3668  da76		       a5 f1	   EATVEG1    LDA	FRUIT	;		    ;FRUIT PRESENT?
   3669  da78		       c9 0f		      CMP	#$0F
   3670  da7a		       90 eb		      BCC	ENDEAT
   3671  da7c		       a5 40		      LDA	DDYPOS	;		   ;DIGDUG ON TOP OF FRUIT?
   3672  da7e		       c9 6b		      CMP	#$6B
   3673  da80		       d0 e5		      BNE	ENDEAT
   3674  da82		       a5 53		      LDA	DDXPOS
   3675  da84		       c9 38		      CMP	#$38
   3676  da86		       d0 df		      BNE	ENDEAT
   3677  da88		       a2 01		      LDX	#$01	;		     ;POINTS DISPLAYING FLAG
   3678  da8a		       86 e6		      STX	FSCORE
   3679  da8c		       ca		      DEX
   3680  da8d		       86 f1		      STX	FRUIT	;		    ;FRUIT DONE
   3681  da8f		       a9 30		      LDA	#$30	;		     ;SET SCORE DISPLAY TIMER
   3682  da91		       85 e7		      STA	FSCORCTR
   3683  da93		       a5 88		      LDA	BONZO	;		    ;BONZO?
   3684  da95		       d0 0a		      BNE	EATVEG2	;		  ;ASSUME X IS 0
   3685  da97		       a4 87		      LDY	PLAYNUM
   3686  da99		       b6 9b		      LDX	RACKNUM,Y	;		;CALC CORRECT POINT VALUE
   3687  da9b		       e0 13		      CPX	#19
   3688  da9d		       90 02		      BCC	EATVEG2
   3689  da9f		       a2 12		      LDX	#18	;		      ;RACKS ABOVE 18 ARE ALL PINEAPPLES
   3690  daa1		       bd dc e2    EATVEG2    LDA	FPOINTS,X	;		;DISPLAY POINTS
   3691  daa4		       85 78		      STA	FRUITIX
   3692  daa6		       4a		      LSR
   3693  daa7		       a8		      TAY
   3694  daa8		       b9 00 24 	      LDA	STMPPALW,Y
   3695  daab		       8d cf 1f 	      STA	FRUITPAL
   3696  daae		       bc c9 e2 	      LDY	VEGPTS,X	;		 ;FETCH MID BYTE
   3697  dab1		       a9 35		      LDA	#53
   3698  dab3		       85 65		      STA	FRUITX
   3699  dab5		       a9 00		      LDA	#0	;		       ;LOW BYTE ALWAYS 0
   3700  dab7		       20 76 df 	      JSR	ADDSCORE
   3701  daba		       a9 c4		      LDA	#CSET2
   3702  dabc		       8d ce 1f 	      STA	FRUITCST
   3703  dabf		       a0 0e		      LDY	#SNG10	;		   ;GOT FRUIT
   3704  dac1		       4c ef fd 	      JMP	NOISE	;		    ;NOISE IS A SUBR
   3705  dac4
   3706  dac4
   3707  dac4
   3708  dac4							;*;*;*;*;*;*;*;*;*;*;*;*;*;*;*;*;*;*;*;*;*;*;*;*;*;*;*;*;*;*;*;*;*;*;*;*;*;*;*;*;*;*;*;*;*;*;*;*;*;*;*;*;*;*;*;*;*;*;*;*;*;*;*;*;*;*;*;*;*;*;*;*;*;*;*;*;*;*;*;*
   3709  dac4							;*;*;*;*;*;*;*;*;*;*;*
   3710  dac4							;*;*;*;*;*;*;*;*;*;*;*       SELECT:  DRIVER FOR SELECT MODE.	WHEN SELECT MODE ENTERED,
   3711  dac4							;*;*;*;*;*;*;*;*;*;*;*;		CONTROL STAYS IN THIS ROUTINE UNTIL RESET OR THE
   3712  dac4							;*;*;*;*;*;*;*;*;*;*;*;		BUTTON ON THE JOYSTICK IS PRESSED.
   3713  dac4							;*;*;*;*;*;*;*;*;*;*;*;		MOVING THE JOYSTICK UP SETS NUMPLAYR TO 2, DOWN TO 1;
   3714  dac4							;*;*;*;*;*;*;*;*;*;*;*;		LEFT DECREASES THE STARTING LEVEL, RIGHT INCREASES IT
   3715  dac4							;*;*;*;*;*;*;*;*;*;*;*;		(NO WRAP AROUND).
   3716  dac4							;*;*;*;*;*;*;*;*;*;*;*
   3717  dac4							;*;*;*;*;*;*;*;*;*;*;*;*;*;*;*;*;*;*;*;*;*;*;*;*;*;*;*;*;*;*;*;*;*;*;*;*;*;*;*;*;*;*;*;*;*;*;*;*;*;*;*;*;*;*;*;*;*;*;*;*;*;*;*;*;*;*;*;*;*;*;*;*;*;*;*;*;*;*;*;*
   3718  dac4				   SELECT
   3719  dac4		       20 f9 e9 	      JSR	SETRACK1	;		 ;START OFF WITH LOWEST RACK (RETURNS 1
   3720  dac7		       85 a8		      STA	NONOISE	;		  ;  IN A).
   3721  dac9		       a9 40		      LDA	#$40
   3722  dacb		       85 81		      STA	DLSTPTR
   3723  dacd		       20 be d1 	      JSR	SCRNOFF
   3724  dad0
   3725  dad0		       20 9c d6 	      JSR	SETTITLE
   3726  dad3		       a2 06		      LDX	#6
   3727  dad5		       20 d6 db 	      JSR	SETDPLH
   3728  dad8		       a0 26		      LDY	#38	;		      ;PLAYERS.
   3729  dada		       a2 59		      LDX	#89
   3730  dadc		       20 eb e6 	      JSR	PUTMPLAT
   3731  dadf		       a2 09		      LDX	#9
   3732  dae1		       20 d6 db 	      JSR	SETDPLH
   3733  dae4		       a0 1e		      LDY	#30
   3734  dae6		       a2 37		      LDX	#55	;		      ;LEVEL.
   3735  dae8		       20 eb e6 	      JSR	PUTMPLAT
   3736  daeb		       a2 00		      LDX	#0
   3737  daed		       8e be 1b 	      STX	L0Z0+1
   3738  daf0		       86 d1		      STX	FAKEJOY
   3739  daf2
   3740  daf2		       a2 11		      LDX	#17
   3741  daf4		       20 72 d6 	      JSR	TITLCOLR
   3742  daf7		       20 a6 db 	      JSR	SETOPT
   3743  dafa
   3744  dafa		       20 e8 e5    ZINITPLR   JSR	SETPAL3
   3745  dafd		       20 14 fc 	      JSR	DLFLIP	;		   ;FLIP TO DISPLAY LIST JUST CONSTRUCTED.
   3746  db00		       ad 80 02    ZDEBSEL    LDA	SWCHA
   3747  db03		       09 0f		      ORA	#$0F	;		     ;DEBOUNCE ENTRY INTO SELECT BY WAITING
   3748  db05		       c9 ff		      CMP	#$FF	;		     ;	FOR JOYSTICK TO CENTER.
   3749  db07		       d0 f7		      BNE	ZDEBSEL
   3750  db09		       ad 82 02    ZDEBSEL2   LDA	SWCHB	;		    ;ALSO WAIT FOR SELECT BUTTON RELEASE.
   3751  db0c		       4a		      LSR
   3752  db0d		       4a		      LSR
   3753  db0e		       90 f9		      BCC	ZDEBSEL2
   3754  db10
   3755  db10		       a5 ae		      LDA	SELCTIM
   3756  db12							;*;*;*       CLC
   3757  db12							;*;*;*       ADC     #75
   3758  db12		       69 4a		      ADC	#74	;		      ;(CARRY ALREADY SET).
   3759  db14		       85 cc		      STA	TEMP
   3760  db16		       a5 88		      LDA	BONZO	;		    ;SAVE GAME OPTION.
   3761  db18		       85 cd		      STA	TEMP+1
   3762  db1a
   3763  db1a				   SLOOP
   3764  db1a		       ee 22 23 	      INC	P0C0SHAD+27
   3765  db1d		       a5 0c		      LDA	INPT4	;		    ;BUTTON ON JOYSTICK PRESSED?
   3766  db1f		       10 0e		      BPL	LEAVSLCT
   3767  db21		       ad 82 02 	      LDA	SWCHB	;		    ;RESET PRESSED?
   3768  db24		       4a		      LSR
   3769  db25		       b0 14		      BCS	DOSLCT
   3770  db27		       4e 82 02    WAITRSET   LSR	SWCHB	;		    ;WAIT TILL RESET BUTTON UP.
   3771  db2a		       90 fb		      BCC	WAITRSET
   3772  db2c		       20 f9 e9 	      JSR	SETRACK1	;		 ;START ON LOWEST RACK.
   3773  db2f
   3774  db2f		       a2 00	   LEAVSLCT   LDX	#0
   3775  db31		       86 a0		      STX	ATTRACT
   3776  db33		       a5 88		      LDA	BONZO	;		    ;HAS GAME LEVEL CHANGED?
   3777  db35		       c5 cd		      CMP	TEMP+1
   3778  db37		       d0 48		      BNE	ZRESCORE
   3779  db39		       f0 56		      BEQ	ZGOATTR
   3780  db3b
   3781  db3b				   DOSLCT
   3782  db3b		       4a		      LSR
   3783  db3c		       b0 0c		      BCS	DOJOY	;		    ;SELECT PRESSED: ROTATE OPTIONS.
   3784  db3e		       c6 d1		      DEC	FAKEJOY
   3785  db40		       a5 d1		      LDA	FAKEJOY
   3786  db42		       29 03		      AND	#3
   3787  db44		       aa		      TAX
   3788  db45		       bd b5 e2 	      LDA	FJOY,X
   3789  db48		       d0 03		      BNE	ZDOJOY
   3790  db4a
   3791  db4a		       ad 80 02    DOJOY      LDA	SWCHA	;		    ;READ JOYSTICK: UP/DOWN WILL TOGGLE
   3792  db4d		       a2 01	   ZDOJOY     LDX	#1
   3793  db4f		       0a		      ASL		;			;  NUMBER OF PLAYERS, RIGHT/LEFT WILL
   3794  db50		       90 15		      BCC	HGHLEVEL	;		 ;  INCREASE/DECREASE STARTING LEVEL.
   3795  db52		       0a		      ASL
   3796  db53		       90 13		      BCC	LOWLEVEL
   3797  db55		       0a		      ASL
   3798  db56		       90 09		      BCC	ONEPGAME
   3799  db58							;*	    ASL
   3800  db58							;*	    BCC     TWOPGAME
   3801  db58		       10 08		      BPL	TWOPGAME
   3802  db5a		       a6 86		      LDX	FRMCNT
   3803  db5c		       e8		      INX
   3804  db5d		       8a		      TXA
   3805  db5e		       4c 71 db 	      JMP	WAITJOY
   3806  db61		       ca	   ONEPGAME   DEX		;			      ;X CONTAINS 0 NOW.
   3807  db62		       86 82	   TWOPGAME   STX	NUMPLAYR	;		 ;TWO PLAYER GAME.
   3808  db64		       4c 6a db 	      JMP	GOSETOPT
   3809  db67		       ca	   HGHLEVEL   DEX		;			      ;PINEAPPLE MODE: BONZO = 0.
   3810  db68		       86 88	   LOWLEVEL   STX	BONZO
   3811  db6a		       20 a6 db    GOSETOPT   JSR	SETOPT
   3812  db6d
   3813  db6d		       a5 86	   DEBJOY     LDA	FRMCNT	;		   ;WAIT 20 FRAMES TO DEBOUNCE JOYSTICK.
   3814  db6f							;*;*;*       CLC;			      ;(CARRY ALREADY CLEAR).
   3815  db6f		       69 14		      ADC	#20
   3816  db71				   WAITJOY
   3817  db71		       a6 cc		      LDX	TEMP
   3818  db73		       e4 ae		      CPX	SELCTIM	;		  ;APPROXIMATELY 5 MINUTES.
   3819  db75		       d0 1f		      BNE	TSTWAIT
   3820  db77		       a2 01		      LDX	#1
   3821  db79		       86 a0		      STX	ATTRACT
   3822  db7b		       a5 88		      LDA	BONZO
   3823  db7d		       c5 cd		      CMP	TEMP+1
   3824  db7f		       f0 10		      BEQ	ZGOATTR
   3825  db81				   ZRESCORE
   3826  db81							;*ZRESCORE  LDY     #5;		    ;THIS NOW DONE IN ISCOREL.
   3827  db81							;*ZRESCOR   LDA     #0
   3828  db81							;*	    STA     SCOREL,Y
   3829  db81							;*	    DEY
   3830  db81							;*	    BPL     ZRESCOR
   3831  db81		       86 a0		      STX	ATTRACT
   3832  db83		       20 0d d6 	      JSR	ISCOREL	;		  ;RETURNS 0 IN A.
   3833  db86		       aa		      TAX
   3834  db87							;*	    LDX     #0; 		    ;UPDATE PLAYER 0"S SCORE.
   3835  db87		       20 b2 df 	      JSR	ADDSDONE
   3836  db8a		       a6 82		      LDX	NUMPLAYR	;		 ;AND PLAYER 1"S.
   3837  db8c		       f0 03		      BEQ	ZGOATTR
   3838  db8e		       20 b2 df 	      JSR	ADDSDONE
   3839  db91		       a6 a0	   ZGOATTR    LDX	ATTRACT
   3840  db93		       d0 08		      BNE	ZTITLEP	;		  ;GO TO ATTRACT MODE.
   3841  db95							;*;*;*       JSR     SCRNOFF
   3842  db95							;*;*;*       JSR     DLFLIP
   3843  db95							;*;*;*       LDX     ATTRACT
   3844  db95		       60		      RTS		;			      ;;*;*;*;*;*;*;*;*;*;*;*;*;*;* RTS ;*;*;*;*;*;*;*;*;*;*;*;*;*;*;*;*
   3845  db96
   3846  db96		       c5 86	   TSTWAIT    CMP	FRMCNT
   3847  db98		       d0 d7		      BNE	WAITJOY
   3848  db9a		       4c 1a db 	      JMP	SLOOP
   3849  db9d
   3850  db9d							; THIS IS KIND OF SLEAZY, BUT NO MATTER WHERE WE ARE IN THE CODE, SELECT COULD
   3851  db9d							;    BE CALLED.  IF IT TIMES OUT, WE NEED TO GO BACK TO THE TOP LEVEL OF MAIN
   3852  db9d							;    TO START ATTRACT MODE.  RATHER THAN PUTTING HOOKS IN EVERY PLACE THAT
   3853  db9d							;    SELECT (=> ALSO CHKSTATE, FREEZFRM) IS CALLED TO CATCH THE TIMEOUT, WE
   3854  db9d							;    CAN JUST RELY ON TITLEPAG TO SET UP THE SAMPLE ATTRACT MODE AND JUMP
   3855  db9d							;    TO PLAYGAME IN MAIN.
   3856  db9d
   3857  db9d		       a2 ff	   ZTITLEP    LDX	#$FF
   3858  db9f		       9a		      TXS
   3859  dba0		       20 3f d1 	      JSR	ICOLORS
   3860  dba3		       4c 1b d0 	      JMP	PLAYTITL
   3861  dba6
   3862  dba6
   3863  dba6							;*;*;*;*;*;*;*;*;*;*;*;*;*;*;*;*;*;*;*;*;*;*;*;*;*;*;*;*;*;*;*;*;*;*;*;*;*;*;*;*;*;*;*;*;*;*;*;*;*;*;*;*;*;*;*;*;*;*;*;*;*;*;*;*;*;*;*;*;*;*;*;*;*;*;*;*;*;*;*;*
   3864  dba6		       a5 82	   SETOPT     LDA	NUMPLAYR
   3865  dba8		       0a		      ASL		;			;TOP BIT OF NUMPLAYR ALWAYS 0!
   3866  dba9							;*;*;*       CLC
   3867  dba9		       69 98		      ADC	#FULL0+2
   3868  dbab		       8d 60 19 	      STA	L0Z6+33
   3869  dbae		       a5 88		      LDA	BONZO
   3870  dbb0		       d0 07		      BNE	ZBONZ
   3871  dbb2		       20 89 d6 	      JSR	PINECOLR
   3872  dbb5		       a9 48		      LDA	#PINEAPPL
   3873  dbb7		       d0 05		      BNE	ZNOBONZ
   3874  dbb9		       20 e8 db    ZBONZ      JSR	BONZCOLR
   3875  dbbc		       a9 32		      LDA	#TEDDY
   3876  dbbe		       8d 19 1a    ZNOBONZ    STA	L0Z9+25
   3877  dbc1		       60		      RTS
   3878  dbc2
   3879  dbc2							;*;*;*;*;*;*;*;*;*;*;*;*;*;*;*;*;*;*;*;*;*;*;*;*;*;*;*;*;*;*;*;*;*;*;*;*;*;*;*;*;*;*;*;*;*;*;*;*;*;*;*;*;*;*;*;*;*;*;*;*;*;*;*;*;*;*;*;*;*;*;*;*;*;*;*;*;*;*;*;*
   3880  dbc2							;*;*;*;*;*;*;*;*;*;*;*
   3881  dbc2							;*;*;*;*;*;*;*;*;*;*;*       DOCOLORS:  RESTORE PALETTES - CALLED EACH FRAME.
   3882  dbc2							;*;*;*;*;*;*;*;*;*;*;*
   3883  dbc2							;*;*;*;*;*;*;*;*;*;*;*;*;*;*;*;*;*;*;*;*;*;*;*;*;*;*;*;*;*;*;*;*;*;*;*;*;*;*;*;*;*;*;*;*;*;*;*;*;*;*;*;*;*;*;*;*;*;*;*;*;*;*;*;*;*;*;*;*;*;*;*;*;*;*;*;*;*;*;*;*
   3884  dbc2		       a2 1f	   DOCOLORS   LDX	#31
   3885  dbc4		       bd 07 23    ZDOCOLR    LDA	P0C0SHAD,X
   3886  dbc7		       95 20		      STA	P0C0,X
   3887  dbc9		       ca		      DEX
   3888  dbca		       8a		      TXA
   3889  dbcb		       29 03		      AND	#3
   3890  dbcd		       d0 f5		      BNE	ZDOCOLR
   3891  dbcf		       ca		      DEX
   3892  dbd0		       10 f2		      BPL	ZDOCOLR
   3893  dbd2		       e8		      INX
   3894  dbd3		       86 20		      STX	P0C0
   3895  dbd5		       60		      RTS
   3896  dbd6
   3897  dbd6
   3898  dbd6
   3899  dbd6		       bd c0 eb    SETDPLH    LDA	LISTTBH0,X
   3900  dbd9		       24 81		      BIT	DLSTPTR	;		  ;GET CORRECT DISPLAY LIST.
   3901  dbdb		       70 03		      BVS	SLCTLST0
   3902  dbdd		       bd d6 eb 	      LDA	LISTTBH1,X
   3903  dbe0		       85 dc	   SLCTLST0   STA	DPHIGH
   3904  dbe2		       bd aa eb 	      LDA	LISTTABL,X
   3905  dbe5		       85 db		      STA	DPLOW
   3906  dbe7		       60		      RTS
   3907  dbe8
   3908  dbe8
   3909  dbe8		       ad bc e8    BONZCOLR   LDA	VEGCOL1+18
   3910  dbeb		       8d f0 23 	      STA	VEGCOLR+1
   3911  dbee		       ad e2 e8 	      LDA	VEGCOL3+18
   3912  dbf1		       8d 1e 23 	      STA	P0C0SHAD+23
   3913  dbf4		       ad cf e8 	      LDA	VEGCOL2+18
   3914  dbf7		       8d ef 23 	      STA	VEGCOLR
   3915  dbfa		       8d 1d 23 	      STA	P0C0SHAD+22
   3916  dbfd		       60	   ZDRTS      RTS		;			      ;BRANCHED TO FROM CHKDEATH FILE
   3917  dbfe							;*;*;*;*;*;*;*;*;*;*;*;*;*;*;*;*;*;*;*;*;*;*;*;*;*;*;*;*;*;*;*;*;*;*;*;*;*;*;*;*;*;*;*;*;*;*;*;*;*;*;*;*;*;*;*;*;*;*;*;*;*;*;*;*;*;*;*;*;*;*;*;*;*;*;*;*;*;*;*;*
   3918  dbfe							;*;*;*;*;*;*;*;*;*;*;*;							  ;*;*;*;*;*;*;*;*;*;*;*
   3919  dbfe							;*;*;*;*;*;*;*;*;*;*;*       CHKDEATH:  IF DIGDUG HAS DIED, DO DEATH;		  ;*;*;*;*;*;*;*;*;*;*;*
   3920  dbfe							;*;*;*;*;*;*;*;*;*;*;*;		  SEQUENCE, RESET TO SAME RACK, 	  ;*;*;*;*;*;*;*;*;*;*;*
   3921  dbfe							;*;*;*;*;*;*;*;*;*;*;*;		  SWITCH PLAYERS IF NECESSARY, AND	  ;*;*;*;*;*;*;*;*;*;*;*
   3922  dbfe							;*;*;*;*;*;*;*;*;*;*;*;		  INITIALIZE CREATURES IN TUNNELS.	  ;*;*;*;*;*;*;*;*;*;*;*
   3923  dbfe							;*;*;*;*;*;*;*;*;*;*;*;		  NOTE THAT ONCE DEATH IS DETECTED,	  ;*;*;*;*;*;*;*;*;*;*;*
   3924  dbfe							;*;*;*;*;*;*;*;*;*;*;*;		  CONTROL WILL STAY IN THIS ROUTINE	  ;*;*;*;*;*;*;*;*;*;*;*
   3925  dbfe							;*;*;*;*;*;*;*;*;*;*;*;		  UNTIL DEATH SEQUENCE HAS BEEN 	  ;*;*;*;*;*;*;*;*;*;*;*
   3926  dbfe							;*;*;*;*;*;*;*;*;*;*;*;		  COMPLETED AND RACK, ETC. IS RESET.	  ;*;*;*;*;*;*;*;*;*;*;*
   3927  dbfe							;*;*;*;*;*;*;*;*;*;*;*;							  ;*;*;*;*;*;*;*;*;*;*;*
   3928  dbfe							;*;*;*;*;*;*;*;*;*;*;*;*;*;*;*;*;*;*;*;*;*;*;*;*;*;*;*;*;*;*;*;*;*;*;*;*;*;*;*;*;*;*;*;*;*;*;*;*;*;*;*;*;*;*;*;*;*;*;*;*;*;*;*;*;*;*;*;*;*;*;*;*;*;*;*;*;*;*;*;*
   3929  dbfe				   CHKDEATH
   3930  dbfe		       a5 83		      LDA	DEATH	;		    ;HAS DIGDUG DIED?
   3931  dc00		       f0 fb		      BEQ	ZDRTS	;		    ;LOCATED AT END OF SELECT FILE
   3932  dc02
   3933  dc02							;*;*;*;*;*;*;*;*;*;*;* DO DEATH SEQUENCE ...
   3934  dc02
   3935  dc02				   DSEQUNC
   3936  dc02		       a5 f1		      LDA	FRUIT	;		    ;DOES FRUIT NEED TO APPEAR?
   3937  dc04		       f0 07		      BEQ	DSEQUNC2
   3938  dc06		       c9 0f		      CMP	#$0F
   3939  dc08		       b0 03		      BCS	DSEQUNC2
   3940  dc0a		       20 fc f2 	      JSR	DFRUIT	;		   ;DISPLAY FRUIT
   3941  dc0d				   DSEQUNC2
   3942  dc0d		       a5 e5		      LDA	NEEDDIR	;		  ;IF DIGDUG IS UNDER A ROCK
   3943  dc0f		       f0 06		      BEQ	DSEQUNC3	;		 ;   ....GIVE IT A SHOVE
   3944  dc11		       a6 cb		      LDX	HITROCK
   3945  dc13		       a9 02		      LDA	#ONEDGE
   3946  dc15		       95 c3		      STA	TUMBLE,X
   3947  dc17				   DSEQUNC3
   3948  dc17
   3949  dc17		       a9 28		      LDA	#40
   3950  dc19		       20 33 dd 	      JSR	GENFREEZ
   3951  dc1c							;*;*	     TXA;			     ;BUTTON PUSHED?
   3952  dc1c							;*;*	     BNE     ZDRTS
   3953  dc1c
   3954  dc1c		       a0 00		      LDY	#0
   3955  dc1e		       a2 07		      LDX	#NUMCREAT	;		;FIRST STAGE OF DEATH SEQUENCE
   3956  dc20		       b5 b2	   CHKGBNF    LDA	MONSTAT,X
   3957  dc22		       29 86		      AND	#$86
   3958  dc24		       c9 02		      CMP	#$02	;		     ;POPPED (GBNF) CREATURES ARE DEAD
   3959  dc26		       d0 0e		      BNE	VANCREAT
   3960  dc28		       bd 37 23 	      LDA	BLWSTAT,X	;		;POP STAGE?
   3961  dc2b		       c9 04		      CMP	#4
   3962  dc2d		       d0 03		      BNE	DOVAN
   3963  dc2f		       20 09 fb 	      JSR	CAROL	;		    ;MAKE SURE POINTS GET ADDED IN
   3964  dc32		       20 8a f1    DOVAN      JSR	OFFSCR2	;		  ;SETS MONSTAT,X TO $80;POOKAY,X TO 0
   3965  dc35		       a8		      TAY		;			      ;OFFSCR2 RETURNS 0 IN A
   3966  dc36							;*	    LDA     #$80
   3967  dc36							;*	    STA     MONSTAT,X
   3968  dc36		       94 41	   VANCREAT   STY	POOKAY,X	;		 ;DON"T DISPLAY CREATURES
   3969  dc38		       ca		      DEX
   3970  dc39		       10 e5		      BPL	CHKGBNF
   3971  dc3b
   3972  dc3b		       84 4e		      STY	FLAMEY	;		   ;STOP DISPLAYING FLAME
   3973  dc3d		       84 52		      STY	FRUITY	;		   ;STOP DISPLAYING FRUIT
   3974  dc3f
   3975  dc3f		       a9 08		      LDA	#$08
   3976  dc41		       20 33 dd 	      JSR	GENFREEZ
   3977  dc44
   3978  dc44		       a0 12		      LDY	#SNG14	;		   ;START DEATH NOISE.
   3979  dc46		       20 ef fd 	      JSR	NOISE
   3980  dc49
   3981  dc49		       a2 04		      LDX	#4
   3982  dc4b		       86 d6		      STX	DTEMP2
   3983  dc4d		       a4 80		      LDY	LASTMOVE
   3984  dc4f		       be 31 c0 	      LDX	DANIMIX,Y
   3985  dc52		       86 d5		      STX	DETHTEMP
   3986  dc54		       bd 55 c1    DETHANIM   LDA	ADEATH,X	;		 ;APPROPRIATE ANIMATION FOR THIS STAGE.
   3987  dc57		       85 66		      STA	DDINDX
   3988  dc59		       a9 12		      LDA	#18
   3989  dc5b		       20 33 dd 	      JSR	GENFREEZ
   3990  dc5e							;*;*	     TXA
   3991  dc5e							;*;*	     BNE     ZDRTS;		     ;WAS BUTTON PUSHED IN ATTRACT MODE?
   3992  dc5e		       c6 d5		      DEC	DETHTEMP
   3993  dc60		       a6 d5		      LDX	DETHTEMP
   3994  dc62		       c6 d6		      DEC	DTEMP2
   3995  dc64		       10 ee		      BPL	DETHANIM
   3996  dc66
   3997  dc66							;*;*;*;*;*;*;*;*;*;*;* SEE IF ANY LIVES LEFT FOR THIS OR ANY OTHER PLAYER...
   3998  dc66
   3999  dc66				   ENDDANIM
   4000  dc66		       20 38 df 	      JSR	TESTRACK
   4001  dc69		       a2 00		      LDX	#0	;		       ;SET UP FOR NEXT PLAYER"S LIFE:	IF 2
   4002  dc6b		       86 83		      STX	DEATH	;		    ;  PLAYER MODE, WE MAY BE SWITCHING.
   4003  dc6d							;*	    STX     FRUITY
   4004  dc6d							;*	    STX     FRUIT
   4005  dc6d		       a6 87		      LDX	PLAYNUM	;		  ;DECREMENT NUMBER OF LIVES LEFT.
   4006  dc6f		       d6 9e		      DEC	NUMMEN,X
   4007  dc71		       d0 08		      BNE	CHKSWTCH
   4008  dc73		       a5 82		      LDA	NUMPLAYR	;		 ;NO LIVES LEFT: MORE THAN ONE PLAYER?
   4009  dc75		       f0 1d		      BEQ	GOATTRAC	;		 ;  IF NOT, GO INTO ATTRACT MODE.
   4010  dc77		       a5 a0		      LDA	ATTRACT
   4011  dc79		       d0 19		      BNE	GOATTRAC
   4012  dc7b
   4013  dc7b				   CHKSWTCH
   4014  dc7b		       a5 a0		      LDA	ATTRACT	;		  ;ATTRACT MODE ONE PLAYER ONLY.
   4015  dc7d		       d0 12		      BNE	GOSETC
   4016  dc7f		       a5 82		      LDA	NUMPLAYR	;		 ;MORE THAN ONE PLAYER?
   4017  dc81		       f0 0e		      BEQ	GOSETC
   4018  dc83		       a5 87		      LDA	PLAYNUM	;		  ;SWITCH PLAYER NUMBER INDEX.
   4019  dc85		       49 01		      EOR	#1
   4020  dc87		       a8		      TAY
   4021  dc88		       b9 9e 00 	      LDA	NUMMEN,Y
   4022  dc8b		       d0 22		      BNE	NEWPLAYR
   4023  dc8d		       b5 9e		      LDA	NUMMEN,X
   4024  dc8f		       f0 03		      BEQ	GOATTRAC
   4025  dc91		       4c 10 dd    GOSETC     JMP	SETCREAT	;		 ;THIS PLAYER HAS MORE LIVES LEFT.
   4026  dc94				   GOATTRAC
   4027  dc94		       a6 a0		      LDX	ATTRACT
   4028  dc96		       d0 10		      BNE	ZGOTITLE
   4029  dc98		       20 3b dd 	      JSR	UPDMEN
   4030  dc9b		       a2 01		      LDX	#1
   4031  dc9d		       86 a0		      STX	ATTRACT
   4032  dc9f							;*	    LDX     #1; 		    ;GAME OVER MESSAGE.
   4033  dc9f		       8e f1 23 	      STX	IGNORE	;		   ;IGNORE JOYSTICK DURING GAME OVER.
   4034  dca2							;				 ;THIS WILL DISABLE ENTRY TO SELECT.
   4035  dca2		       20 1c de 	      JSR	PLAYREDY	;		 ;(CLOBBERS X).
   4036  dca5		       20 5e dd 	      JSR	HSCORENT
   4037  dca8				   ZGOTITLE
   4038  dca8		       a9 01		      LDA	#1
   4039  dcaa		       85 a8		      STA	NONOISE
   4040  dcac		       4c 2e fc 	      JMP	TITLEPAG	;		 ;NO LIVES LEFT: GO TO TITLE PAGE.
   4041  dcaf
   4042  dcaf
   4043  dcaf							;*;*;*;*;*;*;*;*;*;*;* WE"RE SWITCHING PLAYERS ...
   4044  dcaf
   4045  dcaf							;				 ;SWITCH TO OTHER PLAYER: SINCE THIS
   4046  dcaf							;				 ;  WILL TAKE LOTS OF CYCLES TO SWITCH
   4047  dcaf							;				 ;  PLAYER"S DIRTMAPS, PUT UP A BLANK
   4048  dcaf							;				 ;  SCREEN UNTIL WE"RE DONE.
   4049  dcaf		       84 87	   NEWPLAYR   STY	PLAYNUM
   4050  dcb1		       20 be d1 	      JSR	SCRNOFF
   4051  dcb4
   4052  dcb4		       a2 25		      LDX	#TOTLSTX2
   4053  dcb6		       b5 40	   SAVEYPOS   LDA	STMPYPOS,X
   4054  dcb8		       48		      PHA		;			      ;SAVE CURRENT PLAYER"S REMAINING YPOS
   4055  dcb9		       bd 00 20 	      LDA	BACKYPOS,X	;	       ;  VALUES AND READ IN OTHER PLAYER"S.
   4056  dcbc		       95 40		      STA	STMPYPOS,X	;	       ;WE"RE ALSO SAVING STMPXPOS HERE TOO!
   4057  dcbe		       68		      PLA		;			      ;IF FOLLOWS STMPYPOS ARRAY.
   4058  dcbf		       9d 00 20 	      STA	BACKYPOS,X
   4059  dcc2		       ca		      DEX
   4060  dcc3		       10 f1		      BPL	SAVEYPOS
   4061  dcc5
   4062  dcc5		       a2 07		      LDX	#7
   4063  dcc7		       b5 c3	   SAVETMBL   LDA	TUMBLE,X	;		 ;SAVE CURRENT PLAYER"S TUMBLE ARRAY.
   4064  dcc9		       48		      PHA		;			      ;ALSO SAVES FALLCNT,BRCREAT,
   4065  dcca		       bd 26 20 	      LDA	BACKTMBL,X	;	       ;  AND BRTUNNL.
   4066  dccd		       95 c3		      STA	TUMBLE,X
   4067  dccf		       68		      PLA
   4068  dcd0		       9d 26 20 	      STA	BACKTMBL,X
   4069  dcd3		       b5 b2		      LDA	MONSTAT,X
   4070  dcd5		       48		      PHA
   4071  dcd6		       bd c6 1f 	      LDA	BACKMONS,X
   4072  dcd9		       95 b2		      STA	MONSTAT,X
   4073  dcdb		       68		      PLA
   4074  dcdc		       9d c6 1f 	      STA	BACKMONS,X
   4075  dcdf		       a9 a6		      LDA	#STRTROCK
   4076  dce1		       95 6f		      STA	ROCKSIX,X
   4077  dce3		       ca		      DEX
   4078  dce4		       10 e1		      BPL	SAVETMBL
   4079  dce6
   4080  dce6		       a2 f0		      LDX	#$F0
   4081  dce8		       bd 00 26    SAVEDIRT   LDA	DIRTMAP,X	;		;SAVE CURRENT PLAYER"S DIRTMAP.
   4082  dceb		       48		      PHA
   4083  dcec		       bd 00 27 	      LDA	BACKDIRT,X
   4084  dcef		       9d 00 26 	      STA	DIRTMAP,X
   4085  dcf2		       68		      PLA
   4086  dcf3		       9d 00 27 	      STA	BACKDIRT,X
   4087  dcf6		       ca		      DEX
   4088  dcf7		       e0 ff		      CPX	#$FF
   4089  dcf9		       d0 ed		      BNE	SAVEDIRT
   4090  dcfb
   4091  dcfb		       ae f3 23 	      LDX	P2INIT	;		   ;HAVE WE INITIALIZE P2 YET?
   4092  dcfe		       d0 10		      BNE	SETCREAT
   4093  dd00		       e8		      INX
   4094  dd01		       8e f3 23 	      STX	P2INIT
   4095  dd04		       86 85		      STX	ENTRY
   4096  dd06		       ca		      DEX
   4097  dd07		       20 1c de 	      JSR	PLAYREDY
   4098  dd0a		       20 44 d2 	      JSR	INITRACK	;		 ;THEN THIS IS THE FIRST TIME HE"S BEEN
   4099  dd0d		       4c 26 dd 	      JMP	RESETSCR	;		 ;  UP SO INITIALIZE THE WORLD FOR HIM.
   4100  dd10
   4101  dd10							;*;*;*;*;*;*;*;*;*;*;* SET UP CREATURES FOR NEW LIFE ...
   4102  dd10
   4103  dd10				   SETCREAT
   4104  dd10		       a6 a0		      LDX	ATTRACT
   4105  dd12		       d0 08		      BNE	ZNOPLAYM
   4106  dd14		       a6 82		      LDX	NUMPLAYR
   4107  dd16		       f0 04		      BEQ	ZNOPLAYM
   4108  dd18		       ca		      DEX
   4109  dd19		       20 1c de 	      JSR	PLAYREDY	;		 ;PUT UP PLAYER N MESSAGE.
   4110  dd1c		       a9 01	   ZNOPLAYM   LDA	#1
   4111  dd1e		       85 c2		      STA	NOTUNNEL	;		 ;JUST INIT CREATURES, NOT TUNNELS.
   4112  dd20		       20 c0 d2 	      JSR	INITDIRT
   4113  dd23							;*;*;*       JSR     INCREATS
   4114  dd23		       20 db e4 	      JSR	DDMIDDLE
   4115  dd26							;*;*;*       JSR     SETDFAST; 	      ;INCLUDED IN INCREATS
   4116  dd26				   RESETSCR
   4117  dd26		       a9 00		      LDA	#0
   4118  dd28		       85 80		      STA	LASTMOVE
   4119  dd2a		       a5 a0		      LDA	ATTRACT
   4120  dd2c		       d0 03		      BNE	SETNSCR
   4121  dd2e		       20 3b dd 	      JSR	UPDMEN	;		   ;UPDATE NUMBER OF MEN LEFT FOR PLAYER.
   4122  dd31				   SETNSCR
   4123  dd31		       a9 28		      LDA	#40
   4124  dd33
   4125  dd33		       48	   GENFREEZ   PHA
   4126  dd34		       20 58 fb 	      JSR	GENDPL
   4127  dd37		       68		      PLA
   4128  dd38		       4c 4c dd 	      JMP	FREEZFRM
   4129  dd3b				   UPDMEN
   4130  dd3b		       a6 87		      LDX	PLAYNUM
   4131  dd3d		       18		      CLC
   4132  dd3e		       a0 00		      LDY	#BLANK1
   4133  dd40		       b5 9e		      LDA	NUMMEN,X
   4134  dd42		       f0 04		      BEQ	ZRESET0
   4135  dd44		       0a		      ASL
   4136  dd45		       69 94		      ADC	#FULL0-2
   4137  dd47		       a8		      TAY
   4138  dd48		       8c f2 1b    ZRESET0    STY	L0Z0+53
   4139  dd4b		       60		      RTS
   4140  dd4c							;*;*;*;*;*;*;*;*;*;*;*;*;*;*;*;*;*;*;*;*;*;*;*;*;*;*;*;*;*;*;*;*;*;*;*;*;*;*;*;*;*;*;*;*;*;*;*;*;*;*;*;*;*;*;*;*;*;*;*;*;*;*;*;*;*;*;*;*;*;*;*;*;*;*;*;*;*;*;*;*
   4141  dd4c							;*;*;*;*;*;*;*;*;*;*;*;							  ;*;*;*;*;*;*;*;*;*;*;*
   4142  dd4c							;*;*;*;*;*;*;*;*;*;*;*       FREEZFRM:  FREEZE PICTURE ON SCREEN.  A CONTAINS	 ;*;*;*;*;*;*;*;*;*;*;*
   4143  dd4c							;*;*;*;*;*;*;*;*;*;*;*;		  NUMBER OF FRAMES FOR DURATION OF	  ;*;*;*;*;*;*;*;*;*;*;*
   4144  dd4c							;*;*;*;*;*;*;*;*;*;*;*;		  FREEZE.  RETURNS 1 IN X IF WE WERE	  ;*;*;*;*;*;*;*;*;*;*;*
   4145  dd4c							;*;*;*;*;*;*;*;*;*;*;*;		  IN ATTRACT MODE AND THE BUTTON WAS	  ;*;*;*;*;*;*;*;*;*;*;*
   4146  dd4c							;*;*;*;*;*;*;*;*;*;*;*;		  PUSHED DURING THE FREEZE, 0 OTHERWISE.  ;*;*;*;*;*;*;*;*;*;*;*
   4147  dd4c							;*;*;*;*;*;*;*;*;*;*;*;							  ;*;*;*;*;*;*;*;*;*;*;*
   4148  dd4c							;*;*;*;*;*;*;*;*;*;*;*;*;*;*;*;*;*;*;*;*;*;*;*;*;*;*;*;*;*;*;*;*;*;*;*;*;*;*;*;*;*;*;*;*;*;*;*;*;*;*;*;*;*;*;*;*;*;*;*;*;*;*;*;*;*;*;*;*;*;*;*;*;*;*;*;*;*;*;*;*
   4149  dd4c				   FREEZFRM
   4150  dd4c		       18		      CLC
   4151  dd4d		       65 86		      ADC	FRMCNT
   4152  dd4f				   DFREEZE
   4153  dd4f		       48		      PHA
   4154  dd50		       20 6d de 	      JSR	CHKSTATE	;		 ;IF SO, CHECK BUTTONS.
   4155  dd53		       98		      TYA
   4156  dd54							;*;*	     BNE     NOTPAUSD
   4157  dd54							;*;*	     TAX
   4158  dd54		       f0 06		      BEQ	ZPLA	;		     ;PAUSE BUTTON PRESSED.
   4159  dd56		       68	   NOTPAUSD   PLA
   4160  dd57		       c5 86		      CMP	FRMCNT
   4161  dd59		       d0 f4		      BNE	DFREEZE
   4162  dd5b							;*;*	     LDX     #0;		     ;BUTTON NOT PUSHED.
   4163  dd5b		       60		      RTS
   4164  dd5c		       68	   ZPLA       PLA
   4165  dd5d		       60		      RTS
   4166  dd5e
   4167  dd5e
   4168  dd5e
   4169  dd5e							;*;*;*;*;*;*;*;*;*;*;*;*;*;*;*;*;*;*;*;*;*;*;*;*;*;*;*;*;*;*;*;*;*;*;*;*;*;*;*;*;*;*;*;*;*;*;*;*;*;*;*;*;*;*;*;*;*;*;*;*;*;*;*;*;*;*;*;*;*;*;*;*;*;*;*;*;*;*;*;*
   4170  dd5e							;*;*;*;*;*;*;*;*;*;*;*;							  ;*;*;*;*;*;*;*;*;*;*;*
   4171  dd5e							;*;*;*;*;*;*;*;*;*;*;*       HSCORENT:  SET UP FOR AND CALL HSCENTER TO	 ;*;*;*;*;*;*;*;*;*;*;*
   4172  dd5e							;*;*;*;*;*;*;*;*;*;*;*;		  ENTER HIGH SCORE(S) FOR PLAYER(S)	  ;*;*;*;*;*;*;*;*;*;*;*
   4173  dd5e							;*;*;*;*;*;*;*;*;*;*;*;		  WHOSE GAME JUST ENDED.		  ;*;*;*;*;*;*;*;*;*;*;*
   4174  dd5e							;*;*;*;*;*;*;*;*;*;*;*;							  ;*;*;*;*;*;*;*;*;*;*;*
   4175  dd5e							;*;*;*;*;*;*;*;*;*;*;*;*;*;*;*;*;*;*;*;*;*;*;*;*;*;*;*;*;*;*;*;*;*;*;*;*;*;*;*;*;*;*;*;*;*;*;*;*;*;*;*;*;*;*;*;*;*;*;*;*;*;*;*;*;*;*;*;*;*;*;*;*;*;*;*;*;*;*;*;*
   4176  dd5e				   HSCORENT
   4177  dd5e		       a5 88		      LDA	BONZO
   4178  dd60		       20 b1 dd 	      JSR	HSCINIT	;		  ;INIT RAM BLOCK FOR HSC ARGUMENTS.
   4179  dd63		       8a		      TXA
   4180  dd64		       d0 34		      BNE	HSCRTS
   4181  dd66		       a6 82		      LDX	NUMPLAYR
   4182  dd68		       f0 04		      BEQ	NO10SEC
   4183  dd6a		       ca		      DEX		;			      ;IF TWO PLAYER, DON"T DELAY 10 SECONDS
   4184  dd6b		       8e 0e 26 	      STX	HSCTIME	;		  ; AFTER ENTERING INITIALS FOR PLAYER 0.
   4185  dd6e				   NO10SEC
   4186  dd6e							;*;*;*       LDX     #0
   4187  dd6e		       20 9b dd 	      JSR	ENTERHSC
   4188  dd71
   4189  dd71		       a5 82		      LDA	NUMPLAYR
   4190  dd73		       f0 12		      BEQ	HSCDISPL
   4191  dd75		       a9 0a		      LDA	#10
   4192  dd77		       8d 0e 26 	      STA	HSCTIME
   4193  dd7a		       ad 02 26 	      LDA	HSCDIFFL	;		 ;CHANGE PLAYER NUMBER.
   4194  dd7d		       09 01		      ORA	#1
   4195  dd7f		       8d 02 26 	      STA	HSCDIFFL
   4196  dd82		       a2 01		      LDX	#1
   4197  dd84		       20 9b dd 	      JSR	ENTERHSC
   4198  dd87				   HSCDISPL		;				 ;THIS ALSO ACTS AS AN ENTRY POINT FOR
   4199  dd87		       20 be d1 	      JSR	SCRNOFF	;		  ;  RESTORING RAM AFTER HSCATRCT CALL.
   4200  dd8a		       20 9a d1 	      JSR	IDIRTRAM	;		 ;  PALETTES WILL BE RESTORED WITHIN ONE
   4201  dd8d		       a9 50		      LDA	#$50	;		     ;	FRAME OF REGULAR DIGDUG DISPLAY.
   4202  dd8f		       85 3c		      STA	CTRL	;		     ;RESTORE REGISTERS CHANGED BY HSC.
   4203  dd91		       a9 e0		      LDA	#CSET1
   4204  dd93		       85 34		      STA	CHARBASE
   4205  dd95		       a9 57		      LDA	#<DLISETUP
   4206  dd97		       8d be 1f 	      STA	DLIVECT
   4207  dd9a		       60	   HSCRTS     RTS
   4208  dd9b
   4209  dd9b							;*;*;*;*;*;*;*;*;*;*;*;*;*;*;*;*;*;*;*;*;*;*;*;*;*;*;*;*;*;*;*;*;*;*;*;*;*;*;*;*;*
   4210  dd9b		       b5 a2	   ENTERHSC   LDA	SCOREL,X	;		 ;WRITE PLAYER X"S SCORE INTO SCORE
   4211  dd9d		       8d c3 1f 	      STA	HSCOREL	;		  ;  BUFFER. (TOP BYTE OF SCORE BUFFER
   4212  dda0		       b5 a4		      LDA	SCOREM,X	;		 ;  IS ALWAYS ZERO IN DIGDUG"S CASE).
   4213  dda2		       8d c2 1f 	      STA	HSCOREM	;		  ;  FIRST BYTE IS MOST SIGNIFICANT
   4214  dda5		       b5 a6		      LDA	SCOREH,X	;		 ;  BYTE OF SCORE.
   4215  dda7		       8d c1 1f 	      STA	HSCOREH
   4216  ddaa		       a2 00		      LDX	#<HSCRAM
   4217  ddac		       a0 26		      LDY	#>HSCRAM
   4218  ddae		       4c fd 3f 	      JMP	HSCENTER	;		 ;;*;*;* = RTS!
   4219  ddb1
   4220  ddb1							;*;*;*;*;*;*;*;*;*;*;*;*;*;*;*;*;*;*;*;*;*;*;*;*;*;*;*;*;*;*;*;*;*;*;*;*;*;*;*;*;*;*;*;*;*;*;*;*;*;*;*;*;*;*;*;*;*;*;*;*;*;*;*;*;*;*;*;*;*;*;*;*;*;*;*;*;*;*;*;*
   4221  ddb1							;*;*;*;*;*;*;*;*;*;*;*;							  ;*;*;*;*;*;*;*;*;*;*;*
   4222  ddb1							;*;*;*;*;*;*;*;*;*;*;*       HSCINIT:	INITIALIZE ARGUMENT BLOCK FOR HSC.	 ;*;*;*;*;*;*;*;*;*;*;*
   4223  ddb1							;*;*;*;*;*;*;*;*;*;*;*;		 RETURN 1 IF HSC DOESN"T EXIST. 	  ;*;*;*;*;*;*;*;*;*;*;*
   4224  ddb1							;*;*;*;*;*;*;*;*;*;*;*;							  ;*;*;*;*;*;*;*;*;*;*;*
   4225  ddb1							;*;*;*;*;*;*;*;*;*;*;*;*;*;*;*;*;*;*;*;*;*;*;*;*;*;*;*;*;*;*;*;*;*;*;*;*;*;*;*;*;*;*;*;*;*;*;*;*;*;*;*;*;*;*;*;*;*;*;*;*;*;*;*;*;*;*;*;*;*;*;*;*;*;*;*;*;*;*;*;*
   4226  ddb1				   HSCINIT
   4227  ddb1		       48		      PHA
   4228  ddb2		       a2 01		      LDX	#1
   4229  ddb4		       ad 00 39 	      LDA	$3900	;		    ;SEE IF HSC IS THERE.
   4230  ddb7		       c9 c6		      CMP	#$C6
   4231  ddb9		       d0 5f		      BNE	NOHSC
   4232  ddbb		       ad 04 39 	      LDA	$3904
   4233  ddbe		       c9 fe		      CMP	#$FE
   4234  ddc0		       d0 58		      BNE	NOHSC
   4235  ddc2
   4236  ddc2							;*;*	     LDY     #2;		     ;HIGH SCORE MUSIC.
   4237  ddc2							;*;*	     JSR     NOISE
   4238  ddc2		       20 be d1 	      JSR	SCRNOFF
   4239  ddc5							;*;*;*       LDA     #$FF;		      ;TURN OFF DMA.
   4240  ddc5							;*;*;*       STA     CTRL
   4241  ddc5		       a9 d9		      LDA	#<DLITOP
   4242  ddc7		       8d be 1f 	      STA	DLIVECT
   4243  ddca
   4244  ddca		       a2 0e		      LDX	#14
   4245  ddcc		       bd ea e9    INITHSC    LDA	HSCARGS,X	;		;INITIALIZE THE HSC ARGUMENT BLOCK.
   4246  ddcf		       9d 00 26 	      STA	HSCRAM,X	;		 ;  THIS DEFAULTS TO BONZO LEVEL.
   4247  ddd2		       ca		      DEX
   4248  ddd3		       10 f7		      BPL	INITHSC
   4249  ddd5
   4250  ddd5		       a9 40		      LDA	#$40	;		     ;SET UP DIGDUG LOGO IN DISPLAY LIST 0.
   4251  ddd7		       85 81		      STA	DLSTPTR
   4252  ddd9		       20 9c d6 	      JSR	SETTITLE
   4253  dddc		       a2 1d		      LDX	#29	;		      ;SET UP COLORS FOR LOGO.
   4254  ddde		       20 72 d6 	      JSR	TITLCOLR
   4255  dde1		       8d 1e 23 	      STA	P0C0SHAD+23
   4256  dde4
   4257  dde4		       a2 05		      LDX	#5
   4258  dde6		       bd ef d6    SETFRUIT   LDA	TEDYPINE,X	;	       ;ADD STAMP FOR LEVEL INDICATOR INSTEAD
   4259  dde9		       9d 05 1a 	      STA	L0Z9+5,X	;		 ;  OF USING LETTERS PROVIDED IN HSC.
   4260  ddec		       ca		      DEX		;			      ;  (DEFAULT LEVEL IS BONZO).
   4261  dded		       10 f7		      BPL	SETFRUIT
   4262  ddef							;*;*	     INX
   4263  ddef		       a2 fc		      LDX	#$FC
   4264  ddf1		       8e 1e 1b 	      STX	L0Z13+30	;		 ;NO DIGDUG IN SELECT LOGO.
   4265  ddf4		       8e db 1a 	      STX	L0Z12+30
   4266  ddf7		       20 e8 db 	      JSR	BONZCOLR	;		 ;(TITLCOLR JSR SET UP FOR PINEAPPLE).
   4267  ddfa		       68		      PLA		;			      ;SET BONZO(1) OR PINEAPPLE(0) MODE?
   4268  ddfb		       48		      PHA
   4269  ddfc		       d0 0d		      BNE	ANYLEVEL
   4270  ddfe		       20 89 d6 	      JSR	PINECOLR	;		 ;CHANGE LEVEL INDICATOR TO PINEAPPLE.
   4271  de01		       a9 04		      LDA	#$04
   4272  de03		       8d 02 26 	      STA	HSCDIFFL
   4273  de06		       a9 48		      LDA	#PINEAPPL
   4274  de08		       8d 05 1a 	      STA	L0Z9+5
   4275  de0b				   ANYLEVEL		;				 ;RETURN 0 AS HSC EXISTS.
   4276  de0b		       ad f0 23 	      LDA	VEGCOLR+1
   4277  de0e		       8d 1c 23 	      STA	P0C0SHAD+21
   4278  de11		       ad ef 23 	      LDA	VEGCOLR
   4279  de14		       8d 1d 23 	      STA	P0C0SHAD+22
   4280  de17		       20 c2 db 	      JSR	DOCOLORS	;		 ;RETURNS 0 IN X.
   4281  de1a		       68	   NOHSC      PLA
   4282  de1b		       60		      RTS
   4283  de1c
   4284  de1c
   4285  de1c							;*;*;*;*;*;*;*;*;*;*;*;*;*;*;*;*;*;*;*;*;*;*;*;*;*;*;*;*;*;*;*;*;*;*;*;*;*;*;*;*;*;*;*;*;*;*;*;*;*;*;*;*;*;*;*;*;*;*;*;*;*;*;*;*;*;*;*;*;*;*;*;*;*;*;*;*;*;*;*;*
   4286  de1c							;*;*;*;*;*;*;*;*;*;*;*
   4287  de1c							;*;*;*;*;*;*;*;*;*;*;*       PLAYREDY: PUT UP PLAYER N MESSAGE WHEN SWITCHING PLAYERS
   4288  de1c							;*;*;*;*;*;*;*;*;*;*;*;		 (X = 0 WHEN CALLED), OR GAME OVER (X = 1).
   4289  de1c							;*;*;*;*;*;*;*;*;*;*;*
   4290  de1c							;*;*;*;*;*;*;*;*;*;*;*;*;*;*;*;*;*;*;*;*;*;*;*;*;*;*;*;*;*;*;*;*;*;*;*;*;*;*;*;*;*;*;*;*;*;*;*;*;*;*;*;*;*;*;*;*;*;*;*;*;*;*;*;*;*;*;*;*;*;*;*;*;*;*;*;*;*;*;*;*
   4291  de1c				   PLAYREDY
   4292  de1c		       8a		      TXA
   4293  de1d		       48		      PHA
   4294  de1e		       a9 01		      LDA	#1
   4295  de20		       85 a8		      STA	NONOISE
   4296  de22
   4297  de22		       20 ec eb 	      JSR	BACKMAP	;		  ;RETURNS 0 IN X.
   4298  de25							;*;*;*       LDA     #0
   4299  de25		       8e be 1b 	      STX	L0Z0+1
   4300  de28
   4301  de28		       a2 0a		      LDX	#10
   4302  de2a		       20 d6 db 	      JSR	SETDPLH
   4303  de2d		       a0 03		      LDY	#3
   4304  de2f		       a9 d0		      LDA	#$D0
   4305  de31		       91 db		      STA	(DPLOW),Y
   4306  de33		       68		      PLA
   4307  de34		       48		      PHA
   4308  de35		       aa		      TAX
   4309  de36		       bc 3a c0 	      LDY	MESGDPLY,X
   4310  de39		       bd 38 c0 	      LDA	MESGOFST,X
   4311  de3c		       aa		      TAX
   4312  de3d		       20 eb e6 	      JSR	PUTMPLAT
   4313  de40
   4314  de40		       68		      PLA
   4315  de41		       d0 0a		      BNE	NOPNUM
   4316  de43		       a0 1d		      LDY	#29
   4317  de45		       a6 87		      LDX	PLAYNUM
   4318  de47		       f0 04		      BEQ	NOPNUM
   4319  de49		       a9 9a		      LDA	#FULL0+4
   4320  de4b		       91 db		      STA	(DPLOW),Y
   4321  de4d
   4322  de4d		       20 14 fc    NOPNUM     JSR	DLFLIP
   4323  de50		       20 e8 e5 	      JSR	SETPAL3
   4324  de53
   4325  de53		       20 ca d1 	      JSR	SCRNON
   4326  de56		       a9 64		      LDA	#100
   4327  de58		       20 4c dd 	      JSR	FREEZFRM
   4328  de5b
   4329  de5b		       20 f4 e8 	      JSR	RESPAL3
   4330  de5e		       c8		      INY
   4331  de5f		       84 a8		      STY	NONOISE
   4332  de61
   4333  de61		       20 be d1 	      JSR	SCRNOFF
   4334  de64		       20 5b d1 	      JSR	IDLISTS	;		  ;RE-INITIALIZE DISPLAY LISTS.
   4335  de67		       a9 60		      LDA	#W1ZONE
   4336  de69		       8d be 1b 	      STA	L0Z0+1
   4337  de6c
   4338  de6c		       60		      RTS
   4339  de6d
   4340  de6d							;*;*;*;*;*;*;*;*;*;*;*;*;*;*;*;*;*;*;*;*;*;*;*;*;*;*;*;*;*;*;*;*;*;*;*;*;*;*;*;*;*;*;*;*;*;*;*;*;*;*;*;*;*;*;*;*;*;*;*;*;*;*;*;*;*;*;*;*;*;*;*;*;*;*;*;*;*;*;*;*
   4341  de6d
   4342  de6d							;*;*;*;*;*;*;*;*;*;*;*       CHKSTATE:  CHECK FOR RESET, SELECT, OR, IF WE"RE IN ATTRACT
   4343  de6d							;*;*;*;*;*;*;*;*;*;*;*;		MODE, THE BUTTON ON THE JOYSTICK.  IF ANY OF THESE
   4344  de6d							;*;*;*;*;*;*;*;*;*;*;*;		BUTTONS ARE PRESSED, THE STATE OF THE GAME WILL
   4345  de6d							;*;*;*;*;*;*;*;*;*;*;*;		BE CHANGED.  NOTE THAT THIS ROUTINE DOES NOT READ
   4346  de6d							;*;*;*;*;*;*;*;*;*;*;*;		THE JOYSTICK NOR THE BUTTON ON THE JOYSTICK IF
   4347  de6d							;*;*;*;*;*;*;*;*;*;*;*;		WE"RE PLAYING A REAL GAME.
   4348  de6d
   4349  de6d							;*;*;*;*;*;*;*;*;*;*;*;*;*;*;*;*;*;*;*;*;*;*;*;*;*;*;*;*;*;*;*;*;*;*;*;*;*;*;*;*;*;*;*;*;*;*;*;*;*;*;*;*;*;*;*;*;*;*;*;*;*;*;*;*;*;*;*;*;*;*;*;*;*;*;*;*;*;*;*;*
   4350  de6d				   CHKSTATE
   4351  de6d							;*	    LDX     #0
   4352  de6d							;*	    LDA     INPT5;		    ; SECOND PLAYER"S BUTTON IN USE?
   4353  de6d							;*	    BMI     OTHERJOY
   4354  de6d							;*	    INX
   4355  de6d							;*OTHERJOY  LDA     SWCHA;		     ; SECOND PLAYER"S JOYSTICK IN USE?
   4356  de6d							;*	    AND     #$0F
   4357  de6d							;*	    CMP     #$0F
   4358  de6d							;*	    BEQ     SETALIEN
   4359  de6d							;*	    INX
   4360  de6d							;*SETALIEN  TXA
   4361  de6d							;*	    ORA     ALIEN
   4362  de6d							;*	    STA     ALIEN
   4363  de6d
   4364  de6d		       a0 01		      LDY	#1	;		       ;FLAG FOR PAUSE BUTTON HIT.
   4365  de6f		       a6 a0		      LDX	ATTRACT	;		  ;ATTRACT MODE?
   4366  de71		       d0 5f		      BNE	CHKBUTN
   4367  de73		       a9 08		      LDA	#8
   4368  de75		       2c 82 02 	      BIT	SWCHB
   4369  de78		       d0 63		      BNE	CHKRSET
   4370  de7a		       e8		      INX
   4371  de7b		       86 a8		      STX	NONOISE
   4372  de7d
   4373  de7d		       2c 82 02    RPAUSE     BIT	SWCHB	;		    ;PAUSE BUTTON PRESSED.
   4374  de80		       f0 fb		      BEQ	RPAUSE
   4375  de82		       86 ae		      STX	SELCTIM
   4376  de84		       88		      DEY		;			      ;FLAG FOR PAUSE BUTTON HIT.
   4377  de85		       20 1c df 	      JSR	UNBOUNCE
   4378  de88				   DOPAUSE
   4379  de88		       20 61 df 	      JSR	RSELRES
   4380  de8b		       b0 41		      BCS	PSELRES
   4381  de8d		       a6 ae		      LDX	SELCTIM
   4382  de8f		       d0 23		      BNE	CONTPAUS
   4383  de91		       a2 10		      LDX	#$10	;		     ;TURN OFF DMA.
   4384  de93		       86 3c		      STX	CTRL
   4385  de95		       a6 0c	   OFFDMA     LDX	INPT4	;		    ;IF BUTTON OR JOYSTICKED TOUCHED,
   4386  de97		       10 13		      BPL	ONDMA	;		    ;  TURN DMA BACK ON, BUT STILL STAY
   4387  de99		       ae 80 02 	      LDX	SWCHA	;		    ;  IN PAUSE MODE.
   4388  de9c		       e0 ff		      CPX	#$FF
   4389  de9e		       d0 0c		      BNE	ONDMA
   4390  dea0		       2c 82 02 	      BIT	SWCHB
   4391  dea3		       f0 17		      BEQ	ZRPAUSE
   4392  dea5		       20 61 df 	      JSR	RSELRES
   4393  dea8		       b0 24		      BCS	PSELRES
   4394  deaa		       90 e9		      BCC	OFFDMA
   4395  deac		       a2 50	   ONDMA      LDX	#$50	;		     ;TURN DMA BACK ON.
   4396  deae		       86 3c		      STX	CTRL
   4397  deb0		       a2 01		      LDX	#1	;		       ;RESET COUNTER.
   4398  deb2		       86 ae		      STX	SELCTIM
   4399  deb4		       2c 82 02    CONTPAUS   BIT	SWCHB
   4400  deb7		       d0 cf		      BNE	DOPAUSE
   4401  deb9		       20 1c df 	      JSR	UNBOUNCE
   4402  debc		       2c 82 02    ZRPAUSE    BIT	SWCHB
   4403  debf		       f0 fb		      BEQ	ZRPAUSE
   4404  dec1		       a2 50		      LDX	#$50	;		     ;TURN DMA ON.
   4405  dec3		       86 3c		      STX	CTRL
   4406  dec5		       20 1c df 	      JSR	UNBOUNCE
   4407  dec8		       a2 00		      LDX	#0
   4408  deca		       86 a8		      STX	NONOISE	;		  ;X MUST REMAIN 0 FOR LATER!
   4409  decc		       f0 0f		      BEQ	CHKRSET
   4410  dece		       d0 36	   PSELRES    BNE	GOSELCT
   4411  ded0		       f0 11		      BEQ	PRESET
   4412  ded2
   4413  ded2		       ad f1 23    CHKBUTN    LDA	IGNORE
   4414  ded5		       d0 06		      BNE	CHKRSET
   4415  ded7		       ca		      DEX
   4416  ded8		       a5 0c		      LDA	INPT4	;		    ;IF BUTTON PRESSED, BEGIN NEW GAME ON
   4417  deda		       10 2d		      BPL	NEWAGAME	;		 ;  CURRENT RACK.
   4418  dedc		       e8		      INX
   4419  dedd
   4420  dedd		       ad 82 02    CHKRSET    LDA	SWCHB	;		    ;RESET PRESSED?
   4421  dee0		       4a		      LSR
   4422  dee1		       b0 0e		      BCS	CHKSEL
   4423  dee3		       20 f9 e9    PRESET     JSR	SETRACK1	;		 ;START ON RACK 1 (RETURNS 1 IN A).
   4424  dee6		       85 a8		      STA	NONOISE
   4425  dee8		       4e 82 02    DEBRSET    LSR	SWCHB	;		    ;STAY HERE UNTIL RESET RELEASED.
   4426  deeb		       90 fb		      BCC	DEBRSET
   4427  deed		       a2 00		      LDX	#0	;		       ;REAL GAME.
   4428  deef		       b0 18		      BCS	NEWAGAME
   4429  def1
   4430  def1		       4a	   CHKSEL     LSR		;			;SELECT PRESSED?
   4431  def2		       90 12		      BCC	GOSELCT	;		  ;IF SO, STAY IN SELECT MODE UNTIL RESET
   4432  def4							;				 ;  OR BUTTON PRESSED.
   4433  def4		       a5 a0		      LDA	ATTRACT	;		  ;TWO WAYS TO ENTER SELECT: IF ATTRACT
   4434  def6		       f0 68		      BEQ	RADD	;		     ;	AND JOYSTICK PRESSED, ENTER SELECT.
   4435  def8		       ad f1 23 	      LDA	IGNORE
   4436  defb		       d0 63		      BNE	RADD
   4437  defd		       ad 80 02 	      LDA	SWCHA
   4438  df00		       29 f0		      AND	#$F0
   4439  df02		       c9 f0		      CMP	#$F0
   4440  df04		       f0 5a		      BEQ	RADD
   4441  df06		       20 c4 da    GOSELCT    JSR	SELECT
   4442  df09
   4443  df09		       86 a0	   NEWAGAME   STX	ATTRACT
   4444  df0b		       20 be d1 	      JSR	SCRNOFF	;		  ;BLANK SCREEN DURING INITIALIZATION.
   4445  df0e		       a6 a0		      LDX	ATTRACT	;		  ;INITIALIZE GAME.
   4446  df10		       20 de d1 	      JSR	INITGAME
   4447  df13		       20 2f df 	      JSR	NEWDLST
   4448  df16		       a2 ff		      LDX	#$FF
   4449  df18		       9a		      TXS
   4450  df19		       4c 1e d0 	      JMP	PLAYGAME
   4451  df1c
   4452  df1c		       a6 86	   UNBOUNCE   LDX	FRMCNT	;		   ;DEBOUNCE PAUSE SWITCH.
   4453  df1e		       e8		      INX
   4454  df1f		       e8		      INX
   4455  df20		       e4 86	   BOUNCER    CPX	FRMCNT
   4456  df22		       d0 fc		      BNE	BOUNCER
   4457  df24		       60		      RTS
   4458  df25
   4459  df25				   CHKRACK
   4460  df25		       20 38 df 	      JSR	TESTRACK
   4461  df28		       d0 36		      BNE	RADD
   4462  df2a		       86 80		      STX	LASTMOVE
   4463  df2c		       20 db e4 	      JSR	DDMIDDLE
   4464  df2f				   NEWDLST
   4465  df2f		       a5 a0		      LDA	ATTRACT
   4466  df31		       85 a8		      STA	NONOISE
   4467  df33		       a9 28		      LDA	#40
   4468  df35		       4c 33 dd 	      JMP	GENFREEZ
   4469  df38
   4470  df38
   4471  df38				   TESTRACK
   4472  df38		       a5 84		      LDA	DETHWISH
   4473  df3a		       05 e3		      ORA	SQUASH
   4474  df3c							;*	    ORA     DEATH;		    ;UNNECESSARY SO LONG AS CALL TO
   4475  df3c		       d0 20		      BNE	NOTEND	;		   ; CHKDEATH PRECEDES CALL TO TESTRACK
   4476  df3e		       a2 07		      LDX	#NUMCREAT
   4477  df40		       b5 b2	   NXTCREAT   LDA	MONSTAT,X
   4478  df42		       10 1a		      BPL	NOTEND
   4479  df44		       ca		      DEX
   4480  df45		       10 f9		      BPL	NXTCREAT
   4481  df47		       a0 11		      LDY	#SNG13	;		   ;RACKEND MUSIC
   4482  df49		       20 ef fd 	      JSR	NOISE
   4483  df4c		       a9 9a		      LDA	#154	;		     ;ALLOW TIME FOR MUSIC TO FINISH.
   4484  df4e		       20 4c dd 	      JSR	FREEZFRM
   4485  df51		       a6 87		      LDX	PLAYNUM
   4486  df53		       f6 9b		      INC	RACKNUM,X
   4487  df55		       20 be d1 	      JSR	SCRNOFF
   4488  df58		       20 44 d2 	      JSR	INITRACK
   4489  df5b		       a2 00		      LDX	#0
   4490  df5d		       60		      RTS
   4491  df5e		       a2 01	   NOTEND     LDX	#1
   4492  df60		       60	   RADD       RTS
   4493  df61
   4494  df61							;*;*;*;*;*;*;*;*;*;*;*;*;*;*;*;*;*;*;*;*;*;*;*;*;*;*;*;*;*;*;*;*;*;*;*;*;*;*;*;*;*;*;*;*;*;*;*;*;*;*;*;*;*;*;*;*;*;*;*;*;*;*;*;*;*;*;*;*;*;*;*;*;*;*;*;*;*;*;*;*
   4495  df61				   RSELRES
   4496  df61		       a2 00		      LDX	#0
   4497  df63		       ad 82 02 	      LDA	SWCHB
   4498  df66		       4a		      LSR
   4499  df67		       b0 03		      BCS	RSELECT
   4500  df69		       e8		      INX
   4501  df6a		       d0 05		      BNE	BREAD
   4502  df6c		       4a	   RSELECT    LSR
   4503  df6d		       b0 02		      BCS	BREAD
   4504  df6f		       a2 02		      LDX	#2
   4505  df71		       a9 08	   BREAD      LDA	#8
   4506  df73		       e0 01		      CPX	#1
   4507  df75		       60		      RTS
   4508  df76							;*;*;*;*;*;*;*;*;*;*;*;*;*;*;*;*;*;*;*;*;*;*;*;*;*;*;*;*;*;*;*;*;*;*;*;*;*;*;*;*;*;*;*;*;*;*;*;*;*;*;*;*;*;*;*;*;*;*;*;*;*;*;*;*;*;*;*;*;*;*;*;*;*;*;*;*;*;*;*;*
   4509  df76							;*;*;*;*;*;*;*;*;*;*;*;							  ;*;*;*;*;*;*;*;*;*;*;*
   4510  df76							;*;*;*;*;*;*;*;*;*;*;*       ADDSCORE:  ADDS NEW POINTS TO EXISTING SCORE	 ;*;*;*;*;*;*;*;*;*;*;*
   4511  df76							;*;*;*;*;*;*;*;*;*;*;*;		  FOR APPROPRIATE PLAYER, AND UPDATES	  ;*;*;*;*;*;*;*;*;*;*;*
   4512  df76							;*;*;*;*;*;*;*;*;*;*;*;		  DIRTMAP CHARACTERS FOR NEW TOTAL.	  ;*;*;*;*;*;*;*;*;*;*;*
   4513  df76							;*;*;*;*;*;*;*;*;*;*;*;	  INPUT:  Y - MID BYTE. 			  ;*;*;*;*;*;*;*;*;*;*;*
   4514  df76							;*;*;*;*;*;*;*;*;*;*;*;		  A - LOW BYTE. 			  ;*;*;*;*;*;*;*;*;*;*;*
   4515  df76							;*;*;*;*;*;*;*;*;*;*;*;	   USES:  X,Y,A,SCOREPTR,SCOREPTR+1.		  ;*;*;*;*;*;*;*;*;*;*;*
   4516  df76							;*;*;*;*;*;*;*;*;*;*;*;							  ;*;*;*;*;*;*;*;*;*;*;*
   4517  df76							;*;*;*;*;*;*;*;*;*;*;*;*;*;*;*;*;*;*;*;*;*;*;*;*;*;*;*;*;*;*;*;*;*;*;*;*;*;*;*;*;*;*;*;*;*;*;*;*;*;*;*;*;*;*;*;*;*;*;*;*;*;*;*;*;*;*;*;*;*;*;*;*;*;*;*;*;*;*;*;*
   4518  df76
   4519  df76				   ADDSCORE
   4520  df76		       a6 a0		      LDX	ATTRACT	;		  ;DON"T CHANGE SCORE IF ATTRACT MODE.
   4521  df78		       d0 e6		      BNE	RADD
   4522  df7a		       a6 85		      LDX	ENTRY	;		    ;DON"T CHANGE SCORE IF ENTRY MODE.
   4523  df7c		       d0 e2		      BNE	RADD	;		     ;RADD PRECEDES ADDSCORE!
   4524  df7e
   4525  df7e		       a6 87	   UPDSCORE   LDX	PLAYNUM
   4526  df80		       18		      CLC
   4527  df81		       f8		      SED
   4528  df82		       75 a2		      ADC	SCOREL,X	;		 ;LOW BYTE OF SCORE.
   4529  df84		       95 a2		      STA	SCOREL,X
   4530  df86		       98		      TYA
   4531  df87		       75 a4		      ADC	SCOREM,X	;		 ;MID BYTE OF SCORE.
   4532  df89		       95 a4		      STA	SCOREM,X
   4533  df8b		       90 25		      BCC	ADDSDONE
   4534  df8d		       a9 00		      LDA	#0
   4535  df8f		       75 a6		      ADC	SCOREH,X	;		 ;HIGH BYTE OF SCORE.
   4536  df91		       95 a6		      STA	SCOREH,X
   4537  df93
   4538  df93		       c9 02		      CMP	#2	;		       ;DID WE JUST PASS 20,00?
   4539  df95		       f0 08		      BEQ	NEWMAN
   4540  df97		       29 0f		      AND	#$F	;		      ;MULTIPLE OF 100,00?
   4541  df99		       f0 04		      BEQ	NEWMAN
   4542  df9b		       c9 05		      CMP	#5	;		       ;MULTIPLE OF 50,00?
   4543  df9d		       d0 13		      BNE	ADDSDONE
   4544  df9f
   4545  df9f		       d8	   NEWMAN     CLD
   4546  dfa0		       b5 9e		      LDA	NUMMEN,X
   4547  dfa2		       c9 0a		      CMP	#10	;		      ;MAXIMUM OF 9 EXTRA LIVES AT ONCE.
   4548  dfa4		       f0 0c		      BEQ	ADDSDONE
   4549  dfa6		       f6 9e		      INC	NUMMEN,X
   4550  dfa8		       20 3b dd 	      JSR	UPDMEN	;		   ;UPDATE LIVES INDICATOR (CHKDEATH).
   4551  dfab		       a0 0f		      LDY	#SNG11
   4552  dfad		       20 ef fd 	      JSR	NOISE	;		    ;NEW LIFE NOISE.
   4553  dfb0		       a6 87		      LDX	PLAYNUM
   4554  dfb2
   4555  dfb2		       d8	   ADDSDONE   CLD
   4556  dfb3		       a0 05		      LDY	#5	;		       ;PLAYER 0 SCORE IS AT LEFT EDGE.
   4557  dfb5		       8a		      TXA
   4558  dfb6		       f0 02		      BEQ	P0SCORE
   4559  dfb8		       a0 1d		      LDY	#29	;		      ;PLAYER 1 SCORE IS AT RIGHT EDGE.
   4560  dfba
   4561  dfba		       38	   P0SCORE    SEC		;			      ;IF (CARRY) THEN WE HAVEN"T SEEN A
   4562  dfbb		       a5 88		      LDA	BONZO	;		    ;  NUMBER YET IN SCORE (USED FOR
   4563  dfbd		       f0 09		      BEQ	REGGAME	;		  ;  CHANGING LEADING ZEROS TO BLANKS).
   4564  dfbf		       a9 3e		      LDA	#$3E	;		     ;USE PALETTE 3 FOR TEDDY HEAD.
   4565  dfc1		       99 be 1b 	      STA	L0Z0+1,Y
   4566  dfc4		       a9 32		      LDA	#TEDDY	;		   ;BONZO MODE HAS A LEADING TEDDY HEAD.
   4567  dfc6		       d0 05		      BNE	NEXTT1
   4568  dfc8		       b5 a6	   REGGAME    LDA	SCOREH,X	;		 ;HIGH BYTE OF SCORE.
   4569  dfca		       20 e0 e3 	      JSR	ANDF0
   4570  dfcd		       99 bd 1b    NEXTT1     STA	L0Z0,Y
   4571  dfd0		       b5 a6		      LDA	SCOREH,X
   4572  dfd2		       20 f1 df 	      JSR	ANDF
   4573  dfd5		       99 c1 1b    NEXTT2     STA	L0Z0+4,Y
   4574  dfd8		       b5 a4		      LDA	SCOREM,X
   4575  dfda		       20 e0 e3 	      JSR	ANDF0
   4576  dfdd		       99 c5 1b    NEXTT3     STA	L0Z0+8,Y
   4577  dfe0		       b5 a4		      LDA	SCOREM,X
   4578  dfe2		       20 f1 df 	      JSR	ANDF
   4579  dfe5		       99 c9 1b    NEXTT4     STA	L0Z0+12,Y
   4580  dfe8		       b5 a2		      LDA	SCOREL,X
   4581  dfea		       20 e0 e3 	      JSR	ANDF0
   4582  dfed		       99 cd 1b    NEXTT5     STA	L0Z0+16,Y
   4583  dff0
   4584  dff0		       60	   SCOREDON   RTS
   4585  dff1
   4586  dff1							;*;*;*;*;*;*;*;*;*;*;*;*;*;*;*;*;*;*;*
   4587  dff1							;* MOVED TO ARRAYS:
   4588  dff1							;*ANDF0     AND     #$F0
   4589  dff1							;*	    BNE     NOTZERO1
   4590  dff1							;*	    BCC     NOTZERO1
   4591  dff1							;*	    LDA     #BLANK1;		    ;BLANK STAMP.
   4592  dff1							;*	    BEQ     ANDF0RTS
   4593  dff1							;*NOTZERO1  LSR;		       ;GET INDEX INTO STAMP TABLE FOR THIS
   4594  dff1							;*	    LSR;		      ;  DIGIT OF SCORE.
   4595  dff1							;*	    LSR
   4596  dff1							;*	    CLC
   4597  dff1							;*	    ADC     #FULL0
   4598  dff1							;*ANDF0RTS  RTS
   4599  dff1							;*;*;*;*;*;*;*;*;*;*;*;*;*;*;*;*;*;*;*
   4600  dff1		       29 0f	   ANDF       AND	#$F
   4601  dff3		       90 06		      BCC	NOTZERO2	;		 ;ALREADY HAD A NON-ZERO NUMBER?
   4602  dff5		       d0 04		      BNE	NOTZERO2	;		 ;IS THIS DIGIT NON-ZERO?
   4603  dff7		       a9 00		      LDA	#BLANK1	;		  ;NO, SO KEEP DISPLAYING BLANK.
   4604  dff9		       f0 04		      BEQ	ANDFRTS
   4605  dffb				   NOTZERO2
   4606  dffb		       0a		      ASL
   4607  dffc		       18		      CLC
   4608  dffd		       69 96		      ADC	#FULL0
   4609  dfff		       60	   ANDFRTS    RTS
   4610  e000				   ENDD000
   4611  e000							;*	    ORG     $DFC0
   4612  e000							;*;*;* THESE MUST BE ON SAME PAGE...
   4613  e000							;*PINEDIFF  DC.B      29,29,29,29,29,29,29,29,15,8,13,4,0,15,15,11,4
   4614  e000							;*	     DC.B      29
   4615  e000							;*BONZDIFF  DC.B      29,29,29,29,29,29,29,29	      ;THIS ROW IS OVERLAPPED.
   4616  e000							;*	     DC.B      19,4,3,3,24,1,4,0,17
   4617  e000							;*GAMENAME  DC.B      29,29,29,29,29,29,29,29,29     ;THIS ROW IS OVERLAPPED.
   4618  e000							;*	     DC.B      3,8,6,29,3,20,6,29,29,29,29,29
   4619  e000							;*	     DC.B      29,29,29,29,29
   4620  e000							;*;*;*;*;*;*;*;*;*;*;*;*;*;*;*;*;*;*;*;*;*;*;*;*;*;*;*;*;*;*;*;*;*;*;*;*;*;*;*;*;*;*;*;*;*;*;*;*;*;*;*;*;*;*;*;*;*;*;*;*;*;*;*;*;*;*;*;*;*;*;*;*;*;*;*;*;*;*;*
   4621  e000							;*;*;*;*;*;*;*;*;*;*;*;*;*;*;*;*;*;*;*;*;*;*;*;*;*;*;*;*;*;*;*;*;*;*;*;*;*;*;*;*;*;*;*;*;*;*;*;*;*;*;*;*;*;*;*;*;*;*;*;*;*;*;*;*;*;*;*;*;*;*;*;*;*;*;*;*;*;*;*
   4622  e000
   4623  e000							;*;*;*;*;*;*;*;*;*;*;*;	       CHARACTER AND STAMP DATA 		  ;*;*;*;*;*;*;*;*;*;*
   4624  e000							;*;*;*;*;*;*;*;*;*;*;*;			CSET1				  ;*;*;*;*;*;*;*;*;*;*
   4625  e000							;*;*;*;*;*;*;*;*;*;*;*;		    PAGES 40 - 4B			  ;*;*;*;*;*;*;*;*;*;*
   4626  e000
   4627  e000							;*;*;*;*;*;*;*;*;*;*;*;*;*;*;*;*;*;*;*;*;*;*;*;*;*;*;*;*;*;*;*;*;*;*;*;*;*;*;*;*;*;*;*;*;*;*;*;*;*;*;*;*;*;*;*;*;*;*;*;*;*;*;*;*;*;*;*;*;*;*;*;*;*;*;*;*;*;*;*
   4628  e000
   4629  e000					      ORG	$E000	;		    ;BOTTOM SCAN LINE: OFFSET = 0.
   4630  e000
   4631  e000		       00 00 00 00*	      DC.B	$00,$00,$00,$00,$00,$00,$00,$00	;0-7	 DIRT CHARACTERS
   4632  e008		       54 54 54 54*	      DC.B	$54,$54,$54,$54,$54,$5D,$54,$5D	;8-15
   4633  e010		       40 00 40 00*	      DC.B	$40,$00,$40,$00,$40,$00,$40,$00	;16-23
   4634  e018		       54 54 54 54*	      DC.B	$54,$54,$54,$54,$55,$5D	;		  ;24-29
   4635  e01e		       6a a9		      DC.B	$6A,$A9	;				  ;30-31  SKY
   4636  e020		       a9 5a a5 6a	      DC.B	$A9,$5A,$A5,$6A	;			  ;32-35  BIG,SML FLOWER
   4637  e024		       55 5d		      DC.B	$55,$5D	;				  ;36-37  FULL DIRT CHAR
   4638  e026		       55 5d 40 01*	      DC.B	$55,$5D,$40,$01,$55,$5D,$55,$5D	;38-45  HALF FULL DIRT
   4639  e02e		       55 5d 40 01	      DC.B	$55,$5D,$40,$01	;			  ;46-49  HALF FULL DIRT
   4640  e032
   4641  e032		       0e b0		      DC.B	$0E,$B0	;				  ;50-51  TEDDY HEAD
   4642  e034		       80 00 00 00*	      DC.B	$80,$00,$00,$00,$0E,$EF,$00,$00	;52-59  VEGGIES:C,R,M,C
   4643  e03c		       0a 80 00 00*	      DC.B	$0A,$80,$00,$00,$00,$00,$00,$00	;60-67  E,BP,T,O
   4644  e044		       00 00 00 00*	      DC.B	$00,$00,$00,$00,$0A,$A8	;		  ;68-73  W,G,P
   4645  e04a
   4646  e04a		       50 00 00 0d	      DC.B	$50,$00,$00,$0D	;			  ;74-77  R,L DIRT EDGE
   4647  e04e
   4648  e04e		       00 00		      DC.B	$00,$00	;				  ;78-79  S
   4649  e050		       00 00		      DC.B	$00,$00	;				  ;80-81  A
   4650  e052		       00 00		      DC.B	$00,$00	;				  ;82-83  Y
   4651  e054		       00 00 00 00	      DC.B	$00,$00,$00,$00	;			  ;84-87  LETRG,LETRM
   4652  e058
   4653  e058		       00 cc cc cc*	      DC.B	$00,$CC,$CC,$CC,$CC,$00	;		  ;88-93  (C) 1983 ATARI
   4654  e05e							;DC.B	    $0C,$33,$33,$30,$C0,$C0;		    ;94-99  (C) 1982 NAMCO
   4655  e05e		       c0 c0 30 33*	      DC.B	$C0,$C0,$30,$33,$33,$0C	;94-99  (C) 1982 NAMCO
   4656  e064		       aa 80 02 aa*	      DC.B	$AA,$80,$02,$AA,$2A,$AA,$AA,$80	;100-07 TITLED10,9
   4657  e06c		       aa 80 aa a8*	      DC.B	$AA,$80,$AA,$A8,$00,$AA,$A8,$00	;108-15 TITLEG10,9
   4658  e074		       aa a8 2a aa*	      DC.B	$AA,$A8,$2A,$AA,$00,$AA,$A8,$00	;116-23 TITLEU10,9
   4659  e07c		       00 03 ff 60*	      DC.B	$00,$03,$FF,$60,$00,$FF,$3F,$C0	;124-31 TDDUG10,9
   4660  e084		       aa aa 0a a0	      DC.B	$AA,$AA,$0A,$A0	;			  ;132-35 TITLEI10,9
   4661  e088
   4662  e088		       a0		      DC.B	$A0	;				      ;136    RSKYHALF (137)
   4663  e089		       00 00 00 00	      DC.B	$00,$00,$00,$00	;			  ;137-40 16 PIX BLANK3.
   4664  e08d		       0a		      DC.B	$0A	;				      ;141    LSKYHALF (140)
   4665  e08e		       00 00		      DC.B	$00,$00	;				  ;142-43 R
   4666  e090		       ff ff ff ff*	      DC.B	$FF,$FF,$FF,$FF,$FF,$F0	;		  ;144-49 BLACKBOX
   4667  e096
   4668  e096		       00 00 00 00*	      DC.B	$00,$00,$00,$00,$00,$00	;		  ;150-55 NUMBERS: 0,1,2
   4669  e09c		       00 00 00 00*	      DC.B	$00,$00,$00,$00,$00,$00	;		  ;156-61 3,4,5
   4670  e0a2		       00 00 00 00*	      DC.B	$00,$00,$00,$00,$00,$00	;		  ;162-67 6,7,8
   4671  e0a8		       00 00		      DC.B	$00,$00	;				  ;168-69 9
   4672  e0aa
   4673  e0aa
   4674  e0aa					      ORG	$E0AA
   4675  e0aa							;*;*;*;*;*  FROM FALL.S FILE
   4676  e0aa		       da be c2 c6 DISPTS     DC.B	THOUSND1,THOUS25,THOUS4,THOUS6
   4677  e0ae		       ca ce d2 d6	      DC.B	THOUS8,THOUS10,THOUS12,THOUS15
   4678  e0b2
   4679  e0b2
   4680  e0b2		       22 2a 52 68 DOROCKL    DC.B	<RSLIP,<RTOTTER,<RFALL,<RBOTTOM
   4681  e0b6		       a3 a3 b8 c4	      DC.B	<RSPLIT,<RCRUMBL,<RPOINTS,<RFINISH
   4682  e0ba
   4683  e0ba		       f5 f5 f5 f6 DOROCKH    DC.B	>RSLIP,>RTOTTER,>RFALL,>RBOTTOM
   4684  e0be		       f6 f6 f6 f6	      DC.B	>RSPLIT,>RCRUMBL,>RPOINTS,>RFINISH
   4685  e0c2
   4686  e0c2		       a8 aa	   RKANIM     DC.B	SPLTROCK,CRMBROCK
   4687  e0c4
   4688  e0c4
   4689  e0c4							;  DON"T USE THIS SUBR UNTIL SURE DIGDUG IS GOING TO ANIMATE.
   4690  e0c4							;  USES X,A.
   4691  e0c4							;  USES TEMP.
   4692  e0c4		       a5 e0	   ANIM       LDA	ANIMCNT	;		  ;THERE ARE THREE STAMPS EACH DIRECTION
   4693  e0c6		       38		      SEC
   4694  e0c7		       e9 01		      SBC	#1
   4695  e0c9		       10 02		      BPL	ANIM2
   4696  e0cb		       a9 02		      LDA	#2
   4697  e0cd		       85 e0	   ANIM2      STA	ANIMCNT
   4698  e0cf		       0a		      ASL
   4699  e0d0		       0a		      ASL
   4700  e0d1		       84 cc		      STY	TEMP
   4701  e0d3							;*	    CLC
   4702  e0d3		       65 cc		      ADC	TEMP
   4703  e0d5		       aa		      TAX
   4704  e0d6		       bd c3 e1 	      LDA	DANIMS,X
   4705  e0d9		       85 66		      STA	DDINDX
   4706  e0db		       60		      RTS
   4707  e0dc
   4708  e0dc							;*;*;*;*;*  FROM DDMOVE.S FILE
   4709  e0dc		       00	   XFROMPL    DC.B	$00	;			   ;	  ,$08,$00,$00
   4710  e0dd
   4711  e0dd		       08 00 00 00*XTOPL      DC.B	$08,$00,$00,$00,$08,$F8,$00,$00,$03,$FD,$00,$00
   4712  e0e9		       10 f8 00 00	      DC.B	$10,$F8,$00,$00
   4713  e0ed		       07 f9 00 	      DC.B	$07,$F9,$00	;		   ;	  ,$00
   4714  e0f0
   4715  e0f0							; NOTE:  FLATPTS IS STORED AS HALF OF TRUE POINT VALUE
   4716  e0f0		       00 05 50 12*FLATPTS    DC.B	$00,$05,$50,$12,$00,$20,$00,$30
   4717  e0f8		       00 40 00 50*	      DC.B	$00,$40,$00,$50,$00,$60,$00,$75
   4718  e100
   4719  e100							;*;*;*;*;* PAGE 83 BYTES FULL
   4720  e100				   ENDE0AA
   4721  e100
   4722  e100
   4723  e100					      ORG	$E100	;		    ;LINE 11: OFFSET = 1.
   4724  e100
   4725  e100		       00 00 00 00*	      DC.B	$00,$00,$00,$00,$00,$01,$00,$01	;0-7
   4726  e108		       00 00 00 00*	      DC.B	$00,$00,$00,$00,$00,$05,$00,$05	;8-15
   4727  e110		       40 00 40 00*	      DC.B	$40,$00,$40,$00,$40,$01,$40,$01	;16-23
   4728  e118		       50 00 50 00*	      DC.B	$50,$00,$50,$00,$50,$05	;		  ;24-29
   4729  e11e		       aa aa		      DC.B	$AA,$AA	;				  ;30-31  SKY
   4730  e120		       a5 56 95 5a	      DC.B	$A5,$56,$95,$5A	;			  ;32-35  BIG,SML FLOWER
   4731  e124		       55 55		      DC.B	$55,$55	;				  ;36-37  FULL DIRT
   4732  e126		       05 55 40 01*	      DC.B	$05,$55,$40,$01,$55,$50,$55,$55	;38-45  HALF FULL DIRT
   4733  e12e		       05 50 40 01	      DC.B	$05,$50,$40,$01	;			  ;46-49  HALF FULL DIRT
   4734  e132
   4735  e132		       2b 2c		      DC.B	$2B,$2C	;				  ;50-51  TEDDY HEAD
   4736  e134		       a0 00 57 00*	      DC.B	$A0,$00,$57,$00,$03,$B8,$00,$00	;52-59  VEGGIES:C,R,M,C
   4737  e13c		       2a a0 00 00*	      DC.B	$2A,$A0,$00,$00,$00,$00,$33,$30	;60-67  E,BP,T,O
   4738  e144		       00 00 03 c0*	      DC.B	$00,$00,$03,$C0,$2A,$EA	;		  ;68-73  W,G,P
   4739  e14a
   4740  e14a		       50 00 00 05	      DC.B	$50,$00,$00,$05	;			  ;74-77  R,L DIRT EDGE
   4741  e14e
   4742  e14e		       55 50		      DC.B	$55,$50	;				  ;78-79  S
   4743  e150		       50 14		      DC.B	$50,$14	;				  ;80-81  A
   4744  e152		       05 40		      DC.B	$05,$40	;				  ;82-83  Y
   4745  e154		       15 50 50 14	      DC.B	$15,$50,$50,$14	;			  ;84-87  LETRG,LETRM
   4746  e158
   4747  e158		       00 cc cc cc*	      DC.B	$00,$CC,$CC,$CC,$CC,$00	;		  ;88-93  (C) 1983 ATARI
   4748  e15e							; DC.B      $0C,$33,$33,$33,$33,$30;		     ;94-99  (C) 1982 NAMCO
   4749  e15e		       30 33 33 33*	      DC.B	$30,$33,$33,$33,$33,$0C	;		  ;94-99  (C) 1982 NAMCO
   4750  e164		       ff c0 03 ff*	      DC.B	$FF,$C0,$03,$FF,$FF,$FF,$FF,$F0	;100-07 TITLED10,9
   4751  e16c		       ff c0 00 00*	      DC.B	$FF,$C0,$00,$00,$0F,$FF,$FF,$C0	;108-15 TITLEG10,9
   4752  e174		       ff fc 3f ff*	      DC.B	$FF,$FC,$3F,$FF,$0F,$FF,$FF,$C0	;116-23 TITLEU10,9
   4753  e17c		       00 3f ff c0*	      DC.B	$00,$3F,$FF,$C0,$00,$3F,$0F,$C0	;124-31 TDDUG10,9
   4754  e184		       ff ff 0f f0	      DC.B	$FF,$FF,$0F,$F0	;			  ;132-35 TITLEI10,9
   4755  e188
   4756  e188		       a0		      DC.B	$A0	;				      ;136    RSKYHALF (137)
   4757  e189		       00 00 00 00	      DC.B	$00,$00,$00,$00	;			  ;137-40 16 PIX BLANK3.
   4758  e18d		       0a		      DC.B	$0A	;				      ;141    LSKYHALF (140)
   4759  e18e		       50 14		      DC.B	$50,$14	;				  ;142-43 R
   4760  e190		       ff ff ff ff*	      DC.B	$FF,$FF,$FF,$FF,$FF,$F0	;		  ;144-49 BLACKBOX
   4761  e196
   4762  e196		       3f f0 ff fc*	      DC.B	$3F,$F0,$FF,$FC,$FF,$FC	;		  ;150-55 NUMBERS: 0,1,2
   4763  e19c		       3f f0 03 f0*	      DC.B	$3F,$F0,$03,$F0,$3F,$F0	;		  ;156-61 3,4,5
   4764  e1a2		       3f f0 ff 00*	      DC.B	$3F,$F0,$FF,$00,$3F,$F0	;		  ;162-67 6,7,8
   4765  e1a8		       ff 00		      DC.B	$FF,$00	;				  ;168-69 9
   4766  e1aa
   4767  e1aa
   4768  e1aa					      ORG	$E1AA
   4769  e1aa		       7c 2f 04 47*CTURNS     DC.B	124,47,4,71,255
   4770  e1af
   4771  e1af		       97 89 6d 7b HALFXFM    DC.B	<EAST5,<WEST5,<SOUTH7,<NORTH7
   4772  e1b3		       ec da a5 c8 FROMXFM    DC.B	<HORLFT,<HORRGT,<VERTTOP,<VERTBOT
   4773  e1b7		       da ec c8 a5 TOXFM      DC.B	<HORRGT,<HORLFT,<VERTBOT,<VERTTOP
   4774  e1bb		       9e 90 74 82 ENTRXFM    DC.B	<EAST1,<WEST1,<SOUTH1,<NORTH1
   4775  e1bf
   4776  e1bf		       10 12 7a 78 HARPSTMP   DC.B	RHARPOON,LHARPOON,DHARPOON,UHARPOON
   4777  e1c3
   4778  e1c3		       00 06 9a 94 DANIMS     DC.B	RDIGDUG1,LDIGDUG1,DDIGDUG1,UDIGDUG1
   4779  e1c7		       02 08 9c 96	      DC.B	RDIGDUG2,LDIGDUG2,DDIGDUG2,UDIGDUG2
   4780  e1cb		       04 0a 9e 98	      DC.B	RDIGDUG3,LDIGDUG3,DDIGDUG3,UDIGDUG3
   4781  e1cf
   4782  e1cf
   4783  e1cf		       01 07 0a    VONE       DC.B	1,7,10	;		 ;   ,0
   4784  e1d2		       00 00 0b 0b VBOUND     DC.B	0,0,11,11
   4785  e1d6		       05 03 04    VHALF      DC.B	5,3,4	;		 ;   ,6
   4786  e1d9		       06 02 01 09 VPRE2      DC.B	6,2,1,9	;	      ;MIGHT BE UNNECESSARY FOR HORIZONTAL
   4787  e1dd		       07 01 00 0a VPRE1      DC.B	7,1,0,10
   4788  e1e1
   4789  e1e1		       02 03 04 05 WHNSPEED   DC.B	2,3,4,5	;		  ;   ,6
   4790  e1e5
   4791  e1e5		       06 02 02 08 VPRE3      DC.B	6,2,2,8	;	      ;UNNECESSARY FOR HORIZONTAL
   4792  e1e9							;*VPRE4     DC.B      6,2,3,7; 	   ;PROBABLY NOT NECESSARY
   4793  e1e9
   4794  e1e9							;*;*;*;*;*
   4795  e1e9							; USES A,X.
   4796  e1e9		       a5 40	   ADJUSTTO   LDA	DDYPOS	;		   ;CALC DIGDUG LEADING EDGE
   4797  e1eb		       18		      CLC
   4798  e1ec		       79 f4 d6 	      ADC	YTOPL,Y
   4799  e1ef		       aa		      TAX
   4800  e1f0		       a5 53		      LDA	DDXPOS
   4801  e1f2		       18		      CLC
   4802  e1f3		       79 dd e0 	      ADC	XTOPL,Y
   4803  e1f6		       60		      RTS		;			      ;14
   4804  e1f7
   4805  e1f7		       a5 9d	   MOREPUMP   LDA	MAXPUMP
   4806  e1f9		       18		      CLC
   4807  e1fa		       69 04		      ADC	#$04
   4808  e1fc		       85 9d		      STA	MAXPUMP
   4809  e1fe		       60		      RTS
   4810  e1ff
   4811  e1ff							;*;*;*;*;* PAGE 86 BYTES FULL
   4812  e1ff				   ENDE1AA
   4813  e1ff
   4814  e1ff
   4815  e200					      ORG	$E200	;		    ;LINE 10: OFFSET = 2.
   4816  e200
   4817  e200		       00 00 00 00*	      DC.B	$00,$00,$00,$00,$00,$01,$00,$01	;0-7
   4818  e208		       00 00 00 00*	      DC.B	$00,$00,$00,$00,$00,$01,$00,$01	;8-15
   4819  e210		       00 00 00 00*	      DC.B	$00,$00,$00,$00,$00,$01,$00,$01	;16-23
   4820  e218		       40 00 c0 00*	      DC.B	$40,$00,$C0,$00,$40,$01	;		  ;24-29
   4821  e21e		       aa aa		      DC.B	$AA,$AA	;				  ;30-31  SKY
   4822  e220		       96 66 5b 56	      DC.B	$96,$66,$5B,$56	;			  ;32-35  BIG,SML FLOWER
   4823  e224		       d5 55		      DC.B	$D5,$55	;				  ;35-37  FULL DIRT
   4824  e226		       01 55 c0 01*	      DC.B	$01,$55,$C0,$01,$D5,$40,$D5,$55	;38-45  HALF DIRT
   4825  e22e		       01 40 c0 01	      DC.B	$01,$40,$C0,$01	;			  ;46-49  HALF DIRT
   4826  e232
   4827  e232		       ec 8b		      DC.B	$EC,$8B	;				  ;50-51  TEDDY HEAD
   4828  e234		       a8 00 55 40*	      DC.B	$A8,$00,$55,$40,$03,$FC,$69,$00	;52-59  VEGGIES:C,R,M,C
   4829  e23c		       96 a0 04 40*	      DC.B	$96,$A0,$04,$40,$00,$00,$0F,$C0	;60-67  E,BP,T,O
   4830  e244		       0a a0 03 c0*	      DC.B	$0A,$A0,$03,$C0,$2A,$AE	;		  ;68-73  W,G,P
   4831  e24a
   4832  e24a		       d0 00 00 05	      DC.B	$D0,$00,$00,$05	;			  ;74-77  R,L DIRT EDGE
   4833  e24e
   4834  e24e		       aa a8		      DC.B	$AA,$A8	;				  ;78-79  S
   4835  e250		       a0 28		      DC.B	$A0,$28	;				  ;80-81  A
   4836  e252		       0a 80		      DC.B	$0A,$80	;				  ;82-83  Y
   4837  e254		       aa a8 a0 28	      DC.B	$AA,$A8,$A0,$28	;			  ;84-87  LETRG,LETRM
   4838  e258
   4839  e258
   4840  e258		       00 fc cf cf*	      DC.B	$00,$FC,$CF,$CF,$0C,$00	;		  ;88-93  (C) 1983 ATARI
   4841  e25e							;DC.B	    $0C,$F3,$F3,$33,$03,$30;		    ;94-99  (C) 1982 NAMCO
   4842  e25e		       30 03 33 f3*	      DC.B	$30,$03,$33,$F3,$F3,$0C	;		  ;94-99  (C) 1982 NAMCO
   4843  e264		       aa 80 02 aa*	      DC.B	$AA,$80,$02,$AA,$AA,$AA,$AA,$A8	;100-07 TITLED10,9
   4844  e26c		       aa 80 00 00*	      DC.B	$AA,$80,$00,$00,$0A,$AA,$AA,$A0	;108-15 TITLEG10,9
   4845  e274		       aa a8 2a aa*	      DC.B	$AA,$A8,$2A,$AA,$2A,$AA,$AA,$A0	;116-23 TITLEU10,9
   4846  e27c		       00 ff ff c0*	      DC.B	$00,$FF,$FF,$C0,$00,$0F,$03,$C0	;124-31 TDDUG10,9
   4847  e284		       aa aa 2a a8	      DC.B	$AA,$AA,$2A,$A8	;			  ;132-35 TITLEI10,9
   4848  e288
   4849  e288		       a0		      DC.B	$A0	;				      ;136    RSKYHALF (137)
   4850  e289		       00 00 00 00	      DC.B	$00,$00,$00,$00	;			  ;137-40 16 PIX BLANK3.
   4851  e28d		       0a		      DC.B	$0A	;				      ;141    LSKYHALF (140)
   4852  e28e		       a0 28		      DC.B	$A0,$28	;				  ;142-43 R
   4853  e290		       ff ff ff ff*	      DC.B	$FF,$FF,$FF,$FF,$FF,$F0	;		  ;144-49 BLACKBOX
   4854  e296
   4855  e296		       ff fc ff fc*	      DC.B	$FF,$FC,$FF,$FC,$FF,$FC	;		  ;150-55 NUMBERS: 0,1,2
   4856  e29c		       ff fc 03 f0*	      DC.B	$FF,$FC,$03,$F0,$FF,$FC	;		  ;156-61 3,4,5
   4857  e2a2		       ff fc ff c0*	      DC.B	$FF,$FC,$FF,$C0,$FF,$FC	;		  ;162-67 6,7,8
   4858  e2a8		       ff c0		      DC.B	$FF,$C0	;				  ;168-69 9
   4859  e2aa
   4860  e2aa
   4861  e2aa					      ORG	$E2AA
   4862  e2aa
   4863  e2aa		       7f bf df ef JOYSWCH    DC.B	$7F,$BF,$DF,$EF
   4864  e2ae
   4865  e2ae		       20 40	   BAR	      DC.B	$20,$40	;		  ; S,W      BOUND TO NEXT PAGE!!!
   4866  e2b0		       10 90		      DC.B	$10,$90	;		  ; N,NE     BOUND TO PREVIOUS PAGE!!!
   4867  e2b2		       30 c0		      DC.B	$30,$C0	;		  ; FILTER OUT ILLEGAL COMBINATIONS
   4868  e2b4
   4869  e2b4				   FOO
   4870  e2b4		       7f		      DC.B	$7F	;		      ; E
   4871  e2b5		       df bf ef 7f FJOY       DC.B	$DF,$BF,$EF,$7F	; S,W,N,E
   4872  e2b9		       ff ff		      DC.B	$FF,$FF	;		  ; END OF FOO
   4873  e2bb				   REVSWCH
   4874  e2bb		       bf 7f ef df	      DC.B	$BF,$7F,$EF,$DF
   4875  e2bf							;*	    DC.B      $BF,$7F,$EF,$DF
   4876  e2bf							;*	    DC.B      $BF
   4877  e2bf
   4878  e2bf
   4879  e2bf		       c9 02	   DIGSONG    CMP	#SNGD	;		    ;RETURNS EQ IF DIGDUG MUSIC
   4880  e2c1		       f0 02		      BEQ	DIGSONG2
   4881  e2c3		       c9 03		      CMP	#SNGDF
   4882  e2c5				   DIGSONG2
   4883  e2c5		       60		      RTS		;			      ;OVERLAPPED WITH FOLLOWING ARRAY!!!
   4884  e2c6
   4885  e2c6							;*ATTBOUND  DC.B      $60,$28,$20,$2F,$50    ;OVERLAPPED WITH PRECEDING SUBR!!!
   4886  e2c6							;*	    DC.B      $10,$28,$8F,$83
   4887  e2c6							;*	    DC.B      $10;		      ;OVERLAPPED WITH FOLLOWING ARRAY!!!
   4888  e2c6
   4889  e2c6		       10 10 1e    RKTIM      DC.B	$10,$10,$1E	;	      ;FROM FALL.S, OVERLAPPED!
   4890  e2c9
   4891  e2c9							; NOTE:  ONLY TOP BYTE IS STORED SINCE BOTTOM BYTE IS ALWAYS 0
   4892  e2c9							;	  INDEX OF 0 IS FOR TEDDYBEAR MODE
   4893  e2c9		       02 04 06 08*VEGPTS     DC.B	$02,$04,$06,$08,$10,$10
   4894  e2cf		       20 20 30 30*	      DC.B	$20,$20,$30,$30,$40,$40
   4895  e2d5		       50 50 60 60*	      DC.B	$50,$50,$60,$60,$70,$70
   4896  e2db		       80		      DC.B	$80
   4897  e2dc
   4898  e2dc		       b2 62 65 bb*FPOINTS    DC.B	VHUND2,VHUND4,VHUND6,VHUND8,VTHOUS1,VTHOUS1
   4899  e2e2		       46 46 4a 4a*	      DC.B	VTHOUS2,VTHOUS2,VTHOUS3,VTHOUS3,VTHOUS4,VTHOUS4
   4900  e2e8		       4e 4e c6 c6*	      DC.B	VTHOUS5,VTHOUS5,VTHOUS6,VTHOUS6,VTHOUS7,VTHOUS7
   4901  e2ee		       ca		      DC.B	VTHOUS8
   4902  e2ef
   4903  e2ef
   4904  e2ef		       a9 1a	   HCARVE     LDA	#DLEFTEND
   4905  e2f1		       9d 00 26 	      STA	DIRTMAP,X	;		;CARVE OUT CENTER HORIZONTAL TUNNEL.
   4906  e2f4		       a9 0a		      LDA	#DHMIDDLE
   4907  e2f6		       9d 01 26 	      STA	DIRTMAP+1,X
   4908  e2f9		       a9 0e		      LDA	#DRHTEND
   4909  e2fb		       9d 02 26 	      STA	DIRTMAP+2,X
   4910  e2fe		       60		      RTS
   4911  e2ff
   4912  e2ff							;*;*;*;*;* PAGE 86 BYTES FULL
   4913  e2ff				   ENDE2AA
   4914  e2ff
   4915  e2ff
   4916  e300					      ORG	$E300	;		    ;LINE 9: OFFSET = 3.
   4917  e300
   4918  e300		       00 00 00 00*	      DC.B	$00,$00,$00,$00,$00,$00,$00,$00	;0-7
   4919  e308		       00 00 00 00*	      DC.B	$00,$00,$00,$00,$00,$01,$00,$01	;8-15
   4920  e310		       40 00 40 00*	      DC.B	$40,$00,$40,$00,$40,$00,$40,$00	;16-23
   4921  e318		       40 00 40 00*	      DC.B	$40,$00,$40,$00,$40,$00	;		  ;24-29
   4922  e31e		       aa aa		      DC.B	$AA,$AA	;				  ;30-31  SKY
   4923  e320		       ab ea ab 9a	      DC.B	$AB,$EA,$AB,$9A	;			  ;32-35  BIG,SML FLOWER
   4924  e324		       55 55		      DC.B	$55,$55	;				  ;36-37  FULL DIRT
   4925  e326		       01 55 40 01*	      DC.B	$01,$55,$40,$01,$55,$40,$55,$55	;38-45  HALF DIRT
   4926  e32e		       01 40 40 01	      DC.B	$01,$40,$40,$01	;			  ;46-49  HALF DIRT
   4927  e332
   4928  e332		       e2 23		      DC.B	$E2,$23	;				  ;50-51  TEDDY HEAD
   4929  e334		       ba 00 55 70*	      DC.B	$BA,$00,$55,$70,$E3,$F0,$6E,$80	;52-59  VEGGIES:C,R,M,C
   4930  e33c		       5a a8 15 50*	      DC.B	$5A,$A8,$15,$50,$15,$54,$6A,$A4	;60-67  E,BP,T,O
   4931  e344		       29 68 03 c0*	      DC.B	$29,$68,$03,$C0,$2E,$AA	;		  ;68-73  W,G,P
   4932  e34a
   4933  e34a		       50 00 00 05	      DC.B	$50,$00,$00,$05	;			  ;74-77  R,L DIRT EDGE
   4934  e34e
   4935  e34e		       00 14		      DC.B	$00,$14	;				  ;78-79  S
   4936  e350		       50 14		      DC.B	$50,$14	;				  ;80-81  A
   4937  e352		       05 40		      DC.B	$05,$40	;				  ;82-83  Y
   4938  e354		       50 14 50 14	      DC.B	$50,$14,$50,$14	;			  ;84-87  LETRG,LETRM
   4939  e358
   4940  e358		       00 cc cc cc*	      DC.B	$00,$CC,$CC,$CC,$CC,$00	;		  ;88-93  (C) 1983 ATARI
   4941  e35e							; DC.B      $0F,$F3,$33,$F3,$03,$30;		     ;94-99  (C) 1982 NAMCO
   4942  e35e		       30 03 f3 33*	      DC.B	$30,$03,$F3,$33,$F3,$0F	;94-99  (C) 1982 NAMCO
   4943  e364		       ff c0 0f ff*	      DC.B	$FF,$C0,$0F,$FF,$FF,$FF,$FF,$FC	;100-07 TITLED10,9
   4944  e36c		       ff f0 0f f0*	      DC.B	$FF,$F0,$0F,$F0,$3F,$FF,$FF,$FC	;108-15 TITLEG10,9
   4945  e374		       ff fc 3f ff*	      DC.B	$FF,$FC,$3F,$FF,$3F,$FF,$FF,$FC	;116-23 TITLEU10,9
   4946  e37c		       00 05 5f f0*	      DC.B	$00,$05,$5F,$F0,$00,$0F,$FF,$C0	;124-31 TDDUG10,9
   4947  e384		       ff ff 3f fc	      DC.B	$FF,$FF,$3F,$FC	;			  ;132-35 TITLEI10,9
   4948  e388
   4949  e388		       a0		      DC.B	$A0	;				      ;136    RSKYHALF (137)
   4950  e389		       00 00 00 00	      DC.B	$00,$00,$00,$00	;			  ;137-40 16 PIX BLANK3.
   4951  e38d		       0a		      DC.B	$0A	;				      ;141    LSKYHALF (140)
   4952  e38e		       50 14		      DC.B	$50,$14	;				  ;142-43 R
   4953  e390		       ff ff ff ff*	      DC.B	$FF,$FF,$FF,$FF,$FF,$F0	;		  ;144-49 BLACKBOX
   4954  e396
   4955  e396		       ff fc ff fc*	      DC.B	$FF,$FC,$FF,$FC,$3F,$FC	;		  ;150-55 NUMBERS: 0,1,2
   4956  e39c		       fc fc ff fc*	      DC.B	$FC,$FC,$FF,$FC,$F0,$FC	;		  ;156-61 3,4,5
   4957  e3a2		       fc fc 3f c0*	      DC.B	$FC,$FC,$3F,$C0,$FC,$FC	;		  ;162-67 6,7,8
   4958  e3a8		       3f c0		      DC.B	$3F,$C0	;				  ;168-69 9
   4959  e3aa
   4960  e3aa
   4961  e3aa					      ORG	$E3AA
   4962  e3aa							;*;*;*;*;*  FROM MONSTER.S FILE
   4963  e3aa							;-------- ROM TABLES
   4964  e3aa
   4965  e3aa		       00 00 ff ff*XTABLE     DC	$00,$00,$FF,$FF,$00,$00,$FF,$FF
   4966  e3b2		       01 01 00 00*	      DC	$01,$01,$00,$00,$01,$01,$00	;	    ;	  ,$00
   4967  e3b9
   4968  e3b9		       00 ff 00 ff*YTABLE     DC	$00,$FF,$00,$FF,$01,$00,$01,$00
   4969  e3c1		       00 ff 00 ff*	      DC	$00,$FF,$00,$FF,$01,$00,$01,$00
   4970  e3c9
   4971  e3c9		       ee	   SPEEDTAB   DC	$EE	;		      POOKA SLOW     12 BITS
   4972  e3ca		       ee		      DC	$EE
   4973  e3cb		       92		      DC	$92	;		      POOKA GHOST    5 BITS
   4974  e3cc		       48		      DC	$48
   4975  e3cd		       7f		      DC	$7F	;		      POOKA FAST     15 BITS
   4976  e3ce		       ff		      DC	$FF
   4977  e3cf		       95		      DC	$95	;		      POOKA GHOST    7
   4978  e3d0		       4a		      DC	$4A
   4979  e3d1		       f7		      DC	$F7	;		      FYGAR SLOW     13 BITS
   4980  e3d2		       77		      DC	$77
   4981  e3d3		       89		      DC	$89	;		      FYGAR GHOST    5
   4982  e3d4		       24		      DC	$24
   4983  e3d5		       ff		      DC	$FF	;		      FYGAR FAST     16 BITS
   4984  e3d6		       ff		      DC	$FF
   4985  e3d7		       a9		      DC	$A9	;		      FYGAR GHOST    7
   4986  e3d8		       54		      DC	$54
   4987  e3d9
   4988  e3d9							;* FJOY: FAKE JOYSTICK MOVEMENTS FOR ROTATING SELECT OPTIONS WITH SELECT BUTTON.
   4989  e3d9							;*FJOY      DC.B      $BF,$7F,$DF,$EF	     ;USES REVSWCH INSTEAD.
   4990  e3d9
   4991  e3d9
   4992  e3d9		       01 02 02 02*RFALLTBL   DC.B	1,2,2,2,1,2,2
   4993  e3e0
   4994  e3e0		       29 f0	   ANDF0      AND	#$F0
   4995  e3e2		       d0 05		      BNE	NOTZERO1
   4996  e3e4		       90 03		      BCC	NOTZERO1
   4997  e3e6		       a9 00		      LDA	#BLANK1	;		  ;BLANK STAMP.
   4998  e3e8							;*	    BEQ     ANDF0RTS
   4999  e3e8		       60		      RTS
   5000  e3e9		       4a	   NOTZERO1   LSR		;			;GET INDEX INTO STAMP TABLE FOR THIS
   5001  e3ea		       4a		      LSR		;			;  DIGIT OF SCORE.
   5002  e3eb		       4a		      LSR
   5003  e3ec							;*	    CLC
   5004  e3ec		       69 96		      ADC	#FULL0
   5005  e3ee		       60	   ANDF0RTS   RTS
   5006  e3ef
   5007  e3ef
   5008  e3ef		       a0 04	   INITDIGS   LDY	#4
   5009  e3f1		       a9 00		      LDA	#0
   5010  e3f3		       99 50 23    INITSNDD   STA	DURINDX0,Y	;	       ;TIME TO START DD MUSIC OVER
   5011  e3f6		       88		      DEY
   5012  e3f7		       10 fa		      BPL	INITSNDD
   5013  e3f9		       8c 55 23 	      STY	DUNINDX0
   5014  e3fc		       8c 56 23 	      STY	DUNINDX1
   5015  e3ff		       60		      RTS
   5016  e400
   5017  e400				   ENDE3AA
   5018  e400
   5019  e400
   5020  e400					      ORG	$E400	;		    ;LINE 8: OFFSET = 4.
   5021  e400
   5022  e400		       00 00 00 00*	      DC.B	$00,$00,$00,$00,$00,$00,$00,$00	;0-7
   5023  e408		       00 00 00 00*	      DC.B	$00,$00,$00,$00,$00,$00,$00,$03	;8-15
   5024  e410		       40 00 40 00*	      DC.B	$40,$00,$40,$00,$40,$00,$40,$00	;16-23
   5025  e418		       40 00 40 00*	      DC.B	$40,$00,$40,$00,$40,$00	;		  ;24-29
   5026  e41e		       aa aa		      DC.B	$AA,$AA	;				  ;30-31  SKY
   5027  e420		       af fa af 6a	      DC.B	$AF,$FA,$AF,$6A	;			  ;32-35  BIG,SML FLOWER
   5028  e424		       55 57		      DC.B	$55,$57	;				  ;36-37  FULL DIRT
   5029  e426		       01 57 50 07*	      DC.B	$01,$57,$50,$07,$55,$40,$55,$57	;38-45  HALF DIRT
   5030  e42e		       01 40 50 07	      DC.B	$01,$40,$50,$07	;			  ;46-49  HALF DIRT
   5031  e432
   5032  e432		       ea 2b		      DC.B	$EA,$2B	;				  ;50-51  TEDDY HEAD
   5033  e434		       2a 00 55 50*	      DC.B	$2A,$00,$55,$50,$AB,$F0,$1A,$E0	;52-59  VEGGIES:C,R,M,C
   5034  e43c		       6e a8 55 54*	      DC.B	$6E,$A8,$55,$54,$55,$55,$6B,$A8	;60-67  E,BP,T,O
   5035  e444		       64 59 03 c0*	      DC.B	$64,$59,$03,$C0,$2A,$EA	;		  ;68-73  W,G,P
   5036  e44a
   5037  e44a		       50 00 00 07	      DC.B	$50,$00,$00,$07	;			  ;74-77  R,L DIRT EDGE
   5038  e44e
   5039  e44e		       00 28		      DC.B	$00,$28	;				  ;78-79  S
   5040  e450		       aa a8		      DC.B	$AA,$A8	;				  ;80-81  A
   5041  e452		       0a 80		      DC.B	$0A,$80	;				  ;82-83  Y
   5042  e454		       a0 28 a0 28	      DC.B	$A0,$28,$A0,$28	;			  ;84-87  LETRG,LETRM
   5043  e458
   5044  e458		       00 cc cc cc*	      DC.B	$00,$CC,$CC,$CC,$CC,$00	;		  ;88-93  (C) 1983 ATARI
   5045  e45e							; DC.B      $0F,$33,$33,$F3,$33,$30;		     ;94-99  (C) 1982 NAMCO
   5046  e45e		       30 33 f3 33*	      DC.B	$30,$33,$F3,$33,$33,$0F	;94-99  (C) 1982 NAMCO
   5047  e464		       aa aa aa aa*	      DC.B	$AA,$AA,$AA,$AA,$AA,$AA,$AA,$AA	;100-07 TITLED10,9
   5048  e46c		       aa a8 2a a8*	      DC.B	$AA,$A8,$2A,$A8,$2A,$AA,$AA,$A8	;108-15 TITLEG10,9
   5049  e474		       aa a8 2a aa*	      DC.B	$AA,$A8,$2A,$AA,$AA,$AA,$AA,$A8	;116-23 TITLEU10,9
   5050  e47c		       00 14 45 fc*	      DC.B	$00,$14,$45,$FC,$00,$1F,$FF,$D0	;124-31 TDDUG10,9
   5051  e484		       aa aa 2a a8	      DC.B	$AA,$AA,$2A,$A8	;			  ;132-35 TITLEI10,9
   5052  e488
   5053  e488		       a0		      DC.B	$A0	;				      ;136    RSKYHALF (137)
   5054  e489		       00 00 00 00	      DC.B	$00,$00,$00,$00	;			  ;137-40 16 PIX BLANK3.
   5055  e48d		       0a		      DC.B	$0A	;				      ;141    LSKYHALF (140)
   5056  e48e		       aa a0		      DC.B	$AA,$A0	;				  ;142-43 R
   5057  e490		       ff ff ff ff*	      DC.B	$FF,$FF,$FF,$FF,$FF,$F0	;		  ;144-49 BLACKBOX
   5058  e496
   5059  e496		       fc fc 0f c0*	      DC.B	$FC,$FC,$0F,$C0,$0F,$C0	;		  ;150-55 NUMBERS: 0,1,2
   5060  e49c		       00 fc ff fc*	      DC.B	$00,$FC,$FF,$FC,$00,$FC	;		  ;156-61 3,4,5
   5061  e4a2		       fc fc 0f f0*	      DC.B	$FC,$FC,$0F,$F0,$FC,$FC	;		  ;162-67 6,7,8
   5062  e4a8		       0f f0		      DC.B	$0F,$F0	;				  ;168-69 9
   5063  e4aa
   5064  e4aa
   5065  e4aa					      ORG	$E4AA
   5066  e4aa		       32	   FRUITAB    DC	TEDDY
   5067  e4ab		       34 36 38 3a*	      DC	CARROT,RUTABAGA,MUSHROOM,CUCUMBER,CUCUMBER
   5068  e4b0		       3c 3c 3e 3e*	      DC	EGGPLANT,EGGPLANT,BELLPEPP,BELLPEPP,TOMATO
   5069  e4b5		       40 42 42 44*	      DC	TOMATO,ONION,ONION,WATERMEL,WATERMEL,GALAXIAN
   5070  e4bb		       46 48		      DC	GALAXIAN,PINEAPPL	;BETTY AND AVA-ROBIN WERE HERE!
   5071  e4bd
   5072  e4bd
   5073  e4bd		       7c 82 89 90*DIRTABLE   DC.B	<DIRT0,<DIRT1,<DIRT2,<DIRT3,<DIRT4,<DIRT5
   5074  e4c3		       9e a5 a9 b0*	      DC.B	<DIRT6,<DIRT7,<DIRT8,<DIRT9,<DIRT10,<DIRT11
   5075  e4c9		       bb c2 c6 ca	      DC.B	<DIRT12,<DIRT13,<DIRT14,<SKY15
   5076  e4cd
   5077  e4cd		       37 09 20    MODETAB    DC.B	<DIGDIAG,<DIGVERT,<DIGHORIZ
   5078  e4d0		       09 20 37 	      DC.B	<DIGVERT,<DIGHORIZ,<DIGDIAG
   5079  e4d3		       09 20		      DC.B	<DIGVERT,<DIGHORIZ
   5080  e4d5
   5081  e4d5
   5082  e4d5		       35 34 33 32*PRITES0    DC.B	RPUMP4,RPUMP8,RPUMP12,RPUMP16,RPUMP20,RPUMP24
   5083  e4db							;	   ;				   ;FROM COLLISON.S
   5084  e4db
   5085  e4db				   DDMIDDLE
   5086  e4db		       a9 6b		      LDA	#DDMIDLY
   5087  e4dd		       85 40		      STA	DDYPOS
   5088  e4df		       a9 38		      LDA	#DDMIDLX
   5089  e4e1		       85 53		      STA	DDXPOS
   5090  e4e3		       a9 00		      LDA	#RDIGDUG1
   5091  e4e5		       85 66		      STA	DDINDX
   5092  e4e7		       60		      RTS
   5093  e4e8
   5094  e4e8							;*;*;*;*;*;*;*;*;*;*;*;*;*;*;*;*;*;*;*;*;*;*;*;*;*;*;*;*;*;*;*;*;*;*;*;*;*;*;*;*;*;*;*;*;*;*;*;*;*;*;*;*;*;*;*;*;*;*;*;*;*;*;*;*;*;*;*;*;*;*;*;*;*;*;*;*;*;*;*;*
   5095  e4e8							;*;*;*;*;*;*;*;*;*;*;*;							  ;*;*;*;*;*;*;*;*;*;*;*
   5096  e4e8							;*;*;*;*;*;*;*;*;*;*;*       GETRXY: TURN DIRTMAP INDEX INTO X AND Y COORDINATE.;*;*;*;*;*;*;*;*;*;*;*
   5097  e4e8							;*;*;*;*;*;*;*;*;*;*;*;	       RETURNS X IN A, Y IN X.			  ;*;*;*;*;*;*;*;*;*;*;*
   5098  e4e8							;*;*;*;*;*;*;*;*;*;*;*;*;*;*;*;*;*;*;*;*;*;*;*;*;*;*;*;*;*;*;*;*;*;*;*;*;*;*;*;*;*;*;*;*;*;*;*;*;*;*;*;*;*;*;*;*;*;*;*;*;*;*;*;*;*;*;*;*;*;*;*;*;*;*;*;*;*;*;*;*
   5099  e4e8				   GETRXY
   5100  e4e8		       08		      PHP
   5101  e4e9		       48		      PHA		;			      ;SAVE INDEX.
   5102  e4ea		       4a		      LSR		;			;Y IN TOP NIBBLE.
   5103  e4eb		       4a		      LSR
   5104  e4ec		       4a		      LSR
   5105  e4ed		       4a		      LSR
   5106  e4ee		       49 ff		      EOR	#$FF
   5107  e4f0		       18		      CLC
   5108  e4f1		       69 10		      ADC	#16
   5109  e4f3		       aa		      TAX
   5110  e4f4		       bd ac ea 	      LDA	TOPZONE,X
   5111  e4f7		       aa		      TAX
   5112  e4f8		       68		      PLA
   5113  e4f9		       29 0f		      AND	#$0F
   5114  e4fb		       0a		      ASL		;			;MULTIPLY BOTTOM NIBBLE BY 8 FOR X.
   5115  e4fc		       0a		      ASL
   5116  e4fd		       0a		      ASL
   5117  e4fe		       28		      PLP
   5118  e4ff		       60		      RTS
   5119  e500
   5120  e500				   ENDE4AA
   5121  e500
   5122  e500
   5123  e500					      ORG	$E500	;		    ;LINE 7: OFFSET = 5.
   5124  e500
   5125  e500		       00 00 00 00*	      DC.B	$00,$00,$00,$00,$00,$01,$00,$01	;0-7
   5126  e508		       00 00 00 00*	      DC.B	$00,$00,$00,$00,$00,$01,$00,$01	;8-15
   5127  e510		       00 00 00 00*	      DC.B	$00,$00,$00,$00,$00,$01,$00,$01	;16-23
   5128  e518		       00 00 40 00*	      DC.B	$00,$00,$40,$00,$00,$01	;		  ;24-29
   5129  e51e		       aa aa		      DC.B	$AA,$AA	;				  ;30-31  SKY
   5130  e520		       bd fe bf da	      DC.B	$BD,$FE,$BF,$DA	;			  ;32-35  BIG,SML FLOWER
   5131  e524		       57 55		      DC.B	$57,$55	;				  ;	  FULL DIRT
   5132  e526		       03 55 57 55*	      DC.B	$03,$55,$57,$55,$57,$40,$57,$55	;	 HALF DIRT
   5133  e52e		       03 40 57 55	      DC.B	$03,$40,$57,$55	;			  ;	  HALF DIRT
   5134  e532
   5135  e532		       ea ab		      DC.B	$EA,$AB	;				  ;	  TEDDY HEAD
   5136  e534		       2b 80 55 50*	      DC.B	$2B,$80,$55,$50,$AA,$B0,$02,$B4	;	 VEGGIES:C,R,M,C
   5137  e53c		       6f a8 65 54*	      DC.B	$6F,$A8,$65,$54,$55,$55,$AE,$E8	;	 E,BP,T,O
   5138  e544		       a5 5a 0f f0*	      DC.B	$A5,$5A,$0F,$F0,$3A,$AB	;		  ;	  W,G,P
   5139  e54a
   5140  e54a		       50 00 00 05	      DC.B	$50,$00,$00,$05	;			  ;74-77  R,L DIRT EDGE
   5141  e54e
   5142  e54e		       55 54		      DC.B	$55,$54	;				  ;78-79  S
   5143  e550		       55 54		      DC.B	$55,$54	;				  ;80-81  A
   5144  e552		       15 50		      DC.B	$15,$50	;				  ;82-83  Y
   5145  e554		       50 54 51 14	      DC.B	$50,$54,$51,$14	;			  ;84-87  LETRG,LETRM
   5146  e558
   5147  e558		       00 33 f3 03*	      DC.B	$00,$33,$F3,$03,$0C,$00	;		  ;88-93  (C) 1983 ATARI
   5148  e55e		       c0 c0 30 c3*	      DC.B	$C0,$C0,$30,$C3,$30,$0C	;		  ;94-99  (C) 1982 NAMCO
   5149  e564							;  DC.B      $0C,$30,$C3,$30,$C0,$C0;		      ;94-99  (C) 1982 NAMCO
   5150  e564		       ff ff ff ff*	      DC.B	$FF,$FF,$FF,$FF,$FF,$FF,$FF,$FF	;100-07 TITLED10,9
   5151  e56c		       3f ff ff fc*	      DC.B	$3F,$FF,$FF,$FC,$3F,$FF,$FF,$FF	;108-15 TITLEG10,9
   5152  e574		       ff fc 3f ff*	      DC.B	$FF,$FC,$3F,$FF,$FF,$FF,$FF,$FF	;116-23 TITLEU10,9
   5153  e57c		       00 14 45 fc*	      DC.B	$00,$14,$45,$FC,$0A,$3F,$FF,$F0	;124-31 TDDUG10,9
   5154  e584		       ff ff ff ff	      DC.B	$FF,$FF,$FF,$FF	;			  ;132-35 TITLEI10,9
   5155  e588
   5156  e588		       a0		      DC.B	$A0	;				      ;136    RSKYHALF (137)
   5157  e589		       00 00 00 00	      DC.B	$00,$00,$00,$00	;			  ;137-40 16 PIX BLANK3.
   5158  e58d		       0a		      DC.B	$0A	;				      ;141    LSKYHALF (140)
   5159  e58e		       55 50		      DC.B	$55,$50	;				  ;142-43 R
   5160  e590		       ff ff ff ff*	      DC.B	$FF,$FF,$FF,$FF,$FF,$F0	;		  ;144-49 BLACKBOX
   5161  e596
   5162  e596		       fc fc 0f c0*	      DC.B	$FC,$FC,$0F,$C0,$03,$F0	;		  ;150-55 NUMBERS: 0,1,2
   5163  e59c		       3f fc fc fc*	      DC.B	$3F,$FC,$FC,$FC,$00,$FC	;		  ;156-61 3,4,5
   5164  e5a2		       fc fc 03 f0*	      DC.B	$FC,$FC,$03,$F0,$3F,$F0	;		  ;162-67 6,7,8
   5165  e5a8		       0f f0		      DC.B	$0F,$F0	;				  ;168-69 9
   5166  e5aa
   5167  e5aa
   5168  e5aa					      ORG	$E5AA
   5169  e5aa							;*;*;*;*;*  FROM COLLISON.S FILE
   5170  e5aa
   5171  e5aa							;*;*;* PUMP TABLES: ARRANGED BY DIRECTION, THEN STAMP NUMBER.	STAMP 0 SHOULD
   5172  e5aa							;*;*;*    ;	      BE LOCATED AT X,Y POSITION OF UPPER LEFTMOST CORNER OF
   5173  e5aa							;*;*;*    ;	      PUMP.  STAMP 1 WILL BE AT X,(Y-12), AND STAMP 2 AT X,(Y-24).
   5174  e5aa							;*;*;*    ;	      READING ACROSS EACH VERTICAL TABLE GIVES THE APPROPRIATE STAMP
   5175  e5aa							;*;*;*    ;	      FOR PUMP LENGTHS 6,12,18,24,30,36; AND WIDTHS 4,8,12,16,20,24
   5176  e5aa							;*;*;*    ;	      FOR HORIZONTAL TABLES.  HORIZONTAL TABLES DO NOT EXIST FOR
   5177  e5aa							;*;*;*    ;	      STAMPS 1 AND 2 AS A HORIZONTAL PUMP IS ONLY ONE STAMP HIGH.
   5178  e5aa							;*;*;*    ;	      INSTEAD, ZBLANK WILL BE LOADED INTO APPROPRIATE STMPYPOS ENTRY.
   5179  e5aa
   5180  e5aa		       de de	   PDOWNS2    DC.B	ZBLANK,ZBLANK	;	    ; ,ZBLANK,ZBLANK,DPUMP6,DPUMP12
   5181  e5ac		       de de	   PDOWNS1    DC.B	ZBLANK,ZBLANK	;	    ; ,DPUMP6,DPUMP12,DFULL6,DFULL12
   5182  e5ae		       ac ad ae af*PDOWNS0    DC.B	DPUMP6,DPUMP12,DFULL6,DFULL12,DFULL6,DFULL12
   5183  e5b4
   5184  e5b4		       b0 b1 b1 b1*PUPS0      DC.B	UPUMP6,UPUMP12,UPUMP12,UPUMP12,UPUMP12,UPUMP12
   5185  e5ba		       de de	   PUPS2      DC.B	ZBLANK,ZBLANK	;	    ; ,ZBLANK,ZBLANK,UFULL6,UFULL12
   5186  e5bc		       de de 68 69*PUPS1      DC.B	ZBLANK,ZBLANK,UFULL6,UFULL12,UFULL12,UFULL12
   5187  e5c2
   5188  e5c2		       45 43 40 3c*PLEFTS0    DC.B	LPUMP4,LPUMP8,LPUMP12,LPUMP16,LPUMP20,LPUMP24
   5189  e5c8
   5190  e5c8
   5191  e5c8
   5192  e5c8
   5193  e5c8		       05 04 03 02 BURSTPTS   DC.B	$05,$04,$03,$02
   5194  e5cc		       10 08 06 04	      DC.B	$10,$08,$06,$04
   5195  e5d0
   5196  e5d0		       b8 62 b5 b2 BPOINTS    DC.B	HUNDRED5,HUNDRED4,HUNDRED3,HUNDRED2
   5197  e5d4		       da bb 65 62	      DC.B	THOUSND1,HUNDRED8,HUNDRED6,HUNDRED4
   5198  e5d8
   5199  e5d8		       e8 ea ec ee BLWSTMPS   DC.B	LBPOOKA1,LBPOOKA2,LBPOOKA3,LBPOOKA4
   5200  e5dc		       e0 e2 e4 e6	      DC.B	RBPOOKA1,RBPOOKA2,RBPOOKA3,RBPOOKA4
   5201  e5e0		       f8 fa fc fe	      DC.B	LBFYGAR1,LBFYGAR2,LBFYGAR3,LBFYGAR4
   5202  e5e4		       f0 f2 f4 f6	      DC.B	RBFYGAR1,RBFYGAR2,RBFYGAR3,RBFYGAR4
   5203  e5e8
   5204  e5e8		       a2 02	   SETPAL3    LDX	#2
   5205  e5ea		       a9 84	   PHAMSGC    LDA	#$84	;		     ;USE PALETTE 3 FOR COLORS OF LETTERS.
   5206  e5ec		       9d 14 23 	      STA	P0C0SHAD+13,X
   5207  e5ef		       ca		      DEX
   5208  e5f0		       10 f8		      BPL	PHAMSGC
   5209  e5f2		       60		      RTS
   5210  e5f3
   5211  e5f3		       a0 06	   SAVDUN     LDY	#6	;		       ;SAVES CURRENT DIGDUG MUSIC INFO
   5212  e5f5		       b9 f4 00    SAVDUN2    LDA	CURINDX0,Y
   5213  e5f8		       99 50 23 	      STA	DURINDX0,Y
   5214  e5fb		       88		      DEY
   5215  e5fc		       10 f7		      BPL	SAVDUN2
   5216  e5fe		       60		      RTS
   5217  e5ff				   ENDE5AA
   5218  e5ff
   5219  e5ff
   5220  e600					      ORG	$E600	;		    ;LINE 6: OFFSET = 6.
   5221  e600
   5222  e600		       00 00 00 00*	      DC.B	$00,$00,$00,$00,$00,$01,$00,$01	;0-7
   5223  e608		       00 00 00 00*	      DC.B	$00,$00,$00,$00,$00,$01,$00,$01	;8-15
   5224  e610		       40 00 40 00*	      DC.B	$40,$00,$40,$00,$40,$01,$40,$01	;16-23
   5225  e618		       40 00 40 00*	      DC.B	$40,$00,$40,$00,$40,$01	;		  ;24-29
   5226  e61e		       aa aa		      DC.B	$AA,$AA	;				  ;30-31  SKY
   5227  e620		       bf de bf da	      DC.B	$BF,$DE,$BF,$DA	;			  ;32-35  BIG,SML FLOWER
   5228  e624		       55 55		      DC.B	$55,$55	;				  ;	  FULL DIRT
   5229  e626		       01 55 55 55*	      DC.B	$01,$55,$55,$55,$55,$40,$55,$55	;	 HALF DIRT
   5230  e62e		       01 40 55 55	      DC.B	$01,$40,$55,$55	;			  ;	  HALF DIRT
   5231  e632
   5232  e632		       28 88		      DC.B	$28,$88	;				  ;	  TEDDY HEAD
   5233  e634		       0a 80 55 50*	      DC.B	$0A,$80,$55,$50,$9A,$A8,$00,$A8	;	 VEGGIES:C,R,M,C
   5234  e63c		       17 aa 75 54*	      DC.B	$17,$AA,$75,$54,$5D,$55,$AE,$E8	;	 E,BP,T,O
   5235  e644		       95 16 2b e8*	      DC.B	$95,$16,$2B,$E8,$0E,$AC	;		  ;	  W,G,P
   5236  e64a
   5237  e64a		       50 00 00 05	      DC.B	$50,$00,$00,$05	;			  ;74-77  R,L DIRT EDGE
   5238  e64e
   5239  e64e		       55 54		      DC.B	$55,$54	;				  ;78-79  S
   5240  e650		       50 14		      DC.B	$50,$14	;				  ;80-81  A
   5241  e652		       54 54		      DC.B	$54,$54	;				  ;82-83  Y
   5242  e654		       50 54 51 14	      DC.B	$50,$54,$51,$14	;			  ;84-87  LETRG,LETRM
   5243  e658
   5244  e658		       00 00 00 00*	      DC.B	$00,$00,$00,$00,$00,$00	;		  ;88-93  (C) 1983 ATARI
   5245  e65e		       00 00 00 00*	      DC.B	$00,$00,$00,$00,$00,$00	;		  ;94-99  (C) 1982 NAMCO
   5246  e664		       aa aa aa aa*	      DC.B	$AA,$AA,$AA,$AA,$AA,$AA,$AA,$AA	;100-07 TITLED10,9
   5247  e66c		       2a aa aa a8*	      DC.B	$2A,$AA,$AA,$A8,$AA,$AA,$AA,$AA	;108-15 TITLEG10,9
   5248  e674		       aa a8 2a aa*	      DC.B	$AA,$A8,$2A,$AA,$AA,$AA,$AA,$AA	;116-23 TITLEU10,9
   5249  e67c		       00 15 55 fc*	      DC.B	$00,$15,$55,$FC,$2A,$3F,$DF,$B0	;124-31 TDDUG10,9
   5250  e684		       aa aa aa aa	      DC.B	$AA,$AA,$AA,$AA	;			  ;132-35 TITLEI10,9
   5251  e688
   5252  e688		       a0		      DC.B	$A0	;				      ;136    RSKYHALF (137)
   5253  e689		       00 00 00 00	      DC.B	$00,$00,$00,$00	;			  ;137-40 16 PIX BLANK3.
   5254  e68d		       0a		      DC.B	$0A	;				      ;141    LSKYHALF (140)
   5255  e68e		       50 14		      DC.B	$50,$14	;				  ;142-43 R
   5256  e690		       ff ff ff ff*	      DC.B	$FF,$FF,$FF,$FF,$FF,$F0	;		  ;144-49 BLACKBOX
   5257  e696
   5258  e696		       fc fc 0f c0*	      DC.B	$FC,$FC,$0F,$C0,$F0,$FC	;		  ;150-55 NUMBERS: 0,1,2
   5259  e69c		       3f fc fc f0*	      DC.B	$3F,$FC,$FC,$F0,$FF,$FC	;		  ;156-61 3,4,5
   5260  e6a2		       ff fc 00 fc*	      DC.B	$FF,$FC,$00,$FC,$FF,$FC	;		  ;162-67 6,7,8
   5261  e6a8		       3c fc		      DC.B	$3C,$FC	;				  ;168-69 9
   5262  e6aa
   5263  e6aa
   5264  e6aa					      ORG	$E6AA
   5265  e6aa							;*;*;*;*;* FROM IGAMERAK.S
   5266  e6aa							;* HEADERS FOR INITIAL SCORE LINE STAMPS: 4 EXTRA MEN PER PLAYER, PLAYER POINTER.
   5267  e6aa		       f0 60 25 b0*ISCORLIN   DC.B	<SCOREMAP,W1ZONE,>SCOREMAP,$B0,16
   5268  e6af		       00 3e e0 18*	      DC.B	BLANK1,$3E,CSET1,24,BLANK1,$3E,CSET1,32,BLANK1,$3E,CSET1,40
   5269  e6bb		       00 3e e0 30*	      DC.B	BLANK1,$3E,CSET1,48,BLANK1,$3E,CSET1,56,FULL0,$3E,CSET1,64
   5270  e6c7		       00 3e e0 58*	      DC.B	BLANK1,$3E,CSET1,88,BLANK1,$3E,CSET1,96,BLANK1,$3E,CSET1,104
   5271  e6d3		       00 3e e0 70*	      DC.B	BLANK1,$3E,CSET1,112,BLANK1,$3E,CSET1,120,BLANK1,$3E,CSET1,128
   5272  e6df		       00 9e e0 4c	      DC.B	BLANK1,$9E,CSET1,76
   5273  e6e3		       00 00		      DC.B	0,0
   5274  e6e5
   5275  e6e5
   5276  e6e5		       48	   PUTTITLE   PHA
   5277  e6e6		       20 d6 db 	      JSR	SETDPLH
   5278  e6e9		       68		      PLA
   5279  e6ea		       aa		      TAX
   5280  e6eb							;*;*;*       JMP     PUTMPLAT
   5281  e6eb							;*;*;*       RTS
   5282  e6eb		       bd 4b fd    PUTMPLAT   LDA	TEMPLATE,X
   5283  e6ee		       91 db		      STA	(DPLOW),Y
   5284  e6f0		       ca		      DEX
   5285  e6f1		       88		      DEY
   5286  e6f2		       c0 05		      CPY	#5
   5287  e6f4		       b0 f5		      BCS	PUTMPLAT
   5288  e6f6		       60		      RTS
   5289  e6f7
   5290  e6f7
   5291  e6f7		       24 28	   WAITVBL    BIT	CTRLRD
   5292  e6f9		       10 fc		      BPL	WAITVBL
   5293  e6fb		       24 28		      BIT	CTRLRD
   5294  e6fd		       10 f8		      BPL	WAITVBL
   5295  e6ff		       60		      RTS
   5296  e700
   5297  e700							;*AREVSWCH  DC.B      $40,$80,$10,$20	      ;USED IN DDMOVE
   5298  e700				   ENDE6AA
   5299  e700
   5300  e700
   5301  e700					      ORG	$E700	;		    ;LINE 5: OFFSET = 7.
   5302  e700
   5303  e700		       00 00 00 00*	      DC.B	$00,$00,$00,$00,$00,$01,$00,$01	;0-7
   5304  e708		       00 00 00 00*	      DC.B	$00,$00,$00,$00,$00,$01,$00,$01	;8-15
   5305  e710		       40 00 40 00*	      DC.B	$40,$00,$40,$00,$40,$01,$40,$01	;16-23
   5306  e718		       40 00 40 00*	      DC.B	$40,$00,$40,$00,$40,$01	;		  ;24-29
   5307  e71e		       aa aa		      DC.B	$AA,$AA	;				  ;30-31  SKY
   5308  e720		       bf fe b3 da	      DC.B	$BF,$FE,$B3,$DA	;			  ;32-35  BIG,SML FLOWER
   5309  e724		       55 55		      DC.B	$55,$55	;				  ;	  FULL DIRT
   5310  e726		       01 55 55 55*	      DC.B	$01,$55,$55,$55,$55,$40,$50,$05	;	 HALF DIRT
   5311  e72e		       01 40 50 05	      DC.B	$01,$40,$50,$05	;			  ;	  HALF DIRT
   5312  e732
   5313  e732		       2a a8		      DC.B	$2A,$A8	;				  ;	  TEDDY HEAD
   5314  e734		       0b 80 d5 50*	      DC.B	$0B,$80,$D5,$50,$AA,$AA,$00,$A8	;	 VEGGIES:C,R,M,C
   5315  e73c		       19 ea 75 54*	      DC.B	$19,$EA,$75,$54,$5D,$55,$6E,$E4	;	 E,BP,T,O
   5316  e744		       91 56 ad 7b*	      DC.B	$91,$56,$AD,$7B,$05,$50	;		  ;	  W,G,P
   5317  e74a
   5318  e74a		       50 00 00 05	      DC.B	$50,$00,$00,$05	;			  ;74-77  R,L DIRT EDGE
   5319  e74e
   5320  e74e		       50 00		      DC.B	$50,$00	;				  ;78-79  S
   5321  e750		       50 14		      DC.B	$50,$14	;				  ;80-81  A
   5322  e752		       50 14		      DC.B	$50,$14	;				  ;82-83  Y
   5323  e754		       50 00 55 54	      DC.B	$50,$00,$55,$54	;			  ;84-87  LETRG,LETRM
   5324  e758
   5325  e758		       30 30 30 33*	      DC.B	$30,$30,$30,$33,$F0,$30	;		  ;88-93  (C) 1983 ATARI
   5326  e75e							;DC.B	    $30,$30,$30,$33,$F3,$F0;		    ;94-99  (C) 1982 NAMCO
   5327  e75e		       f0 f3 33 30*	      DC.B	$F0,$F3,$33,$30,$30,$30	;94-99  (C) 1982 NAMCO
   5328  e764		       ff ff ff fc*	      DC.B	$FF,$FF,$FF,$FC,$FF,$FF,$FF,$FF	;100-07 TITLED10,9
   5329  e76c		       3f ff ff fc*	      DC.B	$3F,$FF,$FF,$FC,$FF,$F0,$3F,$FF	;108-15 TITLEG10,9
   5330  e774		       ff fc 3f ff*	      DC.B	$FF,$FC,$3F,$FF,$FF,$FF,$FF,$FF	;116-23 TITLEU10,9
   5331  e77c		       03 ff ff fc*	      DC.B	$03,$FF,$FF,$FC,$AA,$AA,$96,$AA	;124-31 TDDUG10,9
   5332  e784		       ff ff ff ff	      DC.B	$FF,$FF,$FF,$FF	;			  ;132-35 TITLEI10,9
   5333  e788
   5334  e788		       a0		      DC.B	$A0	;				      ;136    RSKYHALF (137)
   5335  e789		       00 00 00 00	      DC.B	$00,$00,$00,$00	;			  ;137-40 16 PIX BLANK3.
   5336  e78d		       0a		      DC.B	$0A	;				      ;141    LSKYHALF (140)
   5337  e78e		       50 14		      DC.B	$50,$14	;				  ;142-43 R
   5338  e790		       ff ff ff ff*	      DC.B	$FF,$FF,$FF,$FF,$FF,$F0	;		  ;144-49 BLACKBOX
   5339  e796
   5340  e796		       fc fc 0f c0*	      DC.B	$FC,$FC,$0F,$C0,$F0,$FC	;		  ;150-55 NUMBERS: 0,1,2
   5341  e79c		       00 fc 3c f0*	      DC.B	$00,$FC,$3C,$F0,$FF,$F0	;		  ;156-61 3,4,5
   5342  e7a2		       ff f0 00 fc*	      DC.B	$FF,$F0,$00,$FC,$FC,$FC	;		  ;162-67 6,7,8
   5343  e7a8		       fc fc		      DC.B	$FC,$FC	;				  ;168-69 9
   5344  e7aa
   5345  e7aa
   5346  e7aa					      ORG	$E7AA
   5347  e7aa							;*DISPLAY LIST LISTS DLI BYTES: FIRST BYTE IS FOR ZONE 1 AT BOTTOM OF SCREEN,
   5348  e7aa							;*	    LAST BYTE FOR DUMMY ZONE AT TOP OF SCREEN
   5349  e7aa		       4b 4b 4b 4b*DLIBITS    DC.B	$4B,$4B,$4B,$4B,$4B,$CB,$4B,$4B,$4B,$CB,$4B,$4B,$4B,$CB
   5350  e7b8		       cb 4b 4f 47*	      DC.B	$CB,$4B,$4F,$47,$CC,$4B,$4B
   5351  e7bf
   5352  e7bf							;* LOW ADDRESSES FOR CHARACTER MAPS FOR EACH ZONE...
   5353  e7bf		       ef e0 d0 c0*MAPLOW     DC.B	$EF,$E0,$D0,$C0,$B0,$A0,$90,$80,$70,$60,$50,$40,$30,$20,$10
   5354  e7ce							;	   DC.B      0
   5355  e7ce							;* INITIAL PALETTE COLORS...;		    ;OVERLAPS WITH ABOVE (BLACK = 0)
   5356  e7ce		       00 85 0e 00 IPALETTE   DC.B	BLACK,DDBLUE,WHITE,BLACK
   5357  e7d2		       34 1a 0e 	      DC.B	$34,$1A,$0E	;	      ;RED,YELLOW,WHITE
   5358  e7d5		       30 00 44 	      DC.B	$30,$00,$44	;	      ;BROWN,BLACK,TAN
   5359  e7d8		       d6 24 0e 	      DC.B	$D6,$24,$0E	;	      ;GREEN, ORANGE, WHITE
   5360  e7db		       1a 85 a0 	      DC.B	YELLOW,DDBLUE,$A0	;NUMLIVES IN COL 3.
   5361  e7de		       86 86 0e 	      DC.B	SKYBLUE,SKYBLUE,PL1COLR	;SCORE,VEGGIE
   5362  e7e1		       1a 85 24 	      DC.B	YELLOW,DDBLUE,PEBBLE1	;DIRT0, DIRT2
   5363  e7e4		       d4 86 34 	      DC.B	$D4,SKYBLUE,$34	;SKY,DIRT1,DIRT3
   5364  e7e7
   5365  e7e7							;*;*;*;*;* FROM INITDIRT.S
   5366  e7e7		       00 0c 18 0c*CRYOFST    DC.B	0,12,24,12,0,12,24,12
   5367  e7ef
   5368  e7ef
   5369  e7ef
   5370  e7ef		       7c 2f 04 ff*TITLCBOR   DC.B	124,47,4,255,124,4,255,255
   5371  e7f7
   5372  e7f7		       14 0b 33 2a SEQTAB     DC	<GPOOKA,<LPOOKA,<GFYGAR,<LFYGAR
   5373  e7fb		       02 14 21 33	      DC	<RPOOKA,<GPOOKA,<RFYGAR,<GFYGAR
   5374  e7ff							;*;*;*;*;* PAGE 86 BYTES FULL
   5375  e7ff				   ENDE7AA
   5376  e7ff
   5377  e7ff
   5378  e800					      ORG	$E800	;		    ;LINE 4: OFFSET = 8.
   5379  e800
   5380  e800		       00 00 00 00*	      DC.B	$00,$00,$00,$00,$00,$00,$00,$01	;0-7
   5381  e808		       00 00 00 00*	      DC.B	$00,$00,$00,$00,$00,$00,$00,$01	;8-15
   5382  e810		       40 00 40 00*	      DC.B	$40,$00,$40,$00,$40,$00,$40,$00	;16-23
   5383  e818		       40 00 c0 00*	      DC.B	$40,$00,$C0,$00,$40,$00	;		  ;24-29
   5384  e81e		       aa aa		      DC.B	$AA,$AA	;				  ;30-31  SKY
   5385  e820		       b7 fe bf da	      DC.B	$B7,$FE,$BF,$DA	;			  ;32-35  BIG,SML FLOWER
   5386  e824		       d5 55		      DC.B	$D5,$55	;				  ;	  FULL DIRT
   5387  e826		       01 55 d5 55*	      DC.B	$01,$55,$D5,$55,$D5,$40,$C0,$01	;	 HALF DIRT
   5388  e82e		       01 40 c0 01	      DC.B	$01,$40,$C0,$01	;			  ;	  HALF DIRT
   5389  e832
   5390  e832		       aa aa		      DC.B	$AA,$AA	;				  ;	  TEDDY HEAD
   5391  e834		       02 a0 d5 40*	      DC.B	$02,$A0,$D5,$40,$E6,$6A,$00,$2A	;	 VEGGIES:C,R,M,C
   5392  e83c		       06 aa 54 94*	      DC.B	$06,$AA,$54,$94,$55,$55,$2B,$A0	;	 E,BP,T,O
   5393  e844		       95 16 a5 5a*	      DC.B	$95,$16,$A5,$5A,$15,$14	;		  ;	  W,G,P
   5394  e84a
   5395  e84a		       d0 00 00 05	      DC.B	$D0,$00,$00,$05	;			  ;74-77  R,L DIRT EDGE
   5396  e84e
   5397  e84e		       50 00		      DC.B	$50,$00	;				  ;78-79  S
   5398  e850		       54 54		      DC.B	$54,$54	;				  ;80-81  A
   5399  e852		       50 14		      DC.B	$50,$14	;				  ;82-83  Y
   5400  e854		       50 14 55 54	      DC.B	$50,$14,$55,$54	;			  ;84-87  LETRG,LETRM
   5401  e858
   5402  e858		       c3 0c 30 33*	      DC.B	$C3,$0C,$30,$33,$30,$30	;		  ;88-93  (C) 1983 ATARI
   5403  e85e							;DC.B	    $C3,$0C,$30,$33,$33,$00;		    ;94-99  (C) 1982 NAMCO
   5404  e85e		       00 33 33 30*	      DC.B	$00,$33,$33,$30,$0C,$C3	;94-99  (C) 1982 NAMCO
   5405  e864		       aa aa aa a8*	      DC.B	$AA,$AA,$AA,$A8,$AA,$80,$0A,$AA	;100-07 TITLED10,9
   5406  e86c		       0a aa aa a0*	      DC.B	$0A,$AA,$AA,$A0,$AA,$80,$0A,$AA	;108-15 TITLEG10,9
   5407  e874		       aa a8 2a aa*	      DC.B	$AA,$A8,$2A,$AA,$AA,$A8,$2A,$AA	;116-23 TITLEU10,9
   5408  e87c		       00 1f ff f0*	      DC.B	$00,$1F,$FF,$F0,$2A,$7F,$D6,$F0	;124-31 TDDUG10,9
   5409  e884		       2a a8 aa aa	      DC.B	$2A,$A8,$AA,$AA	;			  ;132-35 TITLEI10,9
   5410  e888
   5411  e888		       a0		      DC.B	$A0	;				      ;136    RSKYHALF (137)
   5412  e889		       00 00 00 00	      DC.B	$00,$00,$00,$00	;			  ;137-40 16 PIX BLANK3.
   5413  e88d		       0a		      DC.B	$0A	;				      ;141    LSKYHALF (140)
   5414  e88e		       50 14		      DC.B	$50,$14	;				  ;142-43 R
   5415  e890		       ff ff ff ff*	      DC.B	$FF,$FF,$FF,$FF,$FF,$F0	;		  ;144-49 BLACKBOX
   5416  e896
   5417  e896		       ff fc ff f0*	      DC.B	$FF,$FC,$FF,$F0,$FF,$FC	;		  ;150-55 NUMBERS: 0,1,2
   5418  e89c		       fc fc 3f f0*	      DC.B	$FC,$FC,$3F,$F0,$FC,$00	;		  ;156-61 3,4,5
   5419  e8a2		       fc 00 ff fc*	      DC.B	$FC,$00,$FF,$FC,$FC,$FC	;		  ;162-67 6,7,8
   5420  e8a8		       ff fc		      DC.B	$FF,$FC	;				  ;168-69 9
   5421  e8aa
   5422  e8aa
   5423  e8aa					      ORG	$E8AA
   5424  e8aa							;* COLORS FOR VEGGIES ARE ARRANGED AS FOLLOWS:
   5425  e8aa							;*	    CARROT,RUTABAGA,MUSHROOM,CUCUMBER,CUCUMBER,EGGPLANT,EGGPLANT,BELLPEPP
   5426  e8aa							;*	    BELLPEPP,TOMATO,TOMATO,ONION,ONION,WATERMELON,WATERMELON,GALAXIAN
   5427  e8aa							;*	    GALAXIAN,PINEAPPLE,TEDDYBEAR
   5428  e8aa
   5429  e8aa		       d2 1e 3f f4*VEGCOL1    DC.B	$D2,$1E,$3F,$F4,$F4,$50,$50,$D4
   5430  e8b2		       d4 32 32 26*	      DC.B	$D4,$32,$32,$26,$26,$34,$34,$74
   5431  e8ba		       74 d2 16 	      DC.B	$74,$D2,$16
   5432  e8bd		       34 d6 22 d6*VEGCOL2    DC.B	$34,$D6,$22,$D6,$D6,$52,$52,$3A
   5433  e8c5		       3a d2 d2 1e*	      DC.B	$3A,$D2,$D2,$1E,$1E,$D8,$D8,$1A
   5434  e8cd		       1a 1a 1a 	      DC.B	$1A,$1A,$1A
   5435  e8d0		       38 ee 04 fc*VEGCOL3    DC.B	$38,$EE,$04,$FC,$FC,$58,$58,$E8
   5436  e8d8		       e8 36 36 16*	      DC.B	$E8,$36,$36,$16,$16,$1A,$1A,$54
   5437  e8e0		       54 24 14 	      DC.B	$54,$24,$14
   5438  e8e3
   5439  e8e3				   TUNLDIR
   5440  e8e3		       30 08 18 18*	      DC.B	$30,$08,$18,$18,$1C,$04,$06,$0E
   5441  e8eb		       03 0f 0f 01*	      DC.B	$03,$0F,$0F,$01,$03,$07,$0F
   5442  e8f2		       40 80		      DC.B	$40,$80	;		  ;BONZO LEVELS 0,1.
   5443  e8f4
   5444  e8f4		       a0 02	   RESPAL3    LDY	#2	;		       ;RESTORE PALETTE 3: USE Y IN LOOP SO
   5445  e8f6		       b9 d8 e7    PLAMSGC    LDA	IPALETTE+10,Y	;	    ;  X RETURNED FROM FREEZFRM WON"T
   5446  e8f9		       99 14 23 	      STA	P0C0SHAD+13,Y	;	    ;  BE CLOBBERED.
   5447  e8fc		       88		      DEY
   5448  e8fd		       10 f7		      BPL	PLAMSGC
   5449  e8ff		       60		      RTS
   5450  e900							;*;*;*;*;* PAGE 86 BYTES FULL
   5451  e900				   ENDE8AA
   5452  e900
   5453  e900
   5454  e900					      ORG	$E900	;		    ;LINE 3: OFFSET = 9.
   5455  e900
   5456  e900		       00 00 00 00*	      DC.B	$00,$00,$00,$00,$00,$01,$00,$01	;0-7
   5457  e908		       00 00 00 00*	      DC.B	$00,$00,$00,$00,$00,$01,$00,$01	;8-15
   5458  e910		       00 00 40 00*	      DC.B	$00,$00,$40,$00,$00,$01,$40,$01	;16-23
   5459  e918		       00 00 40 00*	      DC.B	$00,$00,$40,$00,$00,$01	;		  ;24-29
   5460  e91e		       aa aa		      DC.B	$AA,$AA	;				  ;30-31  SKY
   5461  e920		       bf de af 6a	      DC.B	$BF,$DE,$AF,$6A	;			  ;32-35  BIG,SML FLOWER
   5462  e924		       55 5d		      DC.B	$55,$5D	;				  ;	  FULL DIRT
   5463  e926		       01 5d 55 5d*	      DC.B	$01,$5D,$55,$5D,$55,$40,$40,$01	;	 HALF DIRT
   5464  e92e		       01 40 40 01	      DC.B	$01,$40,$40,$01	;			  ;	  HALF DIRT
   5465  e932
   5466  e932		       8b e2		      DC.B	$8B,$E2	;				  ;	  TEDDY HEAD
   5467  e934		       00 90 95 a0*	      DC.B	$00,$90,$95,$A0,$2A,$A6,$00,$0A	;	 VEGGIES:C,R,M,C
   5468  e93c		       02 6a 11 10*	      DC.B	$02,$6A,$11,$10,$16,$14,$0A,$80	;	 E,BP,T,O
   5469  e944		       00 00 a5 5a*	      DC.B	$00,$00,$A5,$5A,$51,$45	;		  ;	  W,G,P
   5470  e94a
   5471  e94a		       50 00 00 0d	      DC.B	$50,$00,$00,$0D	;			  ;74-77  R,L DIRT EDGE
   5472  e94e
   5473  e94e		       55 54		      DC.B	$55,$54	;				  ;78-79  S
   5474  e950		       15 50		      DC.B	$15,$50	;				  ;80-81  A
   5475  e952		       50 14		      DC.B	$50,$14	;				  ;82-83  Y
   5476  e954		       55 54 54 54	      DC.B	$55,$54,$54,$54	;			  ;84-87  LETRG,LETRM
   5477  e958
   5478  e958		       cc 0c 33 f3*	      DC.B	$CC,$0C,$33,$F3,$F3,$F0	;		  ;88-93  (C) 1983 ATARI
   5479  e95e							;  DC.B      $CC,$0C,$33,$F3,$F3,$F0;		      ;94-99  (C) 1982 NAMCO
   5480  e95e		       f0 f3 f3 33*	      DC.B	$F0,$F3,$F3,$33,$0C,$CC	;94-99  (C) 1982 NAMCO
   5481  e964		       ff ff ff f0*	      DC.B	$FF,$FF,$FF,$F0,$FF,$C0,$03,$FF	;100-07 TITLED10,9
   5482  e96c		       03 ff ff c0*	      DC.B	$03,$FF,$FF,$C0,$FF,$C0,$0F,$FF	;108-15 TITLEG10,9
   5483  e974		       ff fc 3f fc*	      DC.B	$FF,$FC,$3F,$FC,$FF,$FC,$3F,$FF	;116-23 TITLEU10,9
   5484  e97c		       00 07 ff f0*	      DC.B	$00,$07,$FF,$F0,$0A,$1F,$F5,$B0	;124-31 TDDUG10,9
   5485  e984		       3f fc ff ff	      DC.B	$3F,$FC,$FF,$FF	;			  ;132-35 TITLEI10,9
   5486  e988
   5487  e988		       a0		      DC.B	$A0	;				      ;136    RSKYHALF (137)
   5488  e989		       00 00 00 00	      DC.B	$00,$00,$00,$00	;			  ;137-40 16 PIX BLANK3.
   5489  e98d		       0a		      DC.B	$0A	;				      ;141    LSKYHALF (140)
   5490  e98e		       55 54		      DC.B	$55,$54	;				  ;142-43 R
   5491  e990		       ff ff ff ff*	      DC.B	$FF,$FF,$FF,$FF,$FF,$F0	;		  ;144-49 BLACKBOX
   5492  e996
   5493  e996		       ff fc ff f0*	      DC.B	$FF,$FC,$FF,$F0,$FF,$FC	;		  ;150-55 NUMBERS: 0,1,2
   5494  e99c		       ff fc 3f f0*	      DC.B	$FF,$FC,$3F,$F0,$FF,$FC	;		  ;156-61 3,4,5
   5495  e9a2		       ff fc ff fc*	      DC.B	$FF,$FC,$FF,$FC,$FF,$FC	;		  ;162-67 6,7,8
   5496  e9a8		       ff fc		      DC.B	$FF,$FC	;				  ;168-69 9
   5497  e9aa
   5498  e9aa
   5499  e9aa					      ORG	$E9AA
   5500  e9aa		       08 10 08 00*CRXOFST    DC.B	8,16,8,0,8,16,8	;    ,0
   5501  e9b1
   5502  e9b1
   5503  e9b1				   ASNGHBF0
   5504  e9b1							; SNGHBF0 IS INDEXED BY SONG NUMBER.
   5505  e9b1							; IT CONTAINS THE HIGH BYTE FOR FREQUENCY OF FIRST VOICE.
   5506  e9b1							;  20 BYTES
   5507  e9b1		       00 ec ed ed*SNGHBF0    DC.B	$00,>SNGCF0,>SNGDF0,>SNGDF0,>SNGNULLF
   5508  e9b6		       ec ec ec 	      DC.B	>SNG1F0,>SNG2F0,>SNG3F0
   5509  e9b9		       ec ec ec ec	      DC.B	>SNG5F0,>SNG4F0,>SNG6F0,>SNG7F0
   5510  e9bd		       ec ec ed ed	      DC.B	>SNG8F0,>SNG9F0,>SNG10F0,>SNG11F0
   5511  e9c1		       ec ec ec ed	      DC.B	>SNG12F0,>SNG13F0,>SNG14F0,>SNG15F0
   5512  e9c5
   5513  e9c5		       24 14 17 26 PEBBCOLR   DC.B	PEBBLE0A,PEBBLE0B,PEBBLE0C,PEBBLE0D
   5514  e9c9		       52 42 24 10	      DC.B	PEBBLE1A,PEBBLE1B,PEBBLE1C,PEBBLE1D
   5515  e9cd		       52 42 00 52	      DC.B	PEBBLE2A,PEBBLE2B,PEBBLE2C,PEBBLE2D
   5516  e9d1
   5517  e9d1				   CREATS
   5518  e9d1		       47 63 a3 4b*	      DC.B	$47,$63,$A3,$4B,$65,$3C,$A9,$A3
   5519  e9d9		       3c 63 47 4e*	      DC.B	$3C,$63,$47,$4E,$3C,$3A,$33
   5520  e9e0		       87 78		      DC.B	$87,$78	;		  ;BONZO LEVELS 0,1.
   5521  e9e2
   5522  e9e2		       aa e1 55 0f*RANDCRET   DC.B	$AA,$E1,$55,$0F,$8D,$69,$2D,$96
   5523  e9ea
   5524  e9ea
   5525  e9ea							;*;*;*;*;* FROM SELECT.S
   5526  e9ea
   5527  e9ea							;*;*;*;*;* FROM CHKDEATH.S
   5528  e9ea							;*HSCARGS   DC.B      LCARTNUM,HCARTNUM,0,1,<GAMENAME,>GAMENAME
   5529  e9ea		       41 42 00 01*HSCARGS    DC.B	LCARTNUM,HCARTNUM,0,1,0,0
   5530  e9f0							;*	    DC.B      <BONZDIFF,>BONZDIFF,<HSCOREX,>HSCOREX
   5531  e9f0		       00 00 c0 1f	      DC.B	0,0,<HSCOREX,>HSCOREX
   5532  e9f4							;*	    DC.B      <LOGODLL,>LOGODLL,<SOUND,>SOUND,0
   5533  e9f4		       3f ee 9a dd*	      DC.B	<LOGODLL,>LOGODLL,<HSCRTS,>HSCRTS,10
   5534  e9f9
   5535  e9f9		       a9 01	   SETRACK1   LDA	#1
   5536  e9fb		       85 9b		      STA	RACKNUM
   5537  e9fd		       85 9c		      STA	RACKNUM+1
   5538  e9ff		       60		      RTS
   5539  ea00							;*;*;*;*;* 86 BYTES FULL
   5540  ea00				   ENDE9AA
   5541  ea00
   5542  ea00
   5543  ea00					      ORG	$EA00	;		    ;LINE 2: OFFSET = 10.
   5544  ea00
   5545  ea00		       00 00 00 00*	      DC.B	$00,$00,$00,$00,$00,$01,$00,$05	;0-7
   5546  ea08		       00 00 00 00*	      DC.B	$00,$00,$00,$00,$00,$01,$00,$05	;8-15
   5547  ea10		       00 00 50 00*	      DC.B	$00,$00,$50,$00,$00,$01,$50,$05	;16-23
   5548  ea18		       00 00 50 00*	      DC.B	$00,$00,$50,$00,$00,$01	;		  ;24-29
   5549  ea1e		       aa aa		      DC.B	$AA,$AA	;				  ;30-31  SKY
   5550  ea20		       bd fe aa aa	      DC.B	$BD,$FE,$AA,$AA	;			  ;32-35  BIG,SML FLOWER
   5551  ea24		       55 55		      DC.B	$55,$55	;				  ;	  FULL DIRT
   5552  ea26		       05 55 55 55*	      DC.B	$05,$55,$55,$55,$55,$50,$40,$01	;	 HALF DIRT
   5553  ea2e		       05 50 40 01	      DC.B	$05,$50,$40,$01	;			  ;	  HALF DIRT
   5554  ea32
   5555  ea32		       ac 2a		      DC.B	$AC,$2A	;				  ;	  TEDDY HEAD
   5556  ea34		       00 50 02 28*	      DC.B	$00,$50,$02,$28,$0A,$6A,$00,$06	;	 VEGGIES:C,R,M,C
   5557  ea3c		       00 aa 01 00*	      DC.B	$00,$AA,$01,$00,$00,$80,$06,$40	;	 E,BP,T,O
   5558  ea44		       00 00 95 56*	      DC.B	$00,$00,$95,$56,$44,$41	;		  ;	  W,G,P
   5559  ea4a
   5560  ea4a		       50 00 00 05	      DC.B	$50,$00,$00,$05	;			  ;74-77  R,L DIRT EDGE
   5561  ea4e
   5562  ea4e		       15 54		      DC.B	$15,$54	;				  ;78-79  S
   5563  ea50		       05 40		      DC.B	$05,$40	;				  ;80-81  A
   5564  ea52		       50 14		      DC.B	$50,$14	;				  ;82-83  Y
   5565  ea54		       15 50 14 50	      DC.B	$15,$50,$14,$50	;			  ;84-87  LETRG,LETRM
   5566  ea58
   5567  ea58		       c3 0c 33 33*	      DC.B	$C3,$0C,$33,$33,$33,$30	;		  ;88-93  (C) 1983 ATARI
   5568  ea5e							;DC.B	    $C3,$0C,$33,$33,$30,$30;		    ;94-99  (C) 1982 NAMCO
   5569  ea5e		       30 30 33 33*	      DC.B	$30,$30,$33,$33,$0C,$C3	;94-99  (C) 1982 NAMCO
   5570  ea64		       2a aa aa a0*	      DC.B	$2A,$AA,$AA,$A0,$AA,$80,$02,$AA	;100-07 TITLED10,9
   5571  ea6c		       00 aa aa 80*	      DC.B	$00,$AA,$AA,$80,$AA,$80,$AA,$AA	;108-15 TITLEG10,9
   5572  ea74		       2a a0 0a a8*	      DC.B	$2A,$A0,$0A,$A8,$AA,$A8,$2A,$AA	;116-23 TITLEU10,9
   5573  ea7c		       00 01 ff c0*	      DC.B	$00,$01,$FF,$C0,$00,$1F,$FD,$60	;124-31 TDDUG10,9
   5574  ea84		       0a a0 aa aa	      DC.B	$0A,$A0,$AA,$AA	;			  ;132-35 TITLEI10,9
   5575  ea88
   5576  ea88		       a0		      DC.B	$A0	;				      ;136    RSKYHALF (137)
   5577  ea89		       00 00 00 00	      DC.B	$00,$00,$00,$00	;			  ;137-40 16 PIX BLANK3.
   5578  ea8d		       0a		      DC.B	$0A	;				      ;141    LSKYHALF (140)
   5579  ea8e		       15 50		      DC.B	$15,$50	;				  ;142-43 R
   5580  ea90		       ff ff ff ff*	      DC.B	$FF,$FF,$FF,$FF,$FF,$F0	;		  ;144-49 BLACKBOX
   5581  ea96
   5582  ea96		       3f f0 03 f0*	      DC.B	$3F,$F0,$03,$F0,$3F,$F0	;		  ;150-55 NUMBERS: 0,1,2
   5583  ea9c		       3f f0 0f f0*	      DC.B	$3F,$F0,$0F,$F0,$FF,$FC	;		  ;156-61 3,4,5
   5584  eaa2		       3f fc ff fc*	      DC.B	$3F,$FC,$FF,$FC,$3F,$F0	;		  ;162-67 6,7,8
   5585  eaa8		       3f f0		      DC.B	$3F,$F0	;				  ;168-69 9
   5586  eaaa
   5587  eaaa
   5588  eaaa					      ORG	$EAAA
   5589  eaaa
   5590  eaaa
   5591  eaaa							;*;*;*;*;* FROM GENDPL.S
   5592  eaaa							;*DISPLAY LIST POINTERS FOR TWO DISPLAY LISTS.
   5593  eaaa		       5d a2	   LDPPL      DC.B	<DPL0LIST,<DPL1LIST
   5594  eaac
   5595  eaac							;* ZONE SCAN LINE BOUNDARIES....
   5596  eaac		       0b 17 23 2f*TOPZONE    DC.B	11,23,35,47,59,71,83,95,107,119,131,143,155,167,179,191,191
   5597  eabd
   5598  eabd
   5599  eabd							;*;*;*;*;* FROM TITLEPAG.S
   5600  eabd		       05 05 05 05*TLISTSIZ   DC.B	5,5,5,5,5,5,5,5,5,13,5,5,33,33,5
   5601  eacc							;	   DC.B      5; 		     ;OVERLAPS
   5602  eacc		       05 01 01 00*NUMBYTES   DC.B	5,1,1,0,0,1,2,0	;OVERLAPS
   5603  ead4		       01 04 00 00*	      DC.B	1,4,0,0,2,1,0,0
   5604  eadc		       00 07 00 07*	      DC.B	0,7,0,7,0,6,1,3
   5605  eae4		       03 01 08 00*	      DC.B	3,1,8,0,0,2,2,5
   5606  eaec		       0f 08 07 00*	      DC.B	15,8,7,0,2,3,3,2
   5607  eaf4							;	   DC.B      0; 		     ;OVERLAPS
   5608  eaf4							;* BLACK BOX HEADER...;		    ;OVERLAPS
   5609  eaf4		       00 e0 1a 90 BLAKBOX    DC.B	0,CSET1,$1A,BLACKBOX
   5610  eaf8
   5611  eaf8		       15	   LFLAMSEQ   DC	LFLAME4	;		  LEFT FLAME SMALL
   5612  eaf9		       22		      DC	LFLAME8	;		  LEFT FLAME 8 PIX
   5613  eafa		       24		      DC	LFLAME16	;		 LEFT FLAME 16 PIX
   5614  eafb		       28		      DC	LFLAME24	;		 LEFT FLAME 24 PIX (MAXIMUM)
   5615  eafc		       14	   RFLAMSEQ   DC	RFLAME4	;		  RIGHT FLAME SMALL
   5616  eafd		       16		      DC	RFLAME8	;		  RIGHT FLAME 8 PIX
   5617  eafe		       18		      DC	RFLAME16	;		 RIGHT FLAME 16 PIX
   5618  eaff		       1c		      DC	RFLAME24	;		 RIGHT FLAME 24 PIX (MAXIMUM)
   5619  eb00
   5620  eb00				   ENDEAAA
   5621  eb00
   5622  eb00
   5623  eb00					      ORG	$EB00	;		    ;TOP SCAN LINE: OFFSET = 11.
   5624  eb00
   5625  eb00		       00 00 41 c1*	      DC.B	$00,$00,$41,$C1,$00,$01,$41,$D5	;0-7
   5626  eb08		       00 00 41 c1*	      DC.B	$00,$00,$41,$C1,$00,$01,$41,$55	;8-15
   5627  eb10		       40 00 51 c1*	      DC.B	$40,$00,$51,$C1,$40,$01,$75,$D5	;16-23
   5628  eb18		       40 00 51 c1*	      DC.B	$40,$00,$51,$C1,$40,$01	;		  ;24-29
   5629  eb1e		       aa aa		      DC.B	$AA,$AA	;				  ;30-31  SKY
   5630  eb20		       af fa aa aa	      DC.B	$AF,$FA,$AA,$AA	;			  ;32-35  BIG,SML FLOWER
   5631  eb24		       75 d5		      DC.B	$75,$D5	;				  ;36-37  FULL DIRT
   5632  eb26		       75 d5 75 d5*	      DC.B	$75,$D5,$75,$D5,$75,$D5,$40,$01	;38-45  HALF DIRT
   5633  eb2e		       75 d5 40 01	      DC.B	$75,$D5,$40,$01	;			  ;46-49  HALF DIRT
   5634  eb32
   5635  eb32		       28 28		      DC.B	$28,$28	;				  ;50-51  TEDDY HEAD
   5636  eb34		       01 14 0a 20*	      DC.B	$01,$14,$0A,$20,$03,$A8,$00,$00	;52-59  VEGGIES:C,R,M,C
   5637  eb3c		       00 28 00 00*	      DC.B	$00,$28,$00,$00,$00,$00,$02,$00	;60-67  E,BP,T,O
   5638  eb44		       00 00 85 52*	      DC.B	$00,$00,$85,$52,$00,$00	;		  ;68-73  W,G,P
   5639  eb4a
   5640  eb4a		       70 00 00 05	      DC.B	$70,$00,$00,$05	;			  ;74-77  R,L DIRT EDGE
   5641  eb4e
   5642  eb4e		       00 00		      DC.B	$00,$00	;				  ;78-79  S
   5643  eb50		       00 00		      DC.B	$00,$00	;				  ;80-81  A
   5644  eb52		       00 00		      DC.B	$00,$00	;				  ;82-83  Y
   5645  eb54		       00 00 00 00	      DC.B	$00,$00,$00,$00	;			  ;84-87  LETRG,LETRM
   5646  eb58
   5647  eb58		       30 30 33 f3*	      DC.B	$30,$30,$33,$F3,$F3,$30	;		  ;88-93  (C) 1983 ATARI
   5648  eb5e		       30 30 33 f3*	      DC.B	$30,$30,$33,$F3,$F3,$F0	;		  ;94-99  (C) 1982 NAMCO
   5649  eb64		       3f ff ff c0*	      DC.B	$3F,$FF,$FF,$C0,$FF,$C0,$03,$FF	;100-07 TITLED10,9
   5650  eb6c		       00 3f fc 00*	      DC.B	$00,$3F,$FC,$00,$FF,$C0,$FF,$FF	;108-15 TITLEG10,9
   5651  eb74		       0f c0 03 f0*	      DC.B	$0F,$C0,$03,$F0,$FF,$FC,$3F,$FF	;116-23 TITLEU10,9
   5652  eb7c		       00 00 ff 00*	      DC.B	$00,$00,$FF,$00,$00,$07,$FF,$60	;124-31 TDDUG10,9
   5653  eb84		       03 c0 ff ff	      DC.B	$03,$C0,$FF,$FF	;			  ;132-35 TITLEI10,9
   5654  eb88
   5655  eb88		       a0		      DC.B	$A0	;				      ;136    RSKYHALF (137)
   5656  eb89		       00 00 00 00	      DC.B	$00,$00,$00,$00	;			  ;137-40 16 PIX BLANK3.
   5657  eb8d		       0a		      DC.B	$0A	;				      ;141    LSKYHALF (140)
   5658  eb8e		       00 00		      DC.B	$00,$00	;				  ;142-43 R
   5659  eb90		       ff ff ff ff*	      DC.B	$FF,$FF,$FF,$FF,$FF,$F0	;		  ;144-49 BLACKBOX
   5660  eb96
   5661  eb96		       00 00 00 00*	      DC.B	$00,$00,$00,$00,$00,$00	;		  ;150-55 NUMBERS: 0,1,2
   5662  eb9c		       00 00 00 00*	      DC.B	$00,$00,$00,$00,$00,$00	;		  ;156-61 3,4,5
   5663  eba2		       00 00 00 00*	      DC.B	$00,$00,$00,$00,$00,$00	;		  ;162-67 6,7,8
   5664  eba8		       00 00		      DC.B	$00,$00	;				  ;168-69 9
   5665  ebaa							;*;*;*;*;*;*;*;*;*;*;*;*;*;*;*;*;*;*;*;*;*;*;*;*;*;*;*;*;*;*;*;*;*;*;*;*;*;*;*;*;*;*;*;*;*;*;*;*;*;*;*;*;*;*;*;*;*;*;*;*;*;*;*;*;*;*;*;*;*;*;*;*;*;*;*;*;*;*;*
   5666  ebaa							;*;*;*;*;*;*;*;*;*;*;*;*;*;*;*;*;*;*;*;*;*;*;*;*;*;*;*;*;*;*;*;*;*;*;*;*;*;*;*;*;*;*;*;*;*;*;*;*;*;*;*;*;*;*;*;*;*;*;*;*;*;*;*;*;*;*;*;*;*;*;*;*;*;*;*;*;*;*;*
   5667  ebaa
   5668  ebaa							;*;*;*;*;*;*;*;*;*;*;*;	       CHARACTER AND STAMP DATA 		  ;*;*;*;*;*;*;*;*;*;*
   5669  ebaa							;*;*;*;*;*;*;*;*;*;*;*;			 CSET2				  ;*;*;*;*;*;*;*;*;*;*
   5670  ebaa							;*;*;*;*;*;*;*;*;*;*;*;		     PAGES 4C - 57			  ;*;*;*;*;*;*;*;*;*;*
   5671  ebaa
   5672  ebaa							;*;*;*;*;*;*;*;*;*;*;*;*;*;*;*;*;*;*;*;*;*;*;*;*;*;*;*;*;*;*;*;*;*;*;*;*;*;*;*;*;*;*;*;*;*;*;*;*;*;*;*;*;*;*;*;*;*;*;*;*;*;*;*;*;*;*;*;*;*;*;*;*;*;*;*;*;*;*;*
   5673  ebaa
   5674  ebaa					      ORG	$EBAA
   5675  ebaa							;* LOW AND HIGH ADDRESSES OF DISPLAY LISTS FOR EACH ZONE.
   5676  ebaa		       bd 00 3f 7e*LISTTABL   DC.B	<L0Z0,<L0Z1,<L0Z2,<L0Z3,<L0Z4,<L0Z5,<L0Z6
   5677  ebb1		       7e bd 00 3f*	      DC.B	<L0Z7,<L0Z8,<L0Z9,<L0Z10,<L0Z11,<L0Z12
   5678  ebb7		       00 3f 7e bd*	      DC.B	<L0Z13,<L0Z14,<L0Z15,<L0Z0,<DUMMYDPL,<DUMMYDPL
   5679  ebbd		       e7 e7 e7 	      DC.B	<DUMMYDPL,<DUMMYDPL,<DUMMYDPL
   5680  ebc0		       1b 18 18 18*LISTTBH0   DC.B	>L0Z0,>L0Z1,>L0Z2,>L0Z3,>L0Z4,>L0Z5,>L0Z6
   5681  ebc7		       19 19 1a 1a*	      DC.B	>L0Z7,>L0Z8,>L0Z9,>L0Z10,>L0Z11,>L0Z12
   5682  ebcd		       1b 1b 1b 1b*	      DC.B	>L0Z13,>L0Z14,>L0Z15,>L0Z0,>DUMMYDPL,>DUMMYDPL
   5683  ebd3		       23 23 23 	      DC.B	>DUMMYDPL,>DUMMYDPL,>DUMMYDPL
   5684  ebd6		       1b 1c 1c 1c*LISTTBH1   DC.B	>L0Z0,>L1Z1,>L1Z2,>L1Z3,>L1Z4,>L1Z5,>L1Z6
   5685  ebdd		       1d 1d 1e 1e*	      DC.B	>L1Z7,>L1Z8,>L1Z9,>L1Z10,>L1Z11,>L1Z12
   5686  ebe3		       1f 1f 1f 1b*	      DC.B	>L1Z13,>L1Z14,>L1Z15,>L0Z0,>DUMMYDPL,>DUMMYDPL
   5687  ebe9		       23 23 23 	      DC.B	>DUMMYDPL,>DUMMYDPL,>DUMMYDPL
   5688  ebec
   5689  ebec
   5690  ebec				   BACKMAP
   5691  ebec		       a2 0f		      LDX	#NUMZONES	;		;SET UP DISPLAY LIST FOR TITLE PAGE.
   5692  ebee		       20 d6 db    SETTBACK   JSR	SETDPLH
   5693  ebf1		       a0 00		      LDY	#0	;		       ;ZERO OUT DIRT BACKGROUND BY SETTING
   5694  ebf3		       a9 f0		      LDA	#$F0	;		     ;	CHAR MAP TO POINT TO ZEROS.
   5695  ebf5		       91 db		      STA	(DPLOW),Y
   5696  ebf7		       98		      TYA
   5697  ebf8		       a0 06		      LDY	#6
   5698  ebfa		       91 db		      STA	(DPLOW),Y
   5699  ebfc		       ca		      DEX
   5700  ebfd		       d0 ef		      BNE	SETTBACK
   5701  ebff		       60		      RTS
   5702  ec00							;*;*;*;*;*   86 BYTES FULL
   5703  ec00				   ENDEBAA
   5704  ec00
   5705  ec00
   5706  ec00					      ORG	$EC00
   5707  ec00							;  PUT IN AN ORG HERE!!! - THIS PAGE IS 256 BYTES FULL.
   5708  ec00							;  WARNING!!! - DON"T BEGIN PAGE WITH F1 ARRAY.
   5709  ec00				   ASNG7F0
   5710  ec00
   5711  ec00		       1e 1c 1e 1c*SNG7F0     DC.B	$1E,$1C,$1E,$1C,$14,$15,$13	;,$14	    ;8 BYTES-1
   5712  ec07
   5713  ec07
   5714  ec07				   ASNG2F0
   5715  ec07		       14 12 14 13 SNG2F0     DC.B	$14,$12,$14,$13	;,$0F,$0E,$0F,$0E	;8 BYTES-4
   5716  ec0b
   5717  ec0b
   5718  ec0b							;NOTE: IN 2600 THERE IS ALSO 0F,0E,0F,0E.....1F,1E,1F,1E
   5719  ec0b							;	FOR A TOTAL OF 24 BYTES
   5720  ec0b				   ASNGCF0
   5721  ec0b		       0f 0e 0f 0e SNGCF0     DC.B	$0F,$0E,$0F,$0E	;			;16 BYTES-8
   5722  ec0f		       0f 0e 0f 0e	      DC.B	$0F,$0E,$0F,$0E
   5723  ec13							;	   ;			 DC.B	   $1F,$1E,$1F,$1E
   5724  ec13							;	   ;			 DC.B	   $1F,$1E,$1F,$1E
   5725  ec13
   5726  ec13				   ASNG6F0
   5727  ec13		       1f 1e 1f 1e*SNG6F0     DC.B	$1F,$1E,$1F,$1E,$1F,$1E,$1F,$1E	;20 BYTES-5
   5728  ec1b		       0f 0e 0f 10*	      DC.B	$0F,$0E,$0F,$10,$11,$10,$0E	;,$0D
   5729  ec22							;	     ;		DC.B	  $0E,$0F,$0E,$0F
   5730  ec22
   5731  ec22
   5732  ec22				   ASNG14F0
   5733  ec22		       0d 0e 0f 0e*SNG14F0    DC.B	$0D,$0E,$0F,$0E,$0F,$10,$0F,$10	;14 BYTES
   5734  ec2a		       11 10 11 12*	      DC.B	$11,$10,$11,$12,$33,$2C
   5735  ec30
   5736  ec30
   5737  ec30				   ASNG5F0
   5738  ec30		       0b 08 06 0b*SNG5F0     DC.B	$0B,$08,$06,$0B,$08,$06,$0B,$08	;,$06	;9 BYTES-1
   5739  ec38
   5740  ec38
   5741  ec38				   ASNG14V0
   5742  ec38		       06 06 06 05*SNG14V0    DC.B	$06,$06,$06,$05,$05,$05,$04,$04	;14 BYTES
   5743  ec40		       04 03 03 03*	      DC.B	$04,$03,$03,$03,$02,$08
   5744  ec46
   5745  ec46
   5746  ec46				   ASNG14F1
   5747  ec46		       0e 0f 10 0f*SNG14F1    DC.B	$0E,$0F,$10,$0F,$10,$11,$10,$11	;14 BYTES
   5748  ec4e		       12 11 12 13*	      DC.B	$12,$11,$12,$13,$34,$2D
   5749  ec54
   5750  ec54
   5751  ec54
   5752  ec54				   ASNG14V1
   5753  ec54		       05 05 05 04*SNG14V1    DC.B	$05,$05,$05,$04,$04,$04,$03,$03	;14 BYTES
   5754  ec5c		       03 02 02 02*	      DC.B	$03,$02,$02,$02,$01,$08
   5755  ec62
   5756  ec62
   5757  ec62
   5758  ec62				   ASNG1F0
   5759  ec62		       1b 18 15 14*SNG1F0     DC.B	$1B,$18,$15,$14,$12,$10,$0E	;,$0D	    ;8 BYTES-1
   5760  ec69
   5761  ec69
   5762  ec69				   ASNG7C0
   5763  ec69		       0d 0d 0d 0d*SNG7C0     DC.B	$0D,$0D,$0D,$0D,$04,$04,$04,$04	;8 BYTES
   5764  ec71
   5765  ec71
   5766  ec71				   ASNG4V0
   5767  ec71		       0a 0a 0a 0a SNG4V0     DC.B	$0A,$0A,$0A,$0A	;			;15 BYTES
   5768  ec75		       0a 0a 0a 0a	      DC.B	$0A,$0A,$0A,$0A
   5769  ec79		       04 04 04 04*	      DC.B	$04,$04,$04,$04,$04,$04,$04
   5770  ec80
   5771  ec80
   5772  ec80				   ASNG4F0
   5773  ec80		       9a 99 98 97 SNG4F0     DC.B	$9A,$99,$98,$97	;			;15 BYTES-1
   5774  ec84		       96 95 94 93	      DC.B	$96,$95,$94,$93
   5775  ec88		       32 17 18 19*	      DC.B	$32,$17,$18,$19,$1A,$1B	;,$1C
   5776  ec8e
   5777  ec8e
   5778  ec8e				   ASNG1F1
   5779  ec8e		       1c 19 16 15*SNG1F1     DC.B	$1C,$19,$16,$15,$13,$11,$0F	;,$0E	    ;8 BYTES-1
   5780  ec95
   5781  ec95
   5782  ec95				   ASNG8F1
   5783  ec95		       0e 11 14 18*SNG8F1     DC.B	$0E,$11,$14,$18,$0E	;		    ;5 BYTES
   5784  ec9a
   5785  ec9a
   5786  ec9a				   ASNG12F1
   5787  ec9a		       20 93 93 93 SNG12F1    DC.B	$20,$93,$93,$93	;			 ;12 BYTES
   5788  ec9e		       20 93 93 93	      DC.B	$20,$93,$93,$93
   5789  eca2		       20 93 93 13	      DC.B	$20,$93,$93,$13
   5790  eca6
   5791  eca6
   5792  eca6				   ASNG12F0
   5793  eca6		       8f 92 91 92 SNG12F0    DC.B	$8F,$92,$91,$92	;			 ;12 BYTES-1
   5794  ecaa		       8e 92 91 92	      DC.B	$8E,$92,$91,$92
   5795  ecae		       8d 92 91 	      DC.B	$8D,$92,$91	;,$12
   5796  ecb1
   5797  ecb1
   5798  ecb1				   ASNG13F0
   5799  ecb1		       12 11 10 8f*SNG13F0    DC.B	$12,$11,$10,$8F,$12,$91	;		 ;15 BYTES
   5800  ecb7		       14 92 17 94*	      DC.B	$14,$92,$17,$94,$18,$17
   5801  ecbd		       97 2b 17 	      DC.B	$97,$2B,$17
   5802  ecc0
   5803  ecc0
   5804  ecc0				   ASNG9F1
   5805  ecc0		       8b 8f 20 8f SNG9F1     DC.B	$8B,$8F,$20,$8F	;			;16 BYTES
   5806  ecc4		       8b 8f 20 8f	      DC.B	$8B,$8F,$20,$8F
   5807  ecc8		       8b 8f 20 8f	      DC.B	$8B,$8F,$20,$8F
   5808  eccc		       20 8f 8f 0f	      DC.B	$20,$8F,$8F,$0F
   5809  ecd0
   5810  ecd0				   ASNG9F0
   5811  ecd0		       97 97 9c 97 SNG9F0     DC.B	$97,$97,$9C,$97	;			;14 BYTES-1
   5812  ecd4		       94 92 91 8f	      DC.B	$94,$92,$91,$8F
   5813  ecd8		       8d 8d 8d 8d	      DC.B	$8D,$8D,$8D,$8D
   5814  ecdc		       60		      DC.B	$60	;,$40
   5815  ecdd
   5816  ecdd
   5817  ecdd
   5818  ecdd				   ASNG13F1
   5819  ecdd		       40 94 00 93 SNG13F1    DC.B	$40,$94,$00,$93	;			 ;12 BYTES-1
   5820  ece1		       00 92 00 90*	      DC.B	$00,$92,$00,$90,$00,$8F
   5821  ece7		       40		      DC.B	$40	;,$0F
   5822  ece8
   5823  ece8
   5824  ece8
   5825  ece8				   ASNG8F0
   5826  ece8		       0f 12 15 19*SNG8F0     DC.B	$0F,$12,$15,$19,$0F	;		    ;5 BYTES
   5827  eced
   5828  eced
   5829  eced				   ASNG3F0
   5830  eced		       30 2f 2e 2d SNG3F0     DC.B	$30,$2F,$2E,$2D	;			;5 BYTES
   5831  ecf1		       2e		      DC.B	$2E
   5832  ecf2
   5833  ecf2
   5834  ecf2				   ASNG3F1
   5835  ecf2		       8a 8a 8a 8a SNG3F1     DC.B	$8A,$8A,$8A,$8A	;			;5 BYTES
   5836  ecf6		       8a		      DC.B	$8A
   5837  ecf7
   5838  ecf7
   5839  ecf7		       60	   SNGNULLF   DC.B	$60	;		      ; 1 BYTE
   5840  ecf8
   5841  ecf8		       86 8a	   FLAMTABL   DC	RFYGAR2,LFYGAR2
   5842  ecfa		       0c 0e		      DC	RFLAMFYG,LFLAMFYG
   5843  ecfc		       86 8a		      DC	RFYGAR2,LFYGAR2
   5844  ecfe		       0c 0e		      DC	RFLAMFYG,LFLAMFYG
   5845  ed00
   5846  ed00				   ENDEC00
   5847  ed00
   5848  ed00					      ORG	$ED00
   5849  ed00							; PUT AN ORG HERE!!!
   5850  ed00							; WARNING!!! - DON"T BEGIN PAGE WITH F1 ARRAY.
   5851  ed00							;  THESE SOUND ARRAYS NEED 109 BYTES
   5852  ed00
   5853  ed00				   ASNGDF0
   5854  ed00		       8f 8f cf    SNGDF0     DC.B	$8F,$8F,$CF	;			    ;26 BYTES
   5855  ed03		       8f 8f 8f 8f	      DC.B	$8F,$8F,$8F,$8F
   5856  ed07		       8f 8f cf 	      DC.B	$8F,$8F,$CF
   5857  ed0a		       8f 8f 8f 32	      DC.B	$8F,$8F,$8F,$32
   5858  ed0e		       d1 d1		      DC.B	$D1,$D1
   5859  ed10		       31 32 31 2f	      DC.B	$31,$32,$31,$2F
   5860  ed14		       d1 d1		      DC.B	$D1,$D1
   5861  ed16		       31 32 31 10	      DC.B	$31,$32,$31,$10
   5862  ed1a
   5863  ed1a
   5864  ed1a				   ASNGDF1
   5865  ed1a		       cf cf	   SNGDF1     DC.B	$CF,$CF	;				;16 BYTES
   5866  ed1c		       d0 d0		      DC.B	$D0,$D0
   5867  ed1e		       d1 d1		      DC.B	$D1,$D1
   5868  ed20		       d2 d2		      DC.B	$D2,$D2
   5869  ed22		       d3 d3		      DC.B	$D3,$D3
   5870  ed24		       d3 d3		      DC.B	$D3,$D3
   5871  ed26		       d4 d4		      DC.B	$D4,$D4
   5872  ed28		       d2 50		      DC.B	$D2,$50
   5873  ed2a
   5874  ed2a
   5875  ed2a
   5876  ed2a
   5877  ed2a				   ASNG10F0
   5878  ed2a		       12 11 10 0f*SNG10F0    DC.B	$12,$11,$10,$0F,$0D,$0F	;		;6 BYTES
   5879  ed30
   5880  ed30
   5881  ed30				   ASNG11F0
   5882  ed30		       17 14 12 17*SNG11F0    DC.B	$17,$14,$12,$17,$9F,$8D	;		 ;7 BYTES
   5883  ed36		       6f		      DC.B	$6F
   5884  ed37
   5885  ed37
   5886  ed37
   5887  ed37				   ASNG15F0
   5888  ed37		       8f 8f 8f 6f SNG15F0    DC.B	$8F,$8F,$8F,$6F	;			;22 BYTES
   5889  ed3b		       72 2f		      DC.B	$72,$2F
   5890  ed3d		       72 2f 2d 	      DC.B	$72,$2F,$2D
   5891  ed40		       92 92 72 	      DC.B	$92,$92,$72
   5892  ed43		       34 77 76 	      DC.B	$34,$77,$76
   5893  ed46		       7f 36		      DC.B	$7F,$36
   5894  ed48		       7f 76		      DC.B	$7F,$76
   5895  ed4a		       94 94 54 	      DC.B	$94,$94,$54
   5896  ed4d
   5897  ed4d
   5898  ed4d				   ASNG15F1
   5899  ed4d		       34 32 30 2f SNG15F1    DC.B	$34,$32,$30,$2F	;			;32 BYTES
   5900  ed51		       34 2f 34 2f	      DC.B	$34,$2F,$34,$2F
   5901  ed55		       34 2f 34 2f	      DC.B	$34,$2F,$34,$2F
   5902  ed59		       34 2f 34 2f	      DC.B	$34,$2F,$34,$2F
   5903  ed5d		       34 2f 34 31	      DC.B	$34,$2F,$34,$31
   5904  ed61		       94 94 94 31	      DC.B	$94,$94,$94,$31
   5905  ed65		       34 31 34 30	      DC.B	$34,$31,$34,$30
   5906  ed69		       34 30 34 10	      DC.B	$34,$30,$34,$10
   5907  ed6d
   5908  ed6d
   5909  ed6d							;*;*;*;*;*  THIS PAGE IS 109 BYTES FULL
   5910  ed6d
   5911  ed6d
   5912  ed6d							;  FOLLOWING TWELVE  ARRAYS MUST OCCUR ON SAME PAGE - NEED 128 BYTES
   5913  ed6d
   5914  ed6d		       24 26 28 2a*SOUTH7     DC.B	36,38,40,42,28,46,20	;	    ;$FF,$FF,$FF,$FF,28,$FF,20
   5915  ed74		       2c 0c 30 18*SOUTH1     DC.B	44,12,48,24,44,8,48
   5916  ed7b
   5917  ed7b		       24 26 16 2a*NORTH7     DC.B	36,38,22,42,44,46,20	;	    ;$FF,$FF,22,$FF,$FF,$FF,20
   5918  ed82		       28 06 28 12*NORTH1     DC.B	40,6,40,18,48,2,48
   5919  ed89
   5920  ed89		       24 26 28 1a*WEST5      DC.B	36,38,40,26,44,10,48	;	    ;$FF,$FF,$FF,26,$FF,10,$FF
   5921  ed90		       2a 2e 12 2a*WEST1      DC.B	42,46,18,42,24,46,16
   5922  ed97
   5923  ed97		       24 0e 28 2a*EAST5      DC.B	36,14,40,42,44,10,48	;	    ;$FF,14,$FF,$FF,$FF,10,$FF
   5924  ed9e		       26 26 06 2e*EAST1      DC.B	38,38,6,46,12,46,4
   5925  eda5
   5926  eda5		       00 02 04 06*VERTTOP    DC.B	0,2,4,6,0,2,4,6,16,18,20,22,16,18,20,30,32,34
   5927  edb7		       00 17 17 2f*TITLYPOS   DC.B	0,23,23,47,71,23,47,71,71,0,0,0,0,0,0,0,0
   5928  edc8							;	   DC.B      0,0
   5929  edc8		       00 00 04 04*VERTBOT    DC.B	0,0,4,4,8,8,12,12,16,16,20,20,24,24,28,30,32,34
   5930  edda
   5931  edda		       00 02 04 06*HORRGT     DC.B	0,2,4,6,8,10,12,14,0,2,4,6,8,10,12,30,32,34
   5932  edec		       00 02 00 02*HORLFT     DC.B	0,2,0,2,8,10,8,10,16,18,16,18,24,26,24,30,32,34
   5933  edfe
   5934  edfe		       04 08	   FLAMPOS    DC	$04,$08	;		  PIXEL X-POS OFFSETS FOR FLAME
   5935  ee00							;  FROM MONSTER.S;			    BOUND TO NEXT PAGE!!!
   5936  ee00
   5937  ee00				   ENDED00
   5938  ee00
   5939  ee00					      ORG	$EE00
   5940  ee00
   5941  ee00		       10 18		      DC	$10,$18	;		  ; BOUND TO PREVIOUS PAGE!!!
   5942  ee02
   5943  ee02							;*;*;*;*;*  FROM MONSTER.S FILE
   5944  ee02							;-------- CHARACTER SEQUENCE VALUES
   5945  ee02
   5946  ee02							;  !!!! IF THESE STAMP ARRAYS ARE MOVED NEWSEQ IN MONSTER FILE MUST CHANGE !!!!
   5947  ee02							;POOKA ARRAYS MUST STAY TOGETHER AND ON SAME PAGE WITH FYGAR ARRAYS.
   5948  ee02		       7e 7e 7c 7c*RPOOKA     DC	RPOOKA2,RPOOKA2,RPOOKA1,RPOOKA1,RPOOKA1
   5949  ee07		       7c 7c 7c 00	      DC	RPOOKA1,RPOOKA1,RPOOKA1,0
   5950  ee0b		       82 82 80 80*LPOOKA     DC	LPOOKA2,LPOOKA2,LPOOKA1,LPOOKA1,LPOOKA1
   5951  ee10		       80 80 80 00	      DC	LPOOKA1,LPOOKA1,LPOOKA1,0
   5952  ee14		       8c 8e 8e 8e GPOOKA     DC	GPOOKA1,GPOOKA2,GPOOKA2,GPOOKA2	;,0
   5953  ee18		       00 04 7c 22*TITLXPOS   DC.B	0,4,124,34,64,64,94,4,124	;OVERLAPPED WITH ABOVE.
   5954  ee21
   5955  ee21							;FYGAR ARRAYS MUST STAY TOGETHER AND ON SAME PAGE WITH POOKA ARRAYS.
   5956  ee21		       84 84 86 86 RFYGAR     DC	RFYGAR1,RFYGAR1,RFYGAR2,RFYGAR2
   5957  ee25		       84 84 86 86*	      DC	RFYGAR1,RFYGAR1,RFYGAR2,RFYGAR2,0
   5958  ee2a		       88 88 8a 8a LFYGAR     DC	LFYGAR1,LFYGAR1,LFYGAR2,LFYGAR2
   5959  ee2e		       88 88 8a 8a*	      DC	LFYGAR1,LFYGAR1,LFYGAR2,LFYGAR2,0
   5960  ee33		       90 92 92 92 GFYGAR     DC	GFYGAR1,GFYGAR2,GFYGAR2,GFYGAR2	;,0
   5961  ee37		       00 01 02 04*TITLCDIR   DC.B	0,1,2,4,0,2,4,4	;OVERLAPPED WITH ABOVE.
   5962  ee3f		       cf 23 e7    LOGODLL    DC.B	$CF,>DUMMYDPL,<DUMMYDPL
   5963  ee42		       4f 23 e7 	      DC.B	$4F,>DUMMYDPL,<DUMMYDPL
   5964  ee45		       43 23 e7 	      DC.B	$43,>DUMMYDPL,<DUMMYDPL
   5965  ee48		       4b 1b 05 	      DC.B	$4B,>L0Z13,L0Z13P5
   5966  ee4b		       4b 1a c2 	      DC.B	$4B,>L0Z12,L0Z12P5
   5967  ee4e		       43 23 e7 	      DC.B	$43,>DUMMYDPL,<DUMMYDPL
   5968  ee51		       4b 1a 05 	      DC.B	$4B,>L0Z9,L0Z9P5
   5969  ee54		       4c 23 e7 	      DC.B	$4C,>DUMMYDPL,<DUMMYDPL
   5970  ee57
   5971  ee57
   5972  ee57							;*;*;*;*;*;*;*;*;*;*;*;*;*;*;*;*;*;*;*;*;*;*;*;*;*;*;*;*;*;*;*;*;*;*;*;*;*;*;*;*;*;*;*;*;*;*;*;*;*;*;*;*;*;*;*;*;*;*;*;*;*;*;*;*;*;*;*;*;*;*;*;*;*;*;*;*;*;*;*;*
   5973  ee57							;*;*;*;*;*;*;*;*;*;*;*;							  ;*;*;*;*;*;*;*;*;*;*;*
   5974  ee57							;*;*;*;*;*;*;*;*;*;*;*       DLI ROUTINES:  NMI VECTOR POINTS AT A RAM;	  ;*;*;*;*;*;*;*;*;*;*;*
   5975  ee57							;*;*;*;*;*;*;*;*;*;*;*;	       LOCATION WHICH CONTAINS A JUMP TO	  ;*;*;*;*;*;*;*;*;*;*;*
   5976  ee57							;*;*;*;*;*;*;*;*;*;*;*;	       THE NEXT DLI, DEPENDING ON THE		  ;*;*;*;*;*;*;*;*;*;*
   5977  ee57							;*;*;*;*;*;*;*;*;*;*;*;	       CURRENT POSITION ON THE SCREEN.		  ;*;*;*;*;*;*;*;*;*;*;*
   5978  ee57							;*;*;*;*;*;*;*;*;*;*;*;	       THE DLI"S ARE ARRANGED AS FOLLOWS:	  ;*;*;*;*;*;*;*;*;*;*;*
   5979  ee57							;*;*;*;*;*;*;*;*;*;*;*;							  ;*;*;*;*;*;*;*;*;*;*;*
   5980  ee57							;*;*;*;*;*;*;*;*;*;*;*;	       DLISETUP   -   JUST BEFORE ZONE 0:	  ;*;*;*;*;*;*;*;*;*;*;*
   5981  ee57							;*;*;*;*;*;*;*;*;*;*;*;			      SETS ONSCREEN FLAG TO 1.	  ;*;*;*;*;*;*;*;*;*;*;*
   5982  ee57							;*;*;*;*;*;*;*;*;*;*;*;	       DLISCORE   -   SCORE ZONE USES PALETTE 5,  ;*;*;*;*;*;*;*;*;*;*;*
   5983  ee57							;*;*;*;*;*;*;*;*;*;*;*;			      SO THIS DLI RESETS PAL 5	  ;*;*;*;*;*;*;*;*;*;*;*
   5984  ee57							;*;*;*;*;*;*;*;*;*;*;*;			      FOR VEGGIE COLORS.	  ;*;*;*;*;*;*;*;*;*;*;*
   5985  ee57							;*;*;*;*;*;*;*;*;*;*;*;	       DLISKY	  -   SKY USES PALETTE 7, SO DLI  ;*;*;*;*;*;*;*;*;*;*;*
   5986  ee57							;*;*;*;*;*;*;*;*;*;*;*;			      RESETS IT FOR DIRT LAYER 1. ;*;*;*;*;*;*;*;*;*;*;*
   5987  ee57							;*;*;*;*;*;*;*;*;*;*;*;	       DLIDIRT0   -   USES PALETTE 6; DLI RESETS  ;*;*;*;*;*;*;*;*;*;*;*
   5988  ee57							;*;*;*;*;*;*;*;*;*;*;*;			      PALETTE 6 FOR DIRT LAYER 2. ;*;*;*;*;*;*;*;*;*;*;*
   5989  ee57							;*;*;*;*;*;*;*;*;*;*;*;	       DLIDIRT1   -   USES PALETTE 7; DLI RESETS  ;*;*;*;*;*;*;*;*;*;*;*
   5990  ee57							;*;*;*;*;*;*;*;*;*;*;*;			      PALETTE 7 FOR DIRT LAYER 3. ;*;*;*;*;*;*;*;*;*;*;*
   5991  ee57							;*;*;*;*;*;*;*;*;*;*;*;	       DLIDIRT2   -   USES PALETTE 6; DLI RESETS  ;*;*;*;*;*;*;*;*;*;*;*
   5992  ee57							;*;*;*;*;*;*;*;*;*;*;*;			      PALETTE 6 FOR DIRT LAYER 0. ;*;*;*;*;*;*;*;*;*;*;*
   5993  ee57							;*;*;*;*;*;*;*;*;*;*;*;	       DLIRESET   -   RESETS PALETTE 5 FOR SCORE. ;*;*;*;*;*;*;*;*;*;*;*
   5994  ee57							;*;*;*;*;*;*;*;*;*;*;*;	       DLIDIRT3   -   USES PALETTE 7; DLI RESETS  ;*;*;*;*;*;*;*;*;*;*;*
   5995  ee57							;*;*;*;*;*;*;*;*;*;*;*;			      PALETTE 7 FOR SKY.	  ;*;*;*;*;*;*;*;*;*;*;*
   5996  ee57							;*;*;*;*;*;*;*;*;*;*;*;	       DLIBOTOM   -   RESETS ONSCREEN TO 0.	  ;*;*;*;*;*;*;*;*;*;*;*
   5997  ee57							;*;*;*;*;*;*;*;*;*;*;*;	       DLIVBLNK   -   WAITS FOR VBLANK TO SYNC	  ;*;*;*;*;*;*;*;*;*;*;*
   5998  ee57							;*;*;*;*;*;*;*;*;*;*;*;			      DLI"S; RESTORES ORIGINAL	  ;*;*;*;*;*;*;*;*;*;*;*
   5999  ee57							;*;*;*;*;*;*;*;*;*;*;*;			      PALETTES. 		  ;*;*;*;*;*;*;*;*;*;*;*
   6000  ee57							;*;*;*;*;*;*;*;*;*;*;*;							  ;*;*;*;*;*;*;*;*;*;*;*
   6001  ee57							;*;*;*;*;*;*;*;*;*;*;*  NOTE: DLI ROUTINES MUST NOT BEGIN PAGE !!!!!;		  ;*;*;*;*;*;*;*;*;*;*;*
   6002  ee57							;*;*;*;*;*;*;*;*;*;*;*;*;*;*;*;*;*;*;*;*;*;*;*;*;*;*;*;*;*;*;*;*;*;*;*;*;*;*;*;*;*;*;*;*;*;*;*;*;*;*;*;*;*;*;*;*;*;*;*;*;*;*;*;*;*;*;*;*;*;*;*;*;*;*;*;*;*;*;*;*
   6003  ee57							;*DLISETUP
   6004  ee57							;*	    PHA
   6005  ee57							;*;*	     LDA     #1;		     ;THIS DLI IS FOR THE DUMMY ZONE JUST
   6006  ee57							;*;*	     STA     ONSCREEN;		     ;	BEFORE ZONE 0.	IT SETS ONSCREEN
   6007  ee57							;*	    LDA     #<DLISCORE; 	  ;  AND LOW BYTE OF ADDRESS OF NEXT DLI.
   6008  ee57							;*	    STA     DLIVECT;		    ;  EVENTUALLY, WE CAN OPTIMIZE THIS SO
   6009  ee57							;*;*	     LDA     #>DLISCORE;	   ;  THAT ALL DLI CODE IS ON SAME PAGE:
   6010  ee57							;*;*	     STA     DLIVECT+1; 	     ;	THEN ONLY LOW BYTE NEED BE UPDATED.
   6011  ee57							;*	    INC     FRMCNT
   6012  ee57							;*	    INC     TITLETIM
   6013  ee57							;*	    BNE     BYESETUP
   6014  ee57							;*	    INC     SELCTIM
   6015  ee57							;*BYESETUP  PLA
   6016  ee57							;*	    RTI
   6017  ee57
   6018  ee57				   DLISETUP
   6019  ee57		       48		      PHA
   6020  ee58		       8a		      TXA
   6021  ee59		       48		      PHA		;			      ;ZONE 0 DLI: SCORE/LIVES LINE.  THIS
   6022  ee5a		       ae ef 23 	      LDX	VEGCOLR	;		  ;  USES PALETTE 5, SO IT MUST RESET
   6023  ee5d		       ad f0 23 	      LDA	VEGCOLR+1	;		;  COLORS FOR VEGETABLES WHEN DONE.
   6024  ee60							;*	    STA     WSYNC
   6025  ee60		       85 24		      STA	WSYNC
   6026  ee62		       86 36		      STX	P5C2
   6027  ee64		       85 35		      STA	P5C1
   6028  ee66		       a9 6a		      LDA	#<DLISKY
   6029  ee68		       d0 24		      BNE	DLIEND
   6030  ee6a							;*	    STA     DLIVECT
   6031  ee6a							;*	    LDA     #>DLISKY
   6032  ee6a							;*	    STA     DLIVECT+1
   6033  ee6a							;*	    PLA
   6034  ee6a							;*	    TAX
   6035  ee6a							;*	    PLA
   6036  ee6a							;*	    RTI
   6037  ee6a
   6038  ee6a				   DLISKY
   6039  ee6a		       48		      PHA
   6040  ee6b		       8a		      TXA
   6041  ee6c		       48		      PHA		;			      ;SKY ZONE:  USES PALETTE 7, RESETS
   6042  ee6d		       ae e9 23 	      LDX	DRT1COLR	;		 ;  PALETTE 7 FOR USE IN DIRT LAYER 1.
   6043  ee70		       ad ea 23 	      LDA	DRT1COLR+1
   6044  ee73							;*	    STA     WSYNC
   6045  ee73		       85 24		      STA	WSYNC
   6046  ee75		       86 3d		      STX	P7C1
   6047  ee77		       85 3f		      STA	P7C3
   6048  ee79		       a9 7d		      LDA	#<DLIDIRT0
   6049  ee7b		       d0 11		      BNE	DLIEND
   6050  ee7d							;*	    STA     DLIVECT
   6051  ee7d							;*	    LDA     #>DLIDIRT0
   6052  ee7d							;*	    STA     DLIVECT+1
   6053  ee7d							;*	    PLA
   6054  ee7d							;*	    TAX
   6055  ee7d							;*	    PLA
   6056  ee7d							;*	    RTI
   6057  ee7d
   6058  ee7d
   6059  ee7d				   DLIDIRT0
   6060  ee7d		       48		      PHA
   6061  ee7e		       8a		      TXA
   6062  ee7f		       48		      PHA		;			      ;DIRT LAYER 0: USES PALETTE 6, RESETS
   6063  ee80		       ae eb 23 	      LDX	DRT2COLR	;		 ;  PALETTE 6 FOR USE IN DIRT LAYER 2.
   6064  ee83		       ad ec 23 	      LDA	DRT2COLR+1
   6065  ee86							;*	    STA     WSYNC
   6066  ee86		       85 24		      STA	WSYNC
   6067  ee88		       86 39		      STX	P6C1
   6068  ee8a		       85 3b		      STA	P6C3
   6069  ee8c		       a9 93		      LDA	#<DLIDIRT1
   6070  ee8e		       8d be 1f    DLIEND     STA	DLIVECT
   6071  ee91							;*	    LDA     #>DLIDIRT1
   6072  ee91							;*	    STA     DLIVECT+1
   6073  ee91		       d0 42		      BNE	DLIEXIT
   6074  ee93							;*	    PLA
   6075  ee93							;*	    TAX
   6076  ee93							;*	    PLA
   6077  ee93							;*	    RTI
   6078  ee93
   6079  ee93
   6080  ee93				   DLIDIRT1
   6081  ee93		       48		      PHA
   6082  ee94		       8a		      TXA
   6083  ee95		       48		      PHA		;			      ;DIRT LAYER 1: USES PALETTE 7, RESETS
   6084  ee96		       ae ed 23 	      LDX	DRT3COLR	;		 ;  PALETTE 7 FOR USE IN DIRT LAYER 3.
   6085  ee99		       ad ee 23 	      LDA	DRT3COLR+1
   6086  ee9c							;*	    STA     WSYNC
   6087  ee9c		       85 24		      STA	WSYNC
   6088  ee9e		       86 3d		      STX	P7C1
   6089  eea0		       85 3f		      STA	P7C3
   6090  eea2		       e6 86		      INC	FRMCNT
   6091  eea4		       06 a1		      ASL	SYNCFRAM
   6092  eea6		       90 02		      BCC	STUFF
   6093  eea8		       e6 a1		      INC	SYNCFRAM
   6094  eeaa		       e6 ad	   STUFF      INC	TITLETIM
   6095  eeac		       d0 02		      BNE	ZYXWVU
   6096  eeae		       e6 ae		      INC	SELCTIM
   6097  eeb0		       a9 b4	   ZYXWVU     LDA	#<DLIVBLNK
   6098  eeb2		       d0 da		      BNE	DLIEND
   6099  eeb4							;*	    STA     DLIVECT
   6100  eeb4							;*	    LDA     #>DLIDIRT3
   6101  eeb4							;*	    STA     DLIVECT+1
   6102  eeb4							;*	    PLA
   6103  eeb4							;*	    TAX
   6104  eeb4							;*	    PLA
   6105  eeb4							;*	    RTI
   6106  eeb4
   6107  eeb4
   6108  eeb4							;*DLIDIRT3
   6109  eeb4							;*	    PHA;			    ;CLEARS ONSCREEN FLAG AND SETS DLI
   6110  eeb4							;*	    LDA     #0; 		    ;  POINTER TO DLI FOR TOP OF SCREEN.
   6111  eeb4							;*	    STA     ONSCREEN
   6112  eeb4							;*	    LDA     #<DLIVBLNK
   6113  eeb4							;*ZDLIRTI   STA     DLIVECT
   6114  eeb4							;*	    LDA     #>DLIVBLNK
   6115  eeb4							;*	    STA     DLIVECT+1
   6116  eeb4							;*	    PLA
   6117  eeb4							;*	    RTI
   6118  eeb4
   6119  eeb4				   DLIVBLNK
   6120  eeb4		       48		      PHA
   6121  eeb5		       8a		      TXA
   6122  eeb6		       48		      PHA
   6123  eeb7		       98		      TYA
   6124  eeb8		       48		      PHA
   6125  eeb9		       a0 04		      LDY	#4
   6126  eebb		       85 24	   DLIWLOOP   STA	WSYNC
   6127  eebd		       88		      DEY
   6128  eebe		       10 fb		      BPL	DLIWLOOP
   6129  eec0		       a5 28	   ZDLIVBL    LDA	CTRLRD	;		   ;WAIT FOR VBLANK TO SYNC DLI"S.
   6130  eec2		       10 0f		      BPL	ENDDLIV
   6131  eec4		       a5 28		      LDA	CTRLRD
   6132  eec6		       10 0b		      BPL	ENDDLIV
   6133  eec8		       20 c2 db 	      JSR	DOCOLORS
   6134  eecb		       20 fc fd 	      JSR	SOUND
   6135  eece		       a9 57		      LDA	#<DLISETUP
   6136  eed0		       8d be 1f 	      STA	DLIVECT
   6137  eed3							;*	    LDA     #>DLISETUP
   6138  eed3							;*	    STA     DLIVECT+1
   6139  eed3		       68	   ENDDLIV    PLA
   6140  eed4		       a8		      TAY
   6141  eed5		       68	   DLIEXIT    PLA
   6142  eed6		       aa		      TAX
   6143  eed7		       68		      PLA
   6144  eed8		       40	   GENERTI    RTI
   6145  eed9
   6146  eed9		       48	   DLITOP     PHA
   6147  eeda		       a9 50		      LDA	#$50
   6148  eedc		       85 3c		      STA	CTRL
   6149  eede		       a9 e0		      LDA	#CSET1
   6150  eee0		       85 34		      STA	CHARBASE
   6151  eee2		       ee 22 23 	      INC	P0C0SHAD+27
   6152  eee5		       ad 22 23 	      LDA	P0C0SHAD+27
   6153  eee8		       85 24		      STA	WSYNC
   6154  eeea		       85 3b		      STA	P0C0+27
   6155  eeec		       a9 f0		      LDA	#<DLIBOTM
   6156  eeee		       d0 0b		      BNE	ZDLIRTI
   6157  eef0
   6158  eef0		       48	   DLIBOTM    PHA
   6159  eef1		       a9 4b		      LDA	#$4B
   6160  eef3		       85 3c		      STA	CTRL
   6161  eef5		       a9 39		      LDA	#$39
   6162  eef7		       85 34		      STA	CHARBASE
   6163  eef9		       a9 d9		      LDA	#<DLITOP
   6164  eefb		       8d be 1f    ZDLIRTI    STA	DLIVECT
   6165  eefe		       68		      PLA
   6166  eeff		       40		      RTI
   6167  ef00				   ENDDLI
   6168  ef00							;*;*;*;*;* THIS PAGE IS ??? BYTES FULL
   6169  ef00				   ENDEE00
   6170  ef00					      ORG	$EF00
   6171  ef00							;   THIS FILE IS . . .;		   MONSTER.S
   6172  ef00
   6173  ef00
   6174  ef00							;-------- DEFINITIONS
   6175  ef00
   6176  ef00		       00 1e	   CHARDF     EQU	$1E	;		      ;;*;*;* MARIA 1 ($1E)
   6177  ef00		       00 24	   CHARD12    EQU	$24	;		      ;;*;*;* MARIA 1 ($24)
   6178  ef00		       00 20	   SETFLEE    EQU	$20
   6179  ef00
   6180  ef00							;-------- MONSTER MOVEMENT
   6181  ef00
   6182  ef00		       06 af	   MONSTERS   ASL	PROPORT	;		  ;THIS GETS DONE ONCE PER FRAME
   6183  ef02		       90 02		      BCC	ENDRATIO
   6184  ef04		       e6 af		      INC	PROPORT
   6185  ef06		       a5 85	   ENDRATIO   LDA	ENTRY
   6186  ef08		       d0 4a		      BNE	ENDTHIS
   6187  ef0a		       20 90 f7    ZNXT113    JSR	PUMPER
   6188  ef0d		       20 e6 f2 	      JSR	FRUITER
   6189  ef10		       20 4a f4 	      JSR	FLAMER
   6190  ef13		       a2 07		      LDX	#$07	;		     TOP LEVEL MONSTER MOVEMENT ROUTINE
   6191  ef15		       20 3e ef    BRATS      JSR	MOVEMONS	;		 -TO BE CALLED EVERY FRAME
   6192  ef18		       ca		      DEX
   6193  ef19		       10 fa		      BPL	BRATS
   6194  ef1b
   6195  ef1b		       ad 01 23 	      LDA	SPEEDUP	;		  ;TIME TO SPEEDUP?
   6196  ef1e		       d0 1d		      BNE	NOWFAST
   6197  ef20		       ad 05 23 	      LDA	FAST	;		     ;NOT ALREADY FAST OR ESCAPING?
   6198  ef23		       05 e9		      ORA	ESCAPER
   6199  ef25		       d0 16		      BNE	NOWFAST
   6200  ef27		       a9 01		      LDA	#1	;						   !
   6201  ef29		       8d 05 23 	      STA	FAST
   6202  ef2c		       a0 10		      LDY	#SNG12	;		   ;SPEEDUP SOUND
   6203  ef2e		       20 ef fd 	      JSR	NOISE
   6204  ef31							;	   ;				   SIMULTANEOUS SPEEDUP FROM HERE...
   6205  ef31		       a2 07		      LDX	#$07
   6206  ef33		       b5 b2	   PREV151    LDA	MONSTAT,X
   6207  ef35		       30 03		      BMI	END151
   6208  ef37		       20 85 f3 	      JSR	SPEEDER
   6209  ef3a		       ca	   END151     DEX
   6210  ef3b		       10 f6		      BPL	PREV151
   6211  ef3d				   NOWFAST
   6212  ef3d		       60		      RTS
   6213  ef3e
   6214  ef3e		       b5 b2	   MOVEMONS   LDA	MONSTAT,X	;		X HOLDS MONSTER NUMBER
   6215  ef40		       d0 12		      BNE	ENDTHIS
   6216  ef42
   6217  ef42		       b5 ba	   CHKRATIO   LDA	DIR,X
   6218  ef44		       29 0a		      AND	#$0A	;		     ANY HORIZONTAL COMPONENT
   6219  ef46		       f0 0d		      BEQ	THISVERT
   6220  ef48							;*	    JSR     DOOM
   6221  ef48		       a5 af		      LDA	PROPORT
   6222  ef4a		       10 08		      BPL	ENDTHIS
   6223  ef4c
   6224  ef4c		       1e 38 20    CHKSPEED   ASL	SPEEDL,X	;		 IF SPEED SHIFT OUT IS ZERO
   6225  ef4f		       3e 00 21 	      ROL	SPEEDH,X	;		 -THEN RETURN
   6226  ef52		       b0 0f		      BCS	DISPCHAR	;		 -THEN RETURN
   6227  ef54		       60	   ENDTHIS    RTS
   6228  ef55
   6229  ef55		       1e 38 20    THISVERT   ASL	SPEEDL,X
   6230  ef58		       3e 00 21 	      ROL	SPEEDH,X
   6231  ef5b		       90 f7		      BCC	ENDTHIS
   6232  ef5d		       06 89	   SCRAT2     ASL	PROPORT2
   6233  ef5f		       90 1c		      BCC	PREMOVE
   6234  ef61		       e6 89		      INC	PROPORT2
   6235  ef63
   6236  ef63		       bd 18 21    DISPCHAR   LDA	CHARSEQL,X	;	       (DISPLAY CHARACTER)
   6237  ef66		       85 cc		      STA	TEMP1	;		    TEMP1 MUST BE ZERO PAGE
   6238  ef68		       a9 ee		      LDA	#>RPOOKA
   6239  ef6a		       85 cd		      STA	TEMP2	;		    TEMP2 MUST BE TEMP1+1
   6240  ef6c		       bc 28 21 	      LDY	CHARSEQN,X	;	       INDEX INTO SEQUENCE
   6241  ef6f		       b1 cc	   PREV1      LDA	(TEMP1),Y	;		ZERO PAGE INDIRECT ADDRESSING
   6242  ef71		       d0 03		      BNE	ZNXT50	;		    WHEN CHAR CODE=0 GO BACK TO
   6243  ef73		       a8		      TAY		;			      -BEGINNING OF CHAR SEQUENCE
   6244  ef74		       f0 f9		      BEQ	PREV1
   6245  ef76		       c8	   ZNXT50     INY		;			      GO TO ZNXT CHAR IN SEQUENCE
   6246  ef77		       95 67		      STA	MONSI,X	;		  UPDATE MONSTER INDEX ARRAY
   6247  ef79		       98		      TYA		;			      USE A FOR ABS. INDEX STORE
   6248  ef7a		       9d 28 21 	      STA	CHARSEQN,X	;	       SAVE CHARSEQ INDEX
   6249  ef7d
   6250  ef7d		       fe 38 20    PREMOVE    INC	SPEEDL,X
   6251  ef80		       b4 ba		      LDY	DIR,X	;		    (MOVEMENT OF MONSTER)
   6252  ef82		       b9 aa e3 	      LDA	XTABLE,Y	;		 TABLE OF VELOCITY VECTORS
   6253  ef85		       18		      CLC		;			      -BASED UPON DIRECTION IN Y
   6254  ef86		       75 54		      ADC	XPOS,X
   6255  ef88		       95 54		      STA	XPOS,X	;		   (POSITION=POS+VELOCITY)
   6256  ef8a		       b9 b9 e3 	      LDA	YTABLE,Y
   6257  ef8d		       18		      CLC
   6258  ef8e		       75 41		      ADC	YPOS,X
   6259  ef90
   6260  ef90		       c9 c0		      CMP	#192	;		     ;IF Y REQUEST IS OUT OF RANGE,
   6261  ef92		       b0 1e		      BCS	FIXY	;		     ; DON"T ADJUST YPOS OR YMODC.
   6262  ef94		       c9 17		      CMP	#23	;		      ; I KNOW THIS IS AWFUL, BUT
   6263  ef96		       90 1a		      BCC	FIXY	;		     ; HOPEFULLY IT"LL NEVER HAPPEN, AND
   6264  ef98							;	   ;				   ; AT LEAST THE SCORE WON"T BE WRECKED.
   6265  ef98
   6266  ef98		       95 41		      STA	YPOS,X
   6267  ef9a		       b9 b9 e3 	      LDA	YTABLE,Y	;		 UPDATE Y OFFSET COUNTER
   6268  ef9d		       18		      CLC		;			      -Y MOD C
   6269  ef9e		       7d e8 22 	      ADC	YMODC,X
   6270  efa1		       c9 0c		      CMP	#$0C
   6271  efa3		       d0 04		      BNE	ZNXT69
   6272  efa5		       a9 00		      LDA	#$00
   6273  efa7		       f0 06		      BEQ	ZNXT12	;		   SAME AS JUMP
   6274  efa9		       c9 ff	   ZNXT69     CMP	#$FF
   6275  efab		       d0 02		      BNE	ZNXT12
   6276  efad		       a9 0b		      LDA	#$0B
   6277  efaf		       9d e8 22    ZNXT12     STA	YMODC,X
   6278  efb2		       b5 54	   FIXY       LDA	XPOS,X	;		   CHECK X GRID
   6279  efb4		       bc 30 21 	      LDY	GHOST,X	;		  CHECK IF GHOST
   6280  efb7		       d0 0a		      BNE	DOGHOST
   6281  efb9							;*	    LDA     XPOS,X;		    CHECK X GRID
   6282  efb9		       29 07		      AND	#$07
   6283  efbb		       1d e8 22 	      ORA	YMODC,X	;		  CHECK Y GRID
   6284  efbe		       d0 94		      BNE	ENDTHIS	;		  (RELATIVE JUMP OUT OF RANGE OTHERWISE)
   6285  efc0		       4c 42 f0 	      JMP	MOVEMODE	;		 ONLY IF BOTH GRIDS ARE CENTERED
   6286  efc3
   6287  efc3				   DOGHOST
   6288  efc3							;*	    LDA     XPOS,X;		    CHECK X GRID
   6289  efc3		       29 07		      AND	#$07
   6290  efc5		       f0 06		      BEQ	GHOSTONX
   6291  efc7		       bd e8 22 	      LDA	YMODC,X	;		  CHECK Y GRID
   6292  efca		       f0 38		      BEQ	GHOSTONY
   6293  efcc		       60		      RTS
   6294  efcd
   6295  efcd		       20 2b f4    GHOSTONX   JSR	GETDIRT
   6296  efd0		       c9 24		      CMP	#CHARD12
   6297  efd2		       b0 29		      BCS	JMODE
   6298  efd4		       c9 1e		      CMP	#CHARDF	;		  ;ALWAYS REMATERIALIZE ON SKY+FLOWERS
   6299  efd6		       b0 49		      BCS	ZNXT13
   6300  efd8		       85 ce		      STA	TEMP3
   6301  efda		       98		      TYA
   6302  efdb		       20 14 d7 	      JSR	GHSTSUB2
   6303  efde							;*	    SEC
   6304  efde							;*	    SBC     #$10;		    GET OTHER DIRT
   6305  efde							;*	    TAY
   6306  efde							;*	    LDA     DIRTMAP,Y
   6307  efde							;*	    CMP     #CHARD12
   6308  efde		       b0 1d		      BCS	JMODE
   6309  efe0		       4a		      LSR		;			SEE IF GHOST CAN APPEAR
   6310  efe1		       4a		      LSR
   6311  efe2		       05 ce		      ORA	TEMP3
   6312  efe4		       29 02		      AND	#$02	;		     CHAR 1
   6313  efe6		       d0 15		      BNE	JMODE
   6314  efe8		       5e 30 21 	      LSR	GHOST,X
   6315  efeb		       20 85 f3 	      JSR	SPEEDER
   6316  efee		       bc e8 22 	      LDY	YMODC,X	;		  IF GHOST APPEARS ON X AND Y
   6317  eff1		       d0 0d		      BNE	ZNXT130
   6318  eff3		       20 28 d7 	      JSR	GHSTSUB1
   6319  eff6							;*	    JSR     GETDIRT
   6320  eff6							;*	    STY     TEMP3
   6321  eff6							;*	    JSR     CHKOTHER
   6322  eff6		       4a		      LSR
   6323  eff7		       29 04		      AND	#$04
   6324  eff9		       f0 05		      BEQ	ZNXT130
   6325  effb		       95 ba		      STA	DIR,X	;		    HERE A = 4
   6326  effd		       4c 80 f2    JMODE      JMP	MODE
   6327  f000		       a9 05	   ZNXT130    LDA	#$05
   6328  f002		       10 f9		      BPL	JMODE
   6329  f004
   6330  f004		       20 2b f4    GHOSTONY   JSR	GETDIRT
   6331  f007		       c9 24		      CMP	#CHARD12
   6332  f009		       b0 f2		      BCS	JMODE
   6333  f00b		       c9 1e		      CMP	#CHARDF	;		  ;ALWAYS REMATERIALIZE ON SKY+FLOWERS
   6334  f00d		       b0 12		      BCS	ZNXT13
   6335  f00f		       85 ce		      STA	TEMP3
   6336  f011		       c8		      INY		;			      GET OTHER DIRT
   6337  f012		       b9 00 26 	      LDA	DIRTMAP,Y
   6338  f015		       c9 24		      CMP	#CHARD12
   6339  f017		       b0 e4		      BCS	JMODE
   6340  f019		       4a		      LSR		;			SEE IF GHOST CAN APPEAR
   6341  f01a		       4a		      LSR
   6342  f01b		       05 ce		      ORA	TEMP3
   6343  f01d		       29 04		      AND	#$04	;		     CHAR 2
   6344  f01f		       d0 dc		      BNE	JMODE
   6345  f021		       5e 30 21    ZNXT13     LSR	GHOST,X
   6346  f024		       20 85 f3 	      JSR	SPEEDER
   6347  f027		       a9 0a		      LDA	#$0A
   6348  f029		       10 d2		      BPL	JMODE
   6349  f02b
   6350  f02b		       20 28 d7    MOVECONT   JSR	GHSTSUB1
   6351  f02e							;*	    JSR     GETDIRT;		    A = DIRT CHAR, Y = DIRT ADDR.
   6352  f02e							;*	    STY     TEMP3;		    NECESSARY FOR CHKOTHER CODE
   6353  f02e							;*	    JSR     CHKOTHER
   6354  f02e							;*	    AND     #$FE
   6355  f02e		       4a		      LSR
   6356  f02f		       a8		      TAY		;			      USE DIRT CHAR. AS INDEX INTO
   6357  f030		       c9 0f		      CMP	#$0F	;		     UPPER LIMIT OF DIRTABLE
   6358  f032		       90 02		      BCC	ZNXT51
   6359  f034		       a0 0f		      LDY	#$0F
   6360  f036		       b9 bd e4    ZNXT51     LDA	DIRTABLE,Y	;	       GET LOW BYTE OF DIRTCODE ADDR.
   6361  f039		       85 cc		      STA	TEMP1	;		    PUT IN ZERO PAGE FOR INDIRECT
   6362  f03b		       a9 f0		      LDA	#>DIRT0
   6363  f03d							;*	    INY
   6364  f03d							;*	    LDA     DIRTABLE,Y; 	    GET HIGH BYTE OF DIRTCODE ADDR.
   6365  f03d		       85 cd		      STA	TEMP2	;		    TEMP2 = TEMP1 + 1 (ZERO PAGE)
   6366  f03f		       6c cc 00 	      JMP	(TEMP1)	;		  JUMP TO DIRTCODE INDIRECTLY
   6367  f042
   6368  f042							;-------- FLAME DETERMINING CODE
   6369  f042
   6370  f042		       20 2b f0    MOVEMODE   JSR	MOVECONT
   6371  f045		       b5 b2		      LDA	MONSTAT,X	;		; CREATURE COULD HAVE DIED
   6372  f047		       30 32		      BMI	FLAMOUT	;		  ;    BY ESCAPING
   6373  f049		       e0 04		      CPX	#$04	;		     ;FYGAR?
   6374  f04b		       90 2e		      BCC	FLAMOUT
   6375  f04d		       bd 30 21 	      LDA	GHOST,X	;		  ; LDA DOES NOT AFFECT CARRY
   6376  f050		       d0 29		      BNE	FLAMOUT
   6377  f052		       b5 ba		      LDA	DIR,X	;		    ; LDA DOES NOT AFFECT CARRY
   6378  f054		       29 0a		      AND	#$0A	;		     FLAME ONLY ON HORIZONTAL
   6379  f056		       f0 23		      BEQ	FLAMOUT	;		  ; AND DOES NOT AFFECT CARRY
   6380  f058
   6381  f058							;*	    LDA     SCNDTIM
   6382  f058							;*	    BEQ     FLAMOUT;		    ;DON"T FLAME RIGHT AWAY
   6383  f058							;*	    LDA     RACKTIME
   6384  f058							;*	    AND     #$1F
   6385  f058							;*	    CMP     #06
   6386  f058							;*	    BCS     FLAMOUT
   6387  f058
   6388  f058		       a5 f0		      LDA	FLAMTIME
   6389  f05a							;*	    CLC;			    ; CARRY IS SET HERE
   6390  f05a		       69 0f		      ADC	#$0F	;		     FREQUENCY OF FLAMING
   6391  f05c		       85 f0		      STA	FLAMTIME
   6392  f05e		       90 1b		      BCC	FLAMOUT
   6393  f060		       a4 ef		      LDY	FLAMIE
   6394  f062		       d0 17		      BNE	FLAMOUT
   6395  f064							;*G	    LDA     #>FLAMDET
   6396  f064							;*G	    PHA
   6397  f064							;*G	    LDA     #<FLAMDET
   6398  f064							;*G	    PHA
   6399  f064							;*G	    JMP     MOVECONT
   6400  f064							;*;*;*       JSR     MOVECONT
   6401  f064
   6402  f064		       a9 de	   FLAMDET    LDA	#ZBLANK
   6403  f066		       85 74		      STA	FLAMEIX
   6404  f068		       c8		      INY
   6405  f069		       94 b2		      STY	MONSTAT,X	;		;FREEZE FYGAR
   6406  f06b		       20 d8 f4 	      JSR	SETFLAM
   6407  f06e							;*	    LDA     #$00
   6408  f06e							;*	    STA     FLAMSIZE;		    HERE A=0
   6409  f06e							;*	    LDA     #$E8;		    THERE IS 16 CHAR SEQUENCE OF FYGAR
   6410  f06e							;*	    STA     FLAMNUM;		    -PRIOR TO FLAMING.
   6411  f06e							;*	    LDA     #$07
   6412  f06e							;*	    STA     FLAMWAIT
   6413  f06e		       86 ef		      STX	FLAMIE
   6414  f070		       b5 41		      LDA	YPOS,X
   6415  f072		       85 4e		      STA	FLAMEY
   6416  f074		       b5 54		      LDA	XPOS,X
   6417  f076		       18		      CLC
   6418  f077		       69 08		      ADC	#$08
   6419  f079		       85 61		      STA	FLAMEX
   6420  f07b							;
   6421  f07b							;     NOTE: CODE FROM HERE THROUGH SKY15 LABEL MUST FALL ON SAME PAGE
   6422  f07b							;
   6423  f07b				   DIRT5
   6424  f07b				   DIRT10
   6425  f07b		       60	   FLAMOUT    RTS
   6426  f07c
   6427  f07c
   6428  f07c							;DIRTCODE ;				    A = ALL POSSIBLE DIRECTIONS
   6429  f07c		       20 fb f0    DIRT0      JSR	NOREV	;		    -BASED UPON PRESENT DIRECTION
   6430  f07f		       4c 80 f2    JJMODE     JMP	MODE	;		     -AND CURRENT DIRT CHARACTER
   6431  f082		       20 fb f0    DIRT1      JSR	NOREV	;		    AT THIS POINT IN THE CODE,
   6432  f085		       29 0b		      AND	#$0B	;		     -THE MONSTER IS CENTERED ON
   6433  f087		       10 f6		      BPL	JJMODE	;		   -THE DIRT GRID (I.E. IMMEDIATELY
   6434  f089		       20 fb f0    DIRT2      JSR	NOREV	;		    -ON TOP OF A DIRT CHARACTER)
   6435  f08c		       29 07		      AND	#$07	;		     JUMP TO MODE DETERMINES THE
   6436  f08e		       10 ef		      BPL	JJMODE	;		   -MOVEMENT MODE (DESTINATION)
   6437  f090		       20 fb f0    DIRT3      JSR	NOREV	;		    -OF THE MONSTER
   6438  f093		       29 03		      AND	#$03
   6439  f095		       10 5c		      BPL	JGHOSTER
   6440  f097		       20 fb f0    DIRT4      JSR	NOREV
   6441  f09a		       29 0e		      AND	#$0E
   6442  f09c		       10 e1		      BPL	JJMODE
   6443  f09e							;*DIRT5     RTS;			     ;SEE FLAMOUT
   6444  f09e		       20 fb f0    DIRT6      JSR	NOREV
   6445  f0a1		       29 06		      AND	#$06
   6446  f0a3		       10 4e		      BPL	JGHOSTER
   6447  f0a5		       a9 02	   DIRT7      LDA	#$02
   6448  f0a7		       10 4a		      BPL	JGHOSTER
   6449  f0a9		       20 fb f0    DIRT8      JSR	NOREV
   6450  f0ac		       29 0d		      AND	#$0D
   6451  f0ae		       10 cf		      BPL	JJMODE
   6452  f0b0		       20 fb f0    DIRT9      JSR	NOREV
   6453  f0b3		       29 09		      AND	#$09
   6454  f0b5		       10 3c		      BPL	JGHOSTER
   6455  f0b7							;*DIRT10    RTS;			     ;SEE FLAMOUT
   6456  f0b7		       a9 01	   DIRT11     LDA	#$01
   6457  f0b9		       10 38		      BPL	JGHOSTER
   6458  f0bb		       20 fb f0    DIRT12     JSR	NOREV
   6459  f0be		       29 0c		      AND	#$0C
   6460  f0c0		       10 31		      BPL	JGHOSTER
   6461  f0c2		       a9 08	   DIRT13     LDA	#$08
   6462  f0c4		       10 2d		      BPL	JGHOSTER
   6463  f0c6		       a9 04	   DIRT14     LDA	#$04
   6464  f0c8		       10 29		      BPL	JGHOSTER
   6465  f0ca				   SKY15
   6466  f0ca		       20 1e d7 	      JSR	SKYSUB
   6467  f0cd							;*	    LDA     TEMP3
   6468  f0cd							;*	    CLC;			    GET DIRT UNDER POSITION
   6469  f0cd							;*	    ADC     #$10
   6470  f0cd							;*	    TAY
   6471  f0cd							;*	    LDA     DIRTMAP,Y
   6472  f0cd
   6473  f0cd		       29 e2		      AND	#$E2	;		     NOT FULL AND NOT TOP EDGE!!!
   6474  f0cf		       f0 02		      BEQ	ZNXT32
   6475  f0d1		       a9 01		      LDA	#$01
   6476  f0d3		       49 0b	   ZNXT32     EOR	#$0B
   6477  f0d5		       85 cc		      STA	TEMP1
   6478  f0d7		       20 fb f0 	      JSR	NOREV	;		    MAKE ALL POSSIBLE DIR.
   6479  f0da		       25 cc		      AND	TEMP1
   6480  f0dc		       85 cc		      STA	TEMP1
   6481  f0de		       a5 ce		      LDA	TEMP3	;		    MODE FOR INDEX $1E (CHAR $F)
   6482  f0e0		       c9 01		      CMP	#$01
   6483  f0e2		       d0 07		      BNE	ZNXT28
   6484  f0e4		       a5 cc		      LDA	TEMP1
   6485  f0e6		       29 fd		      AND	#$FD	;		     BOUNCE OFF LEFT SCREEN
   6486  f0e8		       4c 80 f2 	      JMP	MODE
   6487  f0eb		       c9 0e	   ZNXT28     CMP	#$0E
   6488  f0ed		       d0 07		      BNE	ZNXT29
   6489  f0ef		       a5 cc		      LDA	TEMP1
   6490  f0f1		       29 f7		      AND	#$F7	;		     BOUNCE OFF RIGHT SCREEN
   6491  f0f3		       4c e7 f1    JGHOSTER   JMP	GHOSTER
   6492  f0f6		       a5 cc	   ZNXT29     LDA	TEMP1
   6493  f0f8		       4c 80 f2 	      JMP	MODE
   6494  f0fb
   6495  f0fb		       b5 ba	   NOREV      LDA	DIR,X	;		    (NO REVERSE)
   6496  f0fd		       29 0a		      AND	#$0A	;		     TAKES DIRECTION AND GIVES A
   6497  f0ff		       f0 03		      BEQ	ZNXT11	;		   -THE VALUE OF ALL POSSIBLE
   6498  f101		       09 05		      ORA	#$05	;		     -DIRECTIONS WITHOUT REVERSE
   6499  f103		       60		      RTS
   6500  f104		       b5 ba	   ZNXT11     LDA	DIR,X
   6501  f106		       09 0a		      ORA	#$0A
   6502  f108		       60		      RTS
   6503  f109
   6504  f109							;
   6505  f109							;     NOTE:  DIGVERT THROUGH DIGDIAG MUST OCCUR ON THE SAME PAGE
   6506  f109							;
   6507  f109							;-------- MOVEMENT MODE CODE
   6508  f109
   6509  f109							;*DIGVERT   JSR     SUB1;		     ;WITH APOLOGIES TO GENE
   6510  f109							;*	    LDY     #0
   6511  f109							;*	    BPL     DIGPREF
   6512  f109							;*DIGHORIZ  JSR     SUB1
   6513  f109							;*	    LDY     #5
   6514  f109							;*DIGPREF   STA     MTEMP
   6515  f109							;*DIGPREFL  LDA     DIGPREFA,Y
   6516  f109							;*	    BEQ     DIGPREF2
   6517  f109							;*	    AND     MTEMP
   6518  f109							;*	    PHA
   6519  f109							;*	    BNE     DIGPREF2
   6520  f109							;*	    INY
   6521  f109							;*	    BPL     DIGPREFL
   6522  f109							;*DIGPREF2  PLA
   6523  f109							;*	    JMP     ZNXT23
   6524  f109
   6525  f109							;*DIGPREFA  DC.B      1,4,2,8,0;	       ;VERT
   6526  f109							;*	    DC.B      8,2,4,1,0;	      ;HORIZ
   6527  f109
   6528  f109		       20 a2 f2    DIGVERT    JSR	SUB1	;		     (TO DIG-DUG VERTICAL PREFERENCE)
   6529  f10c		       a8		      TAY
   6530  f10d		       29 01		      AND	#$01	;		     THIS IS VERTICAL PREFERENCE
   6531  f10f		       d0 0d		      BNE	ZNXT17
   6532  f111		       98		      TYA
   6533  f112		       29 04		      AND	#$04
   6534  f114		       d0 08		      BNE	ZNXT17
   6535  f116		       98		      TYA
   6536  f117		       29 02		      AND	#$02
   6537  f119		       d0 03		      BNE	ZNXT17
   6538  f11b		       98		      TYA
   6539  f11c		       29 08		      AND	#$08
   6540  f11e		       10 50	   ZNXT17     BPL	ZNXT23	;		   SAVE NEW DIRECTION
   6541  f120
   6542  f120		       20 a2 f2    DIGHORIZ   JSR	SUB1	;		     (TO DIG-DUG HORIZONTAL PREFERENCE)
   6543  f123		       a8		      TAY
   6544  f124		       29 08		      AND	#$08	;		     THIS IS HORIZONTAL PREFERENCE
   6545  f126		       d0 0d		      BNE	ZNXT20
   6546  f128		       98		      TYA
   6547  f129		       29 02		      AND	#$02
   6548  f12b		       d0 08		      BNE	ZNXT20
   6549  f12d		       98		      TYA
   6550  f12e		       29 04		      AND	#$04
   6551  f130		       d0 03		      BNE	ZNXT20
   6552  f132		       98		      TYA
   6553  f133		       29 01		      AND	#$01
   6554  f135		       10 39	   ZNXT20     BPL	ZNXT23	;		   SAVE NEW DIRECTION
   6555  f137
   6556  f137		       20 a2 f2    DIGDIAG    JSR	SUB1	;		     (TO DIG-DUG DIAGONAL PREFERENCE)
   6557  f13a		       85 ce	   ESCONT     STA	TEMP3
   6558  f13c		       a5 cc		      LDA	TEMP1	;		    THIS IS DIAGONAL PREFERENCE
   6559  f13e		       10 04		      BPL	ZNXT24	;		   FROM HERE ...
   6560  f140		       49 ff		      EOR	#$FF
   6561  f142		       85 cc		      STA	TEMP1
   6562  f144		       a5 cd	   ZNXT24     LDA	TEMP2
   6563  f146		       10 02		      BPL	ZNXT25
   6564  f148		       49 ff		      EOR	#$FF
   6565  f14a		       c5 cc	   ZNXT25     CMP	TEMP1
   6566  f14c		       b0 0c		      BCS	ZNXT26
   6567  f14e		       a5 ce		      LDA	TEMP3
   6568  f150		       29 08		      AND	#$08	;		     HORIZONTAL IS GREATER
   6569  f152		       d0 1c		      BNE	ZNXT23
   6570  f154		       a5 ce		      LDA	TEMP3
   6571  f156		       29 02		      AND	#$02
   6572  f158		       d0 16		      BNE	ZNXT23
   6573  f15a		       a5 ce	   ZNXT26     LDA	TEMP3
   6574  f15c		       29 04		      AND	#$04	;		     VERTICAL IS GREATER
   6575  f15e		       d0 10		      BNE	ZNXT23
   6576  f160		       a5 ce		      LDA	TEMP3
   6577  f162		       29 01		      AND	#$01
   6578  f164		       d0 0a		      BNE	ZNXT23
   6579  f166		       a5 ce		      LDA	TEMP3
   6580  f168		       29 08		      AND	#$08	;		     TRY HORIZ. AGAIN
   6581  f16a		       d0 04		      BNE	ZNXT23
   6582  f16c		       a5 ce		      LDA	TEMP3
   6583  f16e		       29 02		      AND	#$02	;		     TO HERE.
   6584  f170		       95 ba	   ZNXT23     STA	DIR,X	;		    SAVE NEW DIRECTION
   6585  f172		       4c 5c f2 	      JMP	NEWSEQ	;		   ;NEWSEQ IS A SUBR
   6586  f175
   6587  f175		       a9 00	   OFFSCR     LDA	#$00
   6588  f177		       9d 30 21 	      STA	GHOST,X
   6589  f17a		       a9 02		      LDA	#$02
   6590  f17c		       95 ba		      STA	DIR,X
   6591  f17e		       20 5c f2 	      JSR	NEWSEQ
   6592  f181		       20 85 f3 	      JSR	SPEEDER
   6593  f184		       b5 54		      LDA	XPOS,X	;		   ;LAST CREATURE VANISHES
   6594  f186		       30 02		      BMI	OFFSCR2
   6595  f188		       d0 07		      BNE	ZNXT112
   6596  f18a				   OFFSCR2		;				 ;CALLED AS SUBR BY BLOWUP,CHKDEATH
   6597  f18a		       a9 80		      LDA	#$80	;		     ;	AND TITLEPAG
   6598  f18c		       95 b2		      STA	MONSTAT,X
   6599  f18e		       0a		      ASL		;			;STOP DISPLAYING CREATURE
   6600  f18f		       95 41		      STA	POOKAY,X	;		 ;SUBR MUST RETURN A 0
   6601  f191		       60	   ZNXT112    RTS
   6602  f192
   6603  f192		       85 d0	   ESCAPE     STA	TEMP5	;		    (TO ESCAPE UPPER LEFT SCREEN)
   6604  f194		       b5 54		      LDA	XPOS,X	;		   SET UP TEMPS FOR GETPOINT
   6605  f196		       85 cc		      STA	TEMP1	;		    TEMP1 = X0
   6606  f198		       a9 10		      LDA	#$10	;		     TEMP2 = X DESTINATION
   6607  f19a		       85 cd		      STA	TEMP2	;		    TEMP3 = Y0
   6608  f19c		       b5 41		      LDA	YPOS,X	;		   TEMP4 = Y DESTINATION
   6609  f19e		       85 ce		      STA	TEMP3
   6610  f1a0		       a9 bf		      LDA	#$BF	;		     UPPER LEFT SCREEN POS
   6611  f1a2		       85 cf		      STA	TEMP4
   6612  f1a4		       20 fe f3 	      JSR	GETPOINT
   6613  f1a7		       d0 0c		      BNE	ZNXT111
   6614  f1a9		       a9 75	   SCRAM      LDA	#<OFFSCR
   6615  f1ab		       9d f0 22 	      STA	MODEL,X
   6616  f1ae		       a9 f1		      LDA	#>OFFSCR
   6617  f1b0		       9d 30 20 	      STA	MODEH,X
   6618  f1b3		       d0 c0		      BNE	OFFSCR
   6619  f1b5
   6620  f1b5		       bc 30 21    ZNXT111    LDY	GHOST,X	;		  CHECK IF GHOST JUST USE POINTER
   6621  f1b8		       f0 0a		      BEQ	ZNXT41	;		   -FOR NEW DIRECTION
   6622  f1ba		       95 ba		      STA	DIR,X
   6623  f1bc		       29 0a		      AND	#$0A	;		     ;CORRECT FACING
   6624  f1be		       f0 03		      BEQ	ENDTHIS2
   6625  f1c0		       9d 38 21 	      STA	FACING,X
   6626  f1c3		       60	   ENDTHIS2   RTS
   6627  f1c4		       25 d0	   ZNXT41     AND	TEMP5	;		    FOR NORMAL (NOT GHOST) USE
   6628  f1c6		       d0 1c		      BNE	ZNXT42	;		   -POINTER AND ALL POSSIBLE DIR.
   6629  f1c8		       a9 04		      LDA	#$04	;		     ;GO NORTH
   6630  f1ca		       b4 41		      LDY	POOKAY,X
   6631  f1cc		       c0 bf		      CPY	#$BF
   6632  f1ce		       90 09		      BCC	ZNXT41A
   6633  f1d0		       4a		      LSR		;			;GO WEST YOUNG MONSTER
   6634  f1d1		       b4 54		      LDY	POOKAX,X
   6635  f1d3		       c0 10		      CPY	#$10
   6636  f1d5		       b0 05		      BCS	ZNXT41B
   6637  f1d7		       90 d0		      BCC	SCRAM	;		    ;CHANGE MODE TO OFF SCREEN
   6638  f1d9		       fe 30 21    ZNXT41A    INC	GHOST,X	;		  ;CALLED AS SUBR BY GOGHOST
   6639  f1dc		       95 ba	   ZNXT41B    STA	DIR,X
   6640  f1de		       20 5c f2 	      JSR	NEWSEQ	;		   ;EXPECTS DIR IN A
   6641  f1e1		       4c 85 f3 	      JMP	SPEEDER	;		  ;SPEEDER IS A SUBR
   6642  f1e4		       4c 3a f1    ZNXT42     JMP	ESCONT
   6643  f1e7
   6644  f1e7							;-------- UTILITIES
   6645  f1e7
   6646  f1e7		       85 cc	   GHOSTER    STA	TEMP1	;		    SEE IF IT"S TIME TO GHOST THEN
   6647  f1e9		       20 fb f0 	      JSR	NOREV
   6648  f1ec		       49 0f		      EOR	#$0F
   6649  f1ee		       85 d8		      STA	GHOSTTMP
   6650  f1f0		       a9 92		      LDA	#<ESCAPE	;	       ;THERE IS PROBABLY A NEATER WAY TO
   6651  f1f2		       dd f0 22 	      CMP	MODEL,X	;		  ;    DO THIS...
   6652  f1f5		       f0 2d		      BEQ	GHOSTER3
   6653  f1f7
   6654  f1f7							;*	    LDA     SCNDTIM
   6655  f1f7							;*	    BEQ     GHOSTER7
   6656  f1f7							;*	    TXA
   6657  f1f7							;*	    AND     #$01
   6658  f1f7							;*	    EOR     RACKTIME
   6659  f1f7							;*	    BEQ     GHOSTER7
   6660  f1f7
   6661  f1f7		       a5 88		      LDA	BONZO	;		    ;BONZO LEVEL IS ALWAYS RACK 1 LEVEL
   6662  f1f9		       d0 05		      BNE	GHOSTER0
   6663  f1fb		       a4 87		      LDY	PLAYNUM
   6664  f1fd		       b9 9b 00 	      LDA	RACKNUM,Y
   6665  f200				   GHOSTER0
   6666  f200		       0a		      ASL
   6667  f201							;*	    ASL
   6668  f201							;*	    AND     #$03
   6669  f201		       18		      CLC
   6670  f202		       69 0a		      ADC	#$0A
   6671  f204		       b0 31		      BCS	ZNXT9
   6672  f206		       6d 04 23 	      ADC	FLEE
   6673  f209		       b0 2c		      BCS	ZNXT9
   6674  f20b		       65 e8		      ADC	GHOSTIME
   6675  f20d		       b0 28		      BCS	ZNXT9
   6676  f20f		       85 e8		      STA	GHOSTIME
   6677  f211
   6678  f211		       a5 f2		      LDA	DIGREST	;		  ;MORE LIKELY TO GHOST IF DD NOT MOVING
   6679  f213		       4a		      LSR
   6680  f214		       4a		      LSR
   6681  f215		       4a		      LSR
   6682  f216		       4a		      LSR
   6683  f217		       4a		      LSR
   6684  f218		       18		      CLC
   6685  f219		       65 e8		      ADC	GHOSTIME
   6686  f21b		       b0 1a		      BCS	ZNXT9
   6687  f21d		       85 e8		      STA	GHOSTIME
   6688  f21f							;*	    LDA     RACKTIME
   6689  f21f							;*	    BMI     GHOSTER7
   6690  f21f							;*	    CMP     GHOSTIME
   6691  f21f							;*	    BCS     GHOSTER7
   6692  f21f							;*	    AND     #$0A
   6693  f21f							;*	    BNE     ZNXT9
   6694  f21f							;*	    BCS     ZNXT9
   6695  f21f		       ac 03 23    GHOSTER7   LDY	GHOSTOUT
   6696  f222		       f0 13		      BEQ	ZNXT9
   6697  f224
   6698  f224							;*	    STA     GHOSTIME
   6699  f224		       a5 cc	   GHOSTER3   LDA	TEMP1
   6700  f226		       95 ba	   GHOSTER2   STA	DIR,X
   6701  f228		       20 5c f2 	      JSR	NEWSEQ
   6702  f22b		       a9 92		      LDA	#<ESCAPE	;	       KLUDGE TO FORCE GHOSTING WHEN
   6703  f22d		       dd f0 22 	      CMP	MODEL,X
   6704  f230		       d0 91		      BNE	ENDTHIS2
   6705  f232		       b5 ba		      LDA	DIR,X
   6706  f234		       4c 80 f2 	      JMP	MODE
   6707  f237
   6708  f237				   ZNXT9
   6709  f237		       85 e8		      STA	GHOSTIME
   6710  f239		       a9 00		      LDA	#0
   6711  f23b		       85 f2		      STA	DIGREST
   6712  f23d							;	   ;				   TO HERE.
   6713  f23d		       a5 cc	   ZNXT34     LDA	TEMP1	;		    ;WHERE I CAN GO
   6714  f23f		       20 8d f2 	      JSR	SUB11	;		    ;CALC WHERE I WANT TO GO
   6715  f242							;	   ;				   ;SUB11 STORES TEMP1 IN TEMP5
   6716  f242		       48		      PHA
   6717  f243		       a4 d0		      LDY	TEMP5	;		    ;IS ONLY POSSIBLE DIR REVERSE?
   6718  f245		       c4 d8		      CPY	GHOSTTMP
   6719  f247		       f0 04		      BEQ	GOGHOST
   6720  f249		       25 d0		      AND	TEMP5	;		    ;TEMP5 IS NOW WHERE I CAN GO
   6721  f24b		       d0 09		      BNE	NOGHOST
   6722  f24d		       a9 04	   GOGHOST    LDA	#4
   6723  f24f		       8d 03 23 	      STA	GHOSTOUT
   6724  f252		       68		      PLA
   6725  f253		       4c d9 f1 	      JMP	ZNXT41A
   6726  f256							;*	    INC     GHOST,X
   6727  f256							;*	    STA     DIR,X
   6728  f256							;*	    JSR     NEWSEQ
   6729  f256							;*	    JMP     SPEEDER;		    ;SPEEDER IS A SUBR
   6730  f256		       68	   NOGHOST    PLA
   6731  f257		       a5 d0		      LDA	TEMP5
   6732  f259		       4c 26 f2 	      JMP	GHOSTER2
   6733  f25c
   6734  f25c							;*ZNXT34    INC     GHOSTOK
   6735  f25c							;*	    JMP     GHOSTER2
   6736  f25c							;*ZNXT34    INC     GHOST,X
   6737  f25c							;*	    LDA     TEMP1
   6738  f25c							;*	    JSR     NEWSEQ
   6739  f25c							;*	    JSR     SPEEDER
   6740  f25c							;*	    LDA     TEMP1
   6741  f25c							;*	    JMP     MODE
   6742  f25c
   6743  f25c		       29 0a	   NEWSEQ     AND	#$0A	;		     INPUT: A=DIR
   6744  f25e		       f0 03		      BEQ	SEQER	;		    MODIFIES: FACING AND CHAR SEQUENCE
   6745  f260		       9d 38 21 	      STA	FACING,X
   6746  f263		       8a	   SEQER      TXA		;			      TYPE OF MONSTER
   6747  f264		       29 04		      AND	#$04
   6748  f266		       1d 38 21 	      ORA	FACING,X	;		 DIRECTION
   6749  f269		       4a		      LSR
   6750  f26a		       5d 30 21 	      EOR	GHOST,X	;		  GHOST OR NOT
   6751  f26d		       a8		      TAY
   6752  f26e		       b9 f7 e7 	      LDA	SEQTAB,Y
   6753  f271		       9d 18 21 	      STA	CHARSEQL,X
   6754  f274
   6755  f274		       a8		      TAY		;			      ; SET UP FIRST ANIMATION OF NEW SERIES
   6756  f275		       b9 00 ee 	      LDA	$EE00,Y	;		  ; ASSUME RPOOKA IS ON THIS PAGE
   6757  f278		       95 67		      STA	POOKAIX,X
   6758  f27a
   6759  f27a		       a9 00		      LDA	#$00
   6760  f27c		       9d 28 21 	      STA	CHARSEQN,X
   6761  f27f		       60		      RTS
   6762  f280
   6763  f280		       bc f0 22    MODE       LDY	MODEL,X	;		  MODE JUMPS TO CODE FOR THE
   6764  f283		       84 cc		      STY	TEMP1	;		    -MOVEMENT MODE OF THE MONSTER
   6765  f285		       bc 30 20 	      LDY	MODEH,X	;		  -(IT"S DESTINATION)
   6766  f288		       84 cd		      STY	TEMP2
   6767  f28a		       6c cc 00 	      JMP	(TEMP1)
   6768  f28d
   6769  f28d							;-------- SUBROUTINES
   6770  f28d
   6771  f28d				   SUB11
   6772  f28d		       85 d0		      STA	TEMP5	;		    SUBROUTINE FOR CRUNCHED CODE
   6773  f28f		       b5 54		      LDA	XPOS,X	;		   SET UP TEMPS FOR GETPOINT
   6774  f291		       85 cc		      STA	TEMP1	;		    TEMP1 = X0
   6775  f293		       a5 53		      LDA	DDXPOS	;		   TEMP2 = X DESTINATION
   6776  f295		       85 cd		      STA	TEMP2	;		    TEMP3 = Y0
   6777  f297		       b5 41		      LDA	YPOS,X	;		   TEMP4 = Y DESTINATION
   6778  f299		       85 ce		      STA	TEMP3
   6779  f29b		       a5 40		      LDA	DDYPOS
   6780  f29d		       85 cf		      STA	TEMP4
   6781  f29f		       4c fe f3 	      JMP	GETPOINT	;		 ;CALC WHERE YOU WANT TO GO
   6782  f2a2							;*	    RTS;			    ;GETPOINT IS A SUBR
   6783  f2a2
   6784  f2a2		       20 8d f2    SUB1       JSR	SUB11
   6785  f2a5		       bc 30 21 	      LDY	GHOST,X	;		  CHECK IF GHOST JUST USE POINTER
   6786  f2a8		       f0 0c		      BEQ	ZNXT14	;		   -FOR NEW DIRECTION
   6787  f2aa		       95 ba		      STA	DIR,X
   6788  f2ac		       29 0a		      AND	#$0A
   6789  f2ae		       f0 03		      BEQ	SUB1A
   6790  f2b0		       9d 38 21 	      STA	FACING,X
   6791  f2b3		       68	   SUB1A      PLA		;			      REMOVE THE LAST CALL TO SUB1
   6792  f2b4		       68		      PLA
   6793  f2b5		       60		      RTS
   6794  f2b6		       25 d0	   ZNXT14     AND	TEMP5	;		    FOR NORMAL (NOT GHOST) USE
   6795  f2b8		       d0 02		      BNE	ZNXT16	;		   -POINTER AND ALL POSSIBLE DIR.
   6796  f2ba		       a5 d0		      LDA	TEMP5
   6797  f2bc		       60	   ZNXT16     RTS
   6798  f2bd
   6799  f2bd		       a2 07	   AVOID      LDX	#$07
   6800  f2bf		       b5 b2	   PREV47     LDA	MONSTAT,X	;		;ENABLED?
   6801  f2c1		       30 1f		      BMI	ZNXT108
   6802  f2c3		       bd 30 21 	      LDA	GHOST,X
   6803  f2c6		       d0 1a		      BNE	ZNXT108	;		  ;NOT A GHOST?
   6804  f2c8		       b5 ba		      LDA	DIR,X
   6805  f2ca		       c9 04		      CMP	#$04	;		     ;HEADED NORTH?
   6806  f2cc		       d0 14		      BNE	ZNXT108
   6807  f2ce		       bd e8 22 	      LDA	YMODC,X	;		  ;NOT IN BOTTOM 3 PIXELS OF TUNNEL?
   6808  f2d1		       c9 03		      CMP	#$03
   6809  f2d3		       90 0d		      BCC	ZNXT108
   6810  f2d5		       a5 e9		      LDA	ESCAPER
   6811  f2d7		       d0 09		      BNE	ZNXT108
   6812  f2d9		       a9 09		      LDA	#<DIGVERT	;	      ;RESTORED WHEN ROCK IS DONE FALLING
   6813  f2db		       9d f0 22 	      STA	MODEL,X
   6814  f2de							;*	    BEQ     ZNXT108;		    DO NOT GO DOWN IF AT BOTTOM OF TUNNEL
   6815  f2de							;*	    JSR     GETDIRT
   6816  f2de							;*	    STY     TEMP3
   6817  f2de							;*	    JMP     ZNXT108;		    TAKE THIS OUT . . .
   6818  f2de							;*	    JSR     CHKOTHER
   6819  f2de							;*	    AND     #$08
   6820  f2de							;*	    BNE     ZNXT108
   6821  f2de		       a9 01	   ZNXT140    LDA	#$01	;		     ;GO SOUTH
   6822  f2e0		       95 ba		      STA	DIR,X
   6823  f2e2		       ca	   ZNXT108    DEX
   6824  f2e3		       10 da		      BPL	PREV47
   6825  f2e5		       60		      RTS
   6826  f2e6
   6827  f2e6		       a5 f1	   FRUITER    LDA	FRUIT
   6828  f2e8		       f0 35		      BEQ	FRUITOUT
   6829  f2ea		       a8		      TAY
   6830  f2eb		       ad 00 23 	      LDA	RACKTIME
   6831  f2ee		       4a		      LSR
   6832  f2ef		       90 2e		      BCC	FRUITOUT
   6833  f2f1		       98		      TYA
   6834  f2f2		       e6 f1		      INC	FRUIT
   6835  f2f4		       c9 c0		      CMP	#$C0	;		     TIME WAIT TIL REMOVAL OF FRUIT
   6836  f2f6		       f0 21		      BEQ	RFRUIT
   6837  f2f8		       c9 0e		      CMP	#$0E	;		     TIME WAIT TIL DISPLAY OF FRUIT
   6838  f2fa		       d0 23		      BNE	FRUITOUT	;		 -APPROX 2 SEC.
   6839  f2fc		       a0 00	   DFRUIT     LDY	#0
   6840  f2fe		       c4 88		      CPY	BONZO	;		    ;BONZO MODE?
   6841  f300		       d0 0a		      BNE	ZNXT98
   6842  f302		       a6 87	   DFRUIT2    LDX	PLAYNUM
   6843  f304		       b4 9b		      LDY	RACKNUM,X
   6844  f306		       c0 12		      CPY	#$12	;		     RACK NO. WHERE FRUIT REPEATS ...
   6845  f308		       90 02		      BCC	ZNXT98
   6846  f30a		       a0 12		      LDY	#$12	;		     VALUE OF HIGHEST FRUIT
   6847  f30c		       b9 aa e4    ZNXT98     LDA	FRUITAB,Y
   6848  f30f		       85 78		      STA	FRUITIX
   6849  f311		       a9 38		      LDA	#56
   6850  f313		       85 65		      STA	FRUITX
   6851  f315		       a9 6b		      LDA	#107
   6852  f317		       10 04		      BPL	RFRUIT2
   6853  f319		       a9 00	   RFRUIT     LDA	#$00
   6854  f31b		       85 f1		      STA	FRUIT
   6855  f31d		       85 52	   RFRUIT2    STA	FRUITY
   6856  f31f		       60	   FRUITOUT   RTS
   6857  f320
   6858  f320							;*WHNSPEED  DC.B      2,3,4,5,6;	      ;MOVED TO ARRAYS
   6859  f320		       a2 07	   GETMODE    LDX	#$07	;		     TO BE CALLED BY CREATURE DEATH
   6860  f322		       a0 00		      LDY	#$00	;		     -AND INITIALIZATION ROUTINE
   6861  f324		       b5 b2	   DIGMODE    LDA	MONSTAT,X	;		; ALSO CALLED BY FALL IF ESCAPER
   6862  f326		       30 0c		      BMI	ZNXT35	;		   ;  IS NOT SET IN ORDER TO RESTORE
   6863  f328		       b9 cd e4 	      LDA	MODETAB,Y	;		;  MODES DESTROYED BY AVOID
   6864  f32b		       9d f0 22 	      STA	MODEL,X
   6865  f32e		       a9 f1		      LDA	#>DIGVERT
   6866  f330							;*	    INY
   6867  f330							;*	    LDA     MODETAB,Y
   6868  f330		       9d 30 20 	      STA	MODEH,X
   6869  f333		       c8		      INY
   6870  f334		       ca	   ZNXT35     DEX
   6871  f335		       10 ed		      BPL	DIGMODE
   6872  f337							;*	    DEY
   6873  f337		       88		      DEY
   6874  f338		       f0 27		      BEQ	ESCMODE
   6875  f33a		       ad 05 23 	      LDA	FAST
   6876  f33d		       d0 5f		      BNE	ENDTHIS3	;		 ;ALREADY FAST
   6877  f33f		       ad 01 23 	      LDA	SPEEDUP
   6878  f342		       c9 03		      CMP	#3
   6879  f344		       90 58		      BCC	ENDTHIS3
   6880  f346							;*	    INY;			    ;CREATURES LEFT
   6881  f346		       a5 88		      LDA	BONZO
   6882  f348		       d0 04		      BNE	TEDSPED
   6883  f34a		       a6 87		      LDX	PLAYNUM
   6884  f34c		       b5 9b		      LDA	RACKNUM,X
   6885  f34e							;*	    CMP     #24;		    ;WHEN RACK IS GE 24, SPEEDUP IS SET
   6886  f34e							;*	    BCS     ENDTHIS3;		    ; TO 2 IN INCREATS
   6887  f34e		       c9 04	   TEDSPED    CMP	#4
   6888  f350		       90 4c		      BCC	ENDTHIS3
   6889  f352		       4a		      LSR
   6890  f353		       4a		      LSR
   6891  f354		       aa		      TAX
   6892  f355							;*	    DEX;			    ;!
   6893  f355		       98		      TYA
   6894  f356		       dd e0 e1 	      CMP	WHNSPEED-1,X
   6895  f359		       b0 43		      BCS	ENDTHIS3
   6896  f35b		       a9 01		      LDA	#1
   6897  f35d		       8d 01 23 	      STA	SPEEDUP
   6898  f360		       60		      RTS
   6899  f361		       a2 08	   ESCMODE    LDX	#$08
   6900  f363		       ca	   PREV2      DEX
   6901  f364		       b5 b2		      LDA	MONSTAT,X
   6902  f366		       a8		      TAY
   6903  f367		       30 fa		      BMI	PREV2
   6904  f369		       29 40		      AND	#$40	;		     ;NO ESCAPE MUSIC IF LAST CR SQUASHING
   6905  f36b		       d0 0c		      BNE	NOESCMUS
   6906  f36d		       98		      TYA
   6907  f36e		       29 06		      AND	#$06	;		     ;NO ESCAPE MUSIC IF LAST CR GBNF
   6908  f370		       c9 02		      CMP	#$02
   6909  f372		       f0 05		      BEQ	NOESCMUS
   6910  f374		       a0 0d		      LDY	#SNG9	;		    ESCAPING NOISE
   6911  f376		       20 ef fd 	      JSR	NOISE
   6912  f379		       a9 92	   NOESCMUS   LDA	#<ESCAPE
   6913  f37b		       9d f0 22 	      STA	MODEL,X
   6914  f37e		       a9 f1		      LDA	#>ESCAPE
   6915  f380		       9d 30 20 	      STA	MODEH,X
   6916  f383		       e6 e9		      INC	ESCAPER
   6917  f385							;*	    LDA     #1
   6918  f385							;*	    STA     FAST
   6919  f385							;*	    JMP     SPEEDER;		    ;SPEEDER IS A SUBR
   6920  f385
   6921  f385		       8a	   SPEEDER    TXA		;			      MODIFIES MONSTER SPEED BASED UPON
   6922  f386		       29 04		      AND	#$04	;		     -FAST OR NOT, GHOST AND TYPE
   6923  f388		       1d 30 21 	      ORA	GHOST,X
   6924  f38b		       4a		      LSR
   6925  f38c		       0d 05 23 	      ORA	FAST
   6926  f38f		       2a		      ROL
   6927  f390		       0a		      ASL		;			FOR 16 BIT VERSION
   6928  f391		       a8		      TAY
   6929  f392		       b9 c9 e3 	      LDA	SPEEDTAB,Y
   6930  f395		       9d 00 21 	      STA	SPEEDH,X
   6931  f398							;*	    INY
   6932  f398		       b9 ca e3 	      LDA	SPEEDTAB+1,Y
   6933  f39b		       9d 38 20 	      STA	SPEEDL,X
   6934  f39e		       60	   ENDTHIS3   RTS
   6935  f39f
   6936  f39f		       85 cd	   CHKOTHER   STA	TEMP2	;		    CHECKS ALL POSSIBLE ADJACENT
   6937  f3a1		       46 cd		      LSR	TEMP2	;		    MAKES DIRT INDEX = DIRT CHAR
   6938  f3a3		       46 cd	   CHKUP      LSR	TEMP2
   6939  f3a5		       b0 11		      BCS	CHKRIGHT
   6940  f3a7		       85 cc		      STA	TEMP1
   6941  f3a9		       a5 ce		      LDA	TEMP3
   6942  f3ab		       20 14 d7 	      JSR	GHSTSUB2
   6943  f3ae							;*	    SEC
   6944  f3ae							;*	    SBC     #$10
   6945  f3ae							;*	    TAY
   6946  f3ae							;*	    LDA     DIRTMAP,Y;		    MODIFIES ALL POSSIBLE DIRECTIONS
   6947  f3ae							;*	    CMP     #CHARD12;		    -AFTER CHECKING ADJACENT DIRT
   6948  f3ae		       90 06		      BCC	OUTUP
   6949  f3b0		       a9 02		      LDA	#$02	;		     NO UP TURN
   6950  f3b2		       05 cc		      ORA	TEMP1
   6951  f3b4		       85 cc		      STA	TEMP1
   6952  f3b6		       a5 cc	   OUTUP      LDA	TEMP1
   6953  f3b8		       46 cd	   CHKRIGHT   LSR	TEMP2
   6954  f3ba		       b0 14		      BCS	CHKDOWN
   6955  f3bc		       85 cc		      STA	TEMP1
   6956  f3be		       a4 ce		      LDY	TEMP3
   6957  f3c0		       c8		      INY
   6958  f3c1		       b9 00 26 	      LDA	DIRTMAP,Y	;		MODIFIES ALL POSSIBLE DIRECTIONS
   6959  f3c4		       c9 24		      CMP	#CHARD12	;		 -AFTER CHECKING ADJACENT DIRT
   6960  f3c6		       90 06		      BCC	OUTRIGHT
   6961  f3c8		       a9 04		      LDA	#$04	;		     NO RIGHT TURN
   6962  f3ca		       05 cc		      ORA	TEMP1
   6963  f3cc		       85 cc		      STA	TEMP1
   6964  f3ce		       a5 cc	   OUTRIGHT   LDA	TEMP1
   6965  f3d0		       46 cd	   CHKDOWN    LSR	TEMP2	;		    -HALF DIRTS
   6966  f3d2		       b0 11		      BCS	CHKLEFT
   6967  f3d4		       85 cc		      STA	TEMP1
   6968  f3d6		       20 1e d7 	      JSR	SKYSUB
   6969  f3d9							;*	    LDA     TEMP3
   6970  f3d9							;*	    CLC
   6971  f3d9							;*	    ADC     #$10
   6972  f3d9							;*	    TAY
   6973  f3d9							;*	    LDA     DIRTMAP,Y;		    MODIFIES ALL POSSIBLE DIRECTIONS
   6974  f3d9
   6975  f3d9		       c9 24		      CMP	#CHARD12	;		 -AFTER CHECKING ADJACENT DIRT
   6976  f3db		       90 06		      BCC	OUTDOWN
   6977  f3dd		       a9 08		      LDA	#$08	;		     NO DOWN TURN
   6978  f3df		       05 cc		      ORA	TEMP1
   6979  f3e1		       85 cc		      STA	TEMP1
   6980  f3e3		       a5 cc	   OUTDOWN    LDA	TEMP1
   6981  f3e5		       46 cd	   CHKLEFT    LSR	TEMP2
   6982  f3e7		       b0 14		      BCS	CHKOUT
   6983  f3e9		       85 cc		      STA	TEMP1
   6984  f3eb		       a4 ce		      LDY	TEMP3
   6985  f3ed		       88		      DEY
   6986  f3ee		       b9 00 26 	      LDA	DIRTMAP,Y	;		MODIFIES ALL POSSIBLE DIRECTIONS
   6987  f3f1		       c9 24		      CMP	#CHARD12	;		 -AFTER CHECKING ADJACENT DIRT
   6988  f3f3		       90 06		      BCC	OUTLEFT
   6989  f3f5		       a9 10		      LDA	#$10	;		     NO LEFT TURN
   6990  f3f7		       05 cc		      ORA	TEMP1
   6991  f3f9		       85 cc		      STA	TEMP1
   6992  f3fb		       a5 cc	   OUTLEFT    LDA	TEMP1
   6993  f3fd		       60	   CHKOUT     RTS
   6994  f3fe
   6995  f3fe		       a0 00	   GETPOINT   LDY	#$00	;		     USES TEMP1 - TEMP4, A, Y
   6996  f400		       a5 cc		      LDA	TEMP1	;		    TEMP1 = X0
   6997  f402		       38		      SEC		;			      TEMP2 = X DESTINATION
   6998  f403		       e5 cd		      SBC	TEMP2	;		    TEMP3 = Y0
   6999  f405		       85 cc		      STA	TEMP1	;		    ; FOR DIAG INFO
   7000  f407		       f0 0c		      BEQ	VERTICAL	;		 TEMP4 = Y DESTINATION
   7001  f409		       b0 06		      BCS	LEFT	;		     A WILL HOLD THE POINTER
   7002  f40b		       98	   RIGHT      TYA		;			      NOTE: THE POINTER WILL BE
   7003  f40c		       09 08		      ORA	#$08	;		     -AT MOST TWO BITS ON
   7004  f40e		       a8		      TAY
   7005  f40f		       d0 04		      BNE	VERTICAL
   7006  f411		       98	   LEFT       TYA
   7007  f412		       09 02		      ORA	#$02
   7008  f414		       a8		      TAY
   7009  f415		       a5 ce	   VERTICAL   LDA	TEMP3
   7010  f417		       38		      SEC
   7011  f418		       e5 cf		      SBC	TEMP4
   7012  f41a		       85 cd		      STA	TEMP2	;		    ; FOR DIAG INFO
   7013  f41c		       f0 0b		      BEQ	DONEPNT
   7014  f41e		       b0 05		      BCS	DOWN
   7015  f420		       98	   UP	      TYA
   7016  f421		       09 04		      ORA	#$04
   7017  f423		       a8		      TAY
   7018  f424		       60		      RTS
   7019  f425		       98	   DOWN       TYA
   7020  f426		       09 01		      ORA	#$01
   7021  f428		       a8		      TAY
   7022  f429		       98	   DONEPNT    TYA
   7023  f42a		       60		      RTS
   7024  f42b
   7025  f42b		       b5 54	   GETDIRT    LDA	XPOS,X	;		   RETURNS DIRT, A = CHAR, Y = ADDR.
   7026  f42d		       4a	   GETX       LSR		;			(GET DIRT CHARACTER)
   7027  f42e		       4a		      LSR
   7028  f42f		       4a		      LSR
   7029  f430		       85 cc		      STA	TEMP1	;		    PUT X VALUE IN TEMP1 (ZERO PAGE)
   7030  f432		       b5 41	   GETY       LDA	YPOS,X	;		   GET Y POSITION
   7031  f434		       38		      SEC
   7032  f435							;*	    SBC     YMODC,X;		    MAKE Y POSITION CENTERED IF IT"S NOT
   7033  f435		       e9 0b		      SBC	#$0B	;		     -CENTER TO GRID BECAUSE OF 11 OFFSET
   7034  f437		       4a		      LSR		;			DIVIDE BY 4
   7035  f438		       4a		      LSR
   7036  f439		       a8		      TAY
   7037  f43a		       b9 90 24 	      LDA	DIV3TAB,Y
   7038  f43d		       49 0f		      EOR	#$0F	;		     DIRT ADDR. IS F - Y ADDR.
   7039  f43f		       0a	   GETCHAR    ASL		;			MOVE Y ADDR. TO LEFT NIBBLE
   7040  f440		       0a		      ASL		;			-OF A
   7041  f441		       0a		      ASL
   7042  f442		       0a		      ASL
   7043  f443		       05 cc		      ORA	TEMP1	;		    MERGE X ADDR. WITH Y ADDR.
   7044  f445		       a8		      TAY		;			      PUT DIRT ADDR. IN Y INDEX
   7045  f446		       b9 00 26 	      LDA	DIRTMAP,Y	;		GET DIRT CHARACTER FROM MAP
   7046  f449		       60		      RTS
   7047  f44a
   7048  f44a							;*GHSTSUB2  SEC;			     ;USED BY GHOSTONX AND CHKOTHER
   7049  f44a							;*	    SBC     #$10;		     ;MOVED TO INITDIRT
   7050  f44a							;*	    TAY
   7051  f44a							;*	    LDA     DIRTMAP,Y
   7052  f44a							;*	    CMP     #CHARD12
   7053  f44a							;*	    RTS
   7054  f44a
   7055  f44a							;-------- FLAME DRIVER CODE
   7056  f44a
   7057  f44a		       a6 ef	   FLAMER     LDX	FLAMIE
   7058  f44c		       f0 1e		      BEQ	ENDFLAM
   7059  f44e		       a5 7d		      LDA	FLAMNUM
   7060  f450		       f0 1b		      BEQ	SNDFLAME	;		 JUST BEFORE DRAWFLAM
   7061  f452		       10 4e		      BPL	DRAWFLAM
   7062  f454		       e6 7d		      INC	FLAMNUM
   7063  f456		       49 ff		      EOR	#$FF	;		     ; FLAP YOUR WINGS AND SMILE
   7064  f458		       29 0f		      AND	#$0F
   7065  f45a		       4a		      LSR
   7066  f45b		       4a		      LSR
   7067  f45c		       85 cc		      STA	TEMP1
   7068  f45e		       bd 38 21 	      LDA	FACING,X
   7069  f461		       4a		      LSR
   7070  f462		       4a		      LSR
   7071  f463		       a5 cc		      LDA	TEMP1
   7072  f465		       2a		      ROL
   7073  f466		       a8		      TAY
   7074  f467		       b9 f8 ec 	      LDA	FLAMTABL,Y	;	       SEQUENCE FOR FLAMING FYGAR
   7075  f46a		       95 67		      STA	MONSI,X	;		  <---
   7076  f46c		       60	   ENDFLAM    RTS
   7077  f46d
   7078  f46d				   SNDFLAME		;				 ;SOUND AND LENGTH CALC DONE ONCE A FLAM
   7079  f46d		       20 2b f4 	      JSR	GETDIRT	;		  WE NEED Y (ADDRESS OF DIRT)
   7080  f470							;*	    TXA
   7081  f470							;*	    PHA
   7082  f470		       bd 38 21 	      LDA	FACING,X
   7083  f473		       a2 02		      LDX	#2
   7084  f475		       29 02		      AND	#$02
   7085  f477		       d0 11		      BNE	FLAMLEFT
   7086  f479				   FLAMRIGT
   7087  f479		       e6 7c	   FLMRLOOP   INC	FLAMSIZE
   7088  f47b		       c8		      INY
   7089  f47c		       b9 00 26 	      LDA	DIRTMAP,Y
   7090  f47f		       c9 24		      CMP	#CHARD12
   7091  f481		       b0 18		      BCS	FLAMOUT0
   7092  f483		       ca		      DEX
   7093  f484		       10 f3		      BPL	FLMRLOOP
   7094  f486		       e6 7c		      INC	FLAMSIZE
   7095  f488		       d0 11		      BNE	FLAMOUT0	;		 SAME AS JMP FLAMOUT
   7096  f48a		       c6 7c	   FLAMLEFT   DEC	FLAMSIZE
   7097  f48c		       c6 7c	   FLMLLOOP   DEC	FLAMSIZE
   7098  f48e		       88		      DEY
   7099  f48f		       b9 00 26 	      LDA	DIRTMAP,Y
   7100  f492		       c9 24		      CMP	#CHARD12
   7101  f494		       b0 05		      BCS	FLAMOUT0
   7102  f496		       ca		      DEX
   7103  f497		       10 f3		      BPL	FLMLLOOP
   7104  f499		       c6 7c		      DEC	FLAMSIZE
   7105  f49b				   FLAMOUT0
   7106  f49b							;*	    PLA
   7107  f49b							;*	    TAX
   7108  f49b		       a6 ef		      LDX	FLAMIE
   7109  f49d
   7110  f49d		       a0 07		      LDY	#SNG3	;		    FLAME SOUND
   7111  f49f		       20 ef fd 	      JSR	NOISE
   7112  f4a2		       a5 7c	   DRAWFLAM   LDA	FLAMSIZE
   7113  f4a4		       10 15		      BPL	DRAWR
   7114  f4a6		       49 ff	   DRAWL      EOR	#$FF
   7115  f4a8		       c5 7d		      CMP	FLAMNUM
   7116  f4aa		       f0 1f		      BEQ	FLAMOUT2
   7117  f4ac		       a4 7d		      LDY	FLAMNUM
   7118  f4ae		       b5 54		      LDA	XPOS,X
   7119  f4b0		       38		      SEC
   7120  f4b1		       f9 fe ed 	      SBC	FLAMPOS,Y
   7121  f4b4		       85 61		      STA	FLAMEX
   7122  f4b6		       b9 f8 ea 	      LDA	LFLAMSEQ,Y
   7123  f4b9		       d0 09		      BNE	DRAWR2
   7124  f4bb							;*	    STA     FLAMEIX
   7125  f4bb							;*	    INC     FLAMNUM
   7126  f4bb							;*	    JMP     FLAMCOLL;		    ;FLAMCOLL IS A SUBR
   7127  f4bb		       c5 7d	   DRAWR      CMP	FLAMNUM
   7128  f4bd		       f0 0c		      BEQ	FLAMOUT2
   7129  f4bf		       a4 7d		      LDY	FLAMNUM
   7130  f4c1		       b9 fc ea 	      LDA	RFLAMSEQ,Y
   7131  f4c4		       85 74	   DRAWR2     STA	FLAMEIX
   7132  f4c6		       e6 7d		      INC	FLAMNUM
   7133  f4c8		       4c 60 f7    DRAWR4     JMP	FLAMCOLL	;		 ;FLAMCOLL IS A SUBR
   7134  f4cb		       ce 02 23    FLAMOUT2   DEC	FLAMWAIT
   7135  f4ce		       d0 f8		      BNE	DRAWR4	;		   ;TWEAK THIS
   7136  f4d0		       a9 de		      LDA	#ZBLANK
   7137  f4d2		       85 74		      STA	FLAMEIX
   7138  f4d4		       a5 af		      LDA	PROPORT
   7139  f4d6		       30 0e		      BMI	FLAMOUT4
   7140  f4d8		       a9 00	   SETFLAM    LDA	#0	;		       ;CALLED AS SUBR BY FLAMDET
   7141  f4da		       85 7c		      STA	FLAMSIZE
   7142  f4dc		       a9 e8		      LDA	#$E8
   7143  f4de		       85 7d		      STA	FLAMNUM
   7144  f4e0		       a9 07		      LDA	#$07
   7145  f4e2		       8d 02 23 	      STA	FLAMWAIT
   7146  f4e5		       60		      RTS
   7147  f4e6		       a9 00	   FLAMOUT4   LDA	#$00	;		     ;CALLED AS SUBR BY PUMPCOLL
   7148  f4e8		       85 4e		      STA	FLAMEY
   7149  f4ea		       85 ef		      STA	FLAMIE
   7150  f4ec		       95 b2		      STA	MONSTAT,X
   7151  f4ee		       60		      RTS
   7152  f4ef
   7153  f4ef
   7154  f4ef
   7155  f4ef
   7156  f4ef							;;;;;;;;;;;;;;;;;;;;;;;;;;;;;;;;;;;;;;;;;;;;;;;;;;;;;;;;;;;;;;;;;;;;;;;;;;;;;;;;
   7157  f4ef							;;;;;;;;;;;;;;;						    ;;;;;;;;;;;;;;
   7158  f4ef							;;;;;;;;;;;;;;    FALL: CALLED FROM INIT EVERY FRAME.; 	    ;;;;;;;;;;;;;;
   7159  f4ef							;;;;;;;;;;;;;;;	  HANDLES ROCK FALLING. 		    ;;;;;;;;;;;;;;
   7160  f4ef							;;;;;;;;;;;;;;;	  SQUASHES CREATURES.			    ;;;;;;;;;;;;;;
   7161  f4ef							;;;;;;;;;;;;;;;	  SQUASHES DIGDUG.			    ;;;;;;;;;;;;;;
   7162  f4ef							;;;;;;;;;;;;;;;	  SETS FRUIT TO 1 WHEN 2ND ROCK DROPPED.    ;;;;;;;;;;;;;;
   7163  f4ef							;;;;;;;;;;;;;;;	  SETS DEATH IF DETHWISH SET AND ROCKS DONE.;;;;;;;;;;;;;;
   7164  f4ef							;;;;;;;;;;;;;;;;;;;;;;;;;;;;;;;;;;;;;;;;;;;;;;;;;;;;;;;;;;;;;;;;;;;;;;;;;;;;;;;;
   7165  f4ef
   7166  f4ef
   7167  f4ef		       a9 00	   FALL       LDA	#0
   7168  f4f1		       85 d4		      STA	ROCKSNOW	;		 ;COUNT OF ROCKS FALLING
   7169  f4f3		       a2 04		      LDX	#NUMROCK	;		 ;HANDLE EVERY ROCK
   7170  f4f5		       86 ce	   MOREROCK   STX	CURROCK
   7171  f4f7		       20 0d f5 	      JSR	ROCKMOV
   7172  f4fa		       a6 ce		      LDX	CURROCK
   7173  f4fc		       ca		      DEX
   7174  f4fd		       10 f6		      BPL	MOREROCK
   7175  f4ff		       a6 d4		      LDX	ROCKSNOW
   7176  f501		       d0 09		      BNE	ENDROCK
   7177  f503		       a5 84		      LDA	DETHWISH
   7178  f505		       f0 05		      BEQ	ENDROCK
   7179  f507		       86 84		      STX	DETHWISH	;		 ;ASSUME X IS 0
   7180  f509		       e8		      INX
   7181  f50a		       86 83		      STX	DEATH
   7182  f50c		       60	   ENDROCK    RTS
   7183  f50d
   7184  f50d
   7185  f50d		       b4 c3	   ROCKMOV    LDY	TUMBLE,X	;		 ;ROCK STATE
   7186  f50f		       c0 02		      CPY	#ONEDGE
   7187  f511		       90 f9		      BCC	ENDROCK
   7188  f513		       e6 d4	   ROCKMOV1   INC	ROCKSNOW	;		 ;UPDATE COUNT OF ROCKS FALLING
   7189  f515		       b9 b0 e0 	      LDA	DOROCKL-2,Y
   7190  f518		       85 d2		      STA	RTEMP
   7191  f51a		       b9 b8 e0 	      LDA	DOROCKH-2,Y
   7192  f51d		       85 d3		      STA	RTEMP+1
   7193  f51f		       6c d2 00 	      JMP	(RTEMP)	;		  ;DISPATCH TO CORRECT SUBR
   7194  f522
   7195  f522
   7196  f522		       a0 0b	   RSLIP      LDY	#SNG7	;		    ;ROCK FALLING NOISE
   7197  f524		       20 ef fd 	      JSR	NOISE
   7198  f527		       4c b1 f6    ENDSTAT1   JMP	ENDSTAT2	;		 ;UPDATE ROCK STATE
   7199  f52a
   7200  f52a		       a0 56	   RTOTTER    LDY	#TOTRROCK
   7201  f52c		       b5 fb		      LDA	ROCKSTAT,X
   7202  f52e		       29 08		      AND	#$08
   7203  f530		       f0 02		      BEQ	RTOTTER1
   7204  f532		       a0 a6		      LDY	#STRTROCK
   7205  f534		       94 6f	   RTOTTER1   STY	ROCKSIX,X
   7206  f536		       f6 fb		      INC	ROCKSTAT,X
   7207  f538		       b5 fb		      LDA	ROCKSTAT,X
   7208  f53a		       c9 19		      CMP	#$19
   7209  f53c		       b0 e9		      BCS	ENDSTAT1
   7210  f53e		       c9 08		      CMP	#$08
   7211  f540		       90 ca		      BCC	ENDROCK
   7212  f542		       c9 18		      CMP	#$18
   7213  f544		       d0 05		      BNE	DOAVOID
   7214  f546		       a9 20		      LDA	#SETFLEE	;		 ;MAKE CREATURES MORE LIKELY TO GHOST
   7215  f548		       8d 04 23 	      STA	FLEE
   7216  f54b		       4c bd f2    DOAVOID    JMP	AVOID	;		    ;WARN CREATURES (AVOID IS A SUBR)
   7217  f54e
   7218  f54e
   7219  f54e		       a6 ce	   GROUND     LDX	CURROCK
   7220  f550		       10 d5		      BPL	ENDSTAT1
   7221  f552
   7222  f552		       b4 49	   RFALL      LDY	ROCKSY,X	;		 ;DON"T FALL OFF SCREEN
   7223  f554		       c0 17		      CPY	#MINDDY
   7224  f556		       f0 f6		      BEQ	GROUND
   7225  f558		       b5 fb		      LDA	ROCKSTAT,X
   7226  f55a		       c9 07	   RFALLOOP   CMP	#$07
   7227  f55c		       90 04		      BCC	RFALL0
   7228  f55e							;*	    SEC
   7229  f55e		       e9 07		      SBC	#$07
   7230  f560		       d0 f8		      BNE	RFALLOOP
   7231  f562		       a8	   RFALL0     TAY
   7232  f563		       b5 49		      LDA	ROCKSY,X
   7233  f565		       38		      SEC
   7234  f566		       f9 d9 e3 	      SBC	RFALLTBL,Y
   7235  f569		       95 49		      STA	ROCKSY,X
   7236  f56b		       b4 fb		      LDY	ROCKSTAT,X
   7237  f56d		       c0 06		      CPY	#6
   7238  f56f		       90 68		      BCC	CRUSH
   7239  f571
   7240  f571		       a9 ed		      LDA	#>SOUTH7
   7241  f573		       85 d0		      STA	DRTPTR+1
   7242  f575		       b5 49		      LDA	ROCKSY,X
   7243  f577							;*	    SEC
   7244  f577		       e9 0c	   ROCKOFST   SBC	#12	;		      ;GET DISTANCE ABOVE ROW
   7245  f579		       c9 0c		      CMP	#12
   7246  f57b		       b0 fa		      BCS	ROCKOFST
   7247  f57d		       c9 0a		      CMP	#10
   7248  f57f		       f0 2f		      BEQ	ROCKONE
   7249  f581		       c9 04		      CMP	#4
   7250  f583		       f0 19		      BEQ	ROCKHALF
   7251  f585		       c9 0b		      CMP	#11
   7252  f587		       d0 50		      BNE	CRUSH
   7253  f589
   7254  f589		       20 00 c3    RKBOUND    JSR	ROCKPUSH	;		 ;USES TEMP+0, RETURNS DIRTMAP,X IN A
   7255  f58c		       e0 f0		      CPX	#$F0	;		     ;DON"T FALL OFF SCREEN
   7256  f58e		       b0 be		      BCS	GROUND
   7257  f590		       c9 24		      CMP	#36
   7258  f592		       90 45		      BCC	CRUSH
   7259  f594		       c9 30		      CMP	#48	;		      ;;*;*;* MARIA 1 BOWTIE  (48)
   7260  f596		       f0 41		      BEQ	CRUSH
   7261  f598		       c9 2c		      CMP	#44	;		      ;;*;*;* MARIA 1 CUP     (44)
   7262  f59a		       f0 3d		      BEQ	CRUSH
   7263  f59c		       d0 b0		      BNE	GROUND
   7264  f59e
   7265  f59e
   7266  f59e		       20 00 c3    ROCKHALF   JSR	ROCKPUSH	;		 ;USES TEMP+0, RETURNS DIRTMAP,X IN A
   7267  f5a1		       c9 24		      CMP	#36
   7268  f5a3		       90 34		      BCC	CRUSH
   7269  f5a5		       c9 30		      CMP	#48	;		      ;BOWTIE DIRT ;*;*;* MARIA 1 (48)
   7270  f5a7		       d0 a5		      BNE	GROUND	;		   ;STOP AT CUP DIRT
   7271  f5a9		       a9 14		      LDA	#20	;		      ;;*;*;* MARIA 1 (20)
   7272  f5ab		       9d 00 26 	      STA	DIRTMAP,X
   7273  f5ae		       10 29		      BPL	CRUSH
   7274  f5b0
   7275  f5b0
   7276  f5b0		       a9 74	   ROCKONE    LDA	#<SOUTH1	;	       ;TO
   7277  f5b2		       85 cf		      STA	DRTPTR
   7278  f5b4		       20 00 c3 	      JSR	ROCKPUSH	;		 ;USES TEMP+0
   7279  f5b7		       c9 24		      CMP	#36
   7280  f5b9		       b0 07		      BCS	ROCKONE3
   7281  f5bb		       a0 c8		      LDY	#<VERTBOT
   7282  f5bd		       84 cf		      STY	DRTPTR
   7283  f5bf		       20 43 fd 	      JSR	BORE1
   7284  f5c2				   ROCKONE3
   7285  f5c2
   7286  f5c2		       a9 a5	   ROCKONE2   LDA	#<VERTTOP	;	      ;FROM
   7287  f5c4		       85 cf		      STA	DRTPTR
   7288  f5c6		       a6 ce		      LDX	CURROCK
   7289  f5c8		       b5 5c		      LDA	ROCKSX,X
   7290  f5ca		       48		      PHA
   7291  f5cb		       b5 49		      LDA	ROCKSY,X
   7292  f5cd		       aa		      TAX
   7293  f5ce		       68		      PLA
   7294  f5cf		       20 0a c3 	      JSR	CALCINDX
   7295  f5d2		       c9 24		      CMP	#36
   7296  f5d4		       b0 03		      BCS	CRUSH
   7297  f5d6		       20 43 fd 	      JSR	BORE1
   7298  f5d9
   7299  f5d9
   7300  f5d9		       a6 ce	   CRUSH      LDX	CURROCK
   7301  f5db
   7302  f5db		       a0 07		      LDY	#NUMCREAT
   7303  f5dd		       b9 b2 00    SQLOOP     LDA	MONSTAT,Y	;		;ENABLED AND GBNF NOT SET?
   7304  f5e0		       29 86		      AND	#$86
   7305  f5e2		       30 5b		      BMI	SQNXT
   7306  f5e4		       c9 02		      CMP	#$02
   7307  f5e6		       f0 57		      BEQ	SQNXT
   7308  f5e8		       48		      PHA
   7309  f5e9		       b9 54 00 	      LDA	POOKAX,Y
   7310  f5ec		       85 d0		      STA	VICTIMX
   7311  f5ee		       68		      PLA
   7312  f5ef		       c9 06		      CMP	#$06
   7313  f5f1		       d0 05		      BNE	NOTBLOW
   7314  f5f3		       b9 20 21 	      LDA	BLWYPOS,Y
   7315  f5f6		       d0 03		      BNE	DOCRUNCH
   7316  f5f8		       b9 41 00    NOTBLOW    LDA	POOKAY,Y
   7317  f5fb		       20 22 d6    DOCRUNCH   JSR	CRUNCH	;		   ;CHECK FOR SQUASH, CALC CREATURE YPOS
   7318  f5fe		       90 3f		      BCC	SQNXT
   7319  f600		       99 41 00 	      STA	POOKAY,Y
   7320  f603		       b9 b2 00 	      LDA	MONSTAT,Y
   7321  f606		       29 40		      AND	#$40	;		     ;NOT ALREADY SQUASHED?
   7322  f608		       d0 0d		      BNE	CALREDSQ
   7323  f60a		       8a		      TXA		;			      ;CURROCK
   7324  f60b		       99 50 25 	      STA	ROCKNUM,Y	;		;SAVE NUMBER OF GUILTY ROCK
   7325  f60e		       84 d2		      STY	RTEMP
   7326  f610		       a0 05		      LDY	#SNG1	;		    ;SQUASH CREATURE SOUND
   7327  f612		       20 ef fd 	      JSR	NOISE
   7328  f615		       a4 d2		      LDY	RTEMP
   7329  f617		       b9 b2 00    CALREDSQ   LDA	MONSTAT,Y
   7330  f61a		       29 f9		      AND	#$F9	;		     ;TURN OFF PUMPED FLAGS
   7331  f61c		       09 41		      ORA	#$41	;		     ;SET SQUASH AND FREEZE FLAGS
   7332  f61e		       99 b2 00 	      STA	MONSTAT,Y
   7333  f621		       a2 a4		      LDX	#SQPOOKA
   7334  f623		       98		      TYA
   7335  f624		       29 04		      AND	#$04	;		     ;POOKA?
   7336  f626		       f0 02		      BEQ	SQANIM
   7337  f628		       a2 a2		      LDX	#SQFYGAR
   7338  f62a		       96 67	   SQANIM     STX	POOKAIX,Y
   7339  f62c		       a6 ce		      LDX	CURROCK
   7340  f62e		       c4 ef		      CPY	FLAMIE	;		   ;SQUASHED CREATURE FLAMING?
   7341  f630		       d0 06		      BNE	CHKPMP
   7342  f632		       a9 00		      LDA	#0
   7343  f634		       85 ef		      STA	FLAMIE	;		   ;STOP FLAMING
   7344  f636		       85 4e		      STA	FLAMEY	;		   ;DON"T DISPLAY FLAME
   7345  f638		       c4 7b	   CHKPMP     CPY	PUMPIE	;		   ;SQUASHED CREATURE PUMPEE?
   7346  f63a		       d0 03		      BNE	SQNXT
   7347  f63c		       20 c8 f7 	      JSR	VANPUMP	;		  ;FOUND IN COLLISON
   7348  f63f							;	   ;				   ;USES A
   7349  f63f							;	   ;				   ;CLEARS PUMPY ETC., SETS PUMPIE TO FF
   7350  f63f		       88	   SQNXT      DEY
   7351  f640		       10 9b		      BPL	SQLOOP
   7352  f642
   7353  f642		       a5 53		      LDA	DDXPOS
   7354  f644		       85 d0		      STA	VICTIMX
   7355  f646		       a5 40		      LDA	DDYPOS
   7356  f648		       20 22 d6 	      JSR	CRUNCH	;		   ;CHECK FOR SQUASH, CALC DDYPOS
   7357  f64b		       90 16		      BCC	RFALL3
   7358  f64d		       85 40		      STA	DDYPOS
   7359  f64f		       20 c8 f7 	      JSR	VANPUMP	;		  ;FOUND IN COLLISON
   7360  f652							;	   ;				   ;USES A
   7361  f652							;	   ;				   ;CLEARS PUMPY ETC., SETS PUMPIE TO FF
   7362  f652		       a4 e3		      LDY	SQUASH	;		   ;NOT ALREADY SQUASHED?
   7363  f654		       d0 05		      BNE	DALREDSQ
   7364  f656		       a0 05		      LDY	#SNG1
   7365  f658		       20 ef fd 	      JSR	NOISE
   7366  f65b		       a0 01	   DALREDSQ   LDY	#1
   7367  f65d		       84 e3		      STY	SQUASH	;		   ;SET DIGDUG SQUASHING FLAG
   7368  f65f		       a9 a0		      LDA	#SQDIGDUG
   7369  f661		       85 66		      STA	DDINDX
   7370  f663		       f6 fb	   RFALL3     INC	ROCKSTAT,X
   7371  f665		       4c bd f2 	      JMP	AVOID	;		    ;AVOID IS A SUBR
   7372  f668
   7373  f668				   RBOTTOM
   7374  f668							;*	    LDA     ROCKSTAT,X
   7375  f668							;*	    BNE     RBOTTOM2
   7376  f668
   7377  f668		       a9 00		      LDA	#0
   7378  f66a		       8d 04 23 	      STA	FLEE	;		     ;ASSUME A = 0
   7379  f66d
   7380  f66d							;*	    LDY     #0; 		    ;DO THIS JUST ONCE
   7381  f66d							;*	    LDX     #NUMCREAT
   7382  f66d							;*SQCNT     LDA     MONSTAT,X
   7383  f66d							;*	    AND     #$40;		    ;SQUASHED?
   7384  f66d							;*	    BEQ     SQCNTNXT
   7385  f66d							;*	    INY;			    ;UPDATE SQUASHED CREATURE COUNT
   7386  f66d							;*SQCNTNXT  DEX
   7387  f66d							;*	    BPL     SQCNT
   7388  f66d
   7389  f66d							;*	    LDX     CURROCK
   7390  f66d							;*	    TYA
   7391  f66d							;*	    STA     NUMSQSH,X
   7392  f66d
   7393  f66d		       f6 fb		      INC	ROCKSTAT,X
   7394  f66f		       b5 fb		      LDA	ROCKSTAT,X
   7395  f671		       c9 10		      CMP	#$10
   7396  f673		       90 25		      BCC	RBOTTOM3	;		 ;GO RETURN
   7397  f675
   7398  f675		       20 b1 f6 	      JSR	ENDSTAT2	;		 ;UPDATE ROCKSTATE (RETURNS 0 IN A)
   7399  f678
   7400  f678		       9d 27 23 	      STA	NUMSQSH,X	;		;INIT COUNT OF CRUSHED CREATURES
   7401  f67b		       a0 07		      LDY	#NUMCREAT
   7402  f67d		       b9 b2 00    VANLOOP    LDA	MONSTAT,Y	;		;STOP DISPLAYING CRUSHED CREATURES
   7403  f680		       29 40		      AND	#$40
   7404  f682		       f0 0e		      BEQ	VANNXT
   7405  f684		       8a		      TXA		;			      ;CURROCK
   7406  f685		       d9 50 25 	      CMP	ROCKNUM,Y	;		;GUILTY ROCK?
   7407  f688		       d0 08		      BNE	VANNXT
   7408  f68a		       fe 27 23 	      INC	NUMSQSH,X	;		;UPDATE COUNT OF CRUSHED CREATURES
   7409  f68d		       a9 00		      LDA	#0
   7410  f68f		       99 41 00 	      STA	POOKAY,Y
   7411  f692		       88	   VANNXT     DEY
   7412  f693		       10 e8		      BPL	VANLOOP
   7413  f695
   7414  f695		       a0 06		      LDY	#SNG2	;		    ;HIT GROUND SOUND
   7415  f697		       4c ef fd 	      JMP	NOISE	;		    ; NOISE IS A SUBR
   7416  f69a
   7417  f69a		       a4 e9	   RBOTTOM3   LDY	ESCAPER	;		  ;PREVENT ESCAPE MUSIC FROM SOUNDING 2X
   7418  f69c		       d0 19		      BNE	ENDFALL2
   7419  f69e		       c9 01		      CMP	#$01	;		     ;RESTORE MODES
   7420  f6a0		       f0 77		      BEQ	DOGMODE
   7421  f6a2		       60		      RTS
   7422  f6a3
   7423  f6a3				   RSPLIT
   7424  f6a3		       b9 bc e0    RCRUMBL    LDA	RKANIM-6,Y
   7425  f6a6		       95 6f	   DORPOINT   STA	ROCKSIX,X
   7426  f6a8		       f6 fb		      INC	ROCKSTAT,X
   7427  f6aa		       b5 fb		      LDA	ROCKSTAT,X
   7428  f6ac		       d9 c0 e2 	      CMP	RKTIM-6,Y
   7429  f6af		       90 06		      BCC	ENDFALL2
   7430  f6b1		       a9 00	   ENDSTAT2   LDA	#0
   7431  f6b3		       95 fb		      STA	ROCKSTAT,X
   7432  f6b5		       f6 c3		      INC	TUMBLE,X
   7433  f6b7		       60	   ENDFALL2   RTS
   7434  f6b8
   7435  f6b8		       bc 27 23    RPOINTS    LDY	NUMSQSH,X
   7436  f6bb		       f0 f4		      BEQ	ENDSTAT2
   7437  f6bd							;*	    DEY
   7438  f6bd		       b9 a9 e0 	      LDA	DISPTS-1,Y	;	       ;POINT DISPLAY
   7439  f6c0		       a0 08		      LDY	#$08	;		     ;TUMBLE,X
   7440  f6c2		       d0 e2		      BNE	DORPOINT
   7441  f6c4
   7442  f6c4		       a9 00	   RFINISH    LDA	#0
   7443  f6c6		       95 c3		      STA	TUMBLE,X
   7444  f6c8		       95 49		      STA	ROCKSY,X
   7445  f6ca		       c6 d4		      DEC	ROCKSNOW	;		 ;DECREMENT # OF ROCKS FALLING
   7446  f6cc		       e6 c8		      INC	FALLCNT
   7447  f6ce		       a5 c8		      LDA	FALLCNT
   7448  f6d0		       c9 02		      CMP	#2
   7449  f6d2		       d0 03		      BNE	NOVEG
   7450  f6d4		       4a		      LSR
   7451  f6d5		       85 f1		      STA	FRUIT
   7452  f6d7		       a5 e3	   NOVEG      LDA	SQUASH	;		   ;DIGDUG WANTS TO DIE FROM SQUASHING?
   7453  f6d9		       f0 07		      BEQ	ROCKDETH
   7454  f6db		       a0 00		      LDY	#0
   7455  f6dd		       84 e3		      STY	SQUASH
   7456  f6df		       c8		      INY
   7457  f6e0		       84 84		      STY	DETHWISH
   7458  f6e2
   7459  f6e2		       a0 07	   ROCKDETH   LDY	#NUMCREAT
   7460  f6e4		       8a	   SQDEAD     TXA		;			      ;CURROCK
   7461  f6e5		       d9 50 25 	      CMP	ROCKNUM,Y	;		;GUILTY ROCK?
   7462  f6e8		       d0 0b		      BNE	SQDEDNXT
   7463  f6ea		       b9 b2 00 	      LDA	MONSTAT,Y
   7464  f6ed		       29 40		      AND	#$40
   7465  f6ef		       f0 04		      BEQ	SQDEDNXT
   7466  f6f1		       0a		      ASL		;			;MARK AS DISABLED
   7467  f6f2		       99 b2 00 	      STA	MONSTAT,Y
   7468  f6f5		       88	   SQDEDNXT   DEY
   7469  f6f6		       10 ec		      BPL	SQDEAD
   7470  f6f8
   7471  f6f8		       bc 27 23 	      LDY	NUMSQSH,X	;		;POINT VALUES STORED HALVED
   7472  f6fb		       f0 ba		      BEQ	ENDFALL2
   7473  f6fd		       88		      DEY
   7474  f6fe		       98		      TYA
   7475  f6ff		       0a		      ASL
   7476  f700		       aa		      TAX
   7477  f701		       bd f0 e0 	      LDA	FLATPTS,X
   7478  f704		       e8		      INX
   7479  f705		       bc f0 e0 	      LDY	FLATPTS,X
   7480  f708		       86 d2		      STX	RTEMP
   7481  f70a		       20 76 df 	      JSR	ADDSCORE
   7482  f70d		       a6 d2		      LDX	RTEMP
   7483  f70f		       bc f0 e0 	      LDY	FLATPTS,X
   7484  f712		       ca		      DEX
   7485  f713		       bd f0 e0 	      LDA	FLATPTS,X
   7486  f716		       20 76 df 	      JSR	ADDSCORE
   7487  f719
   7488  f719		       4c 20 f3    DOGMODE    JMP	GETMODE	;		  ;CREATURES REDO STRATEGY
   7489  f71c							;				 ;GETMODE IS A SUBR
   7490  f71c
   7491  f71c							;-------- COLLISION DETECTION ROUTINE
   7492  f71c							;	   BETWEEN DIGDUG AND MONSTERS
   7493  f71c
   7494  f71c		       a5 e3	   COLLISON   LDA	SQUASH
   7495  f71e		       d0 3f		      BNE	ENDCOLL
   7496  f720		       a2 07		      LDX	#$07
   7497  f722		       b5 b2	   PREV23     LDA	MONSTAT,X
   7498  f724		       c9 02		      CMP	#2	;		       ;ALLOW TOUCH OF FLAMING FYGAR TO KILL
   7499  f726		       b0 34		      BCS	ZNXTCOLL
   7500  f728		       a5 53	   XCOLL      LDA	DDXPOS
   7501  f72a		       38		      SEC
   7502  f72b		       f5 54		      SBC	XPOS,X
   7503  f72d		       b0 04		      BCS	ZNXT97
   7504  f72f		       49 ff		      EOR	#$FF	;		     2"S COMPLEMENT   (DOES NOT AFFECT C)
   7505  f731		       69 01		      ADC	#$01
   7506  f733		       c9 05	   ZNXT97     CMP	#$05
   7507  f735							;*	    BCC     YCOLL
   7508  f735		       b0 25		      BCS	ZNXTCOLL	;		 SAME AS JMP
   7509  f737		       a5 40	   YCOLL      LDA	DDYPOS
   7510  f739		       38		      SEC
   7511  f73a		       f5 41		      SBC	YPOS,X
   7512  f73c		       b0 04		      BCS	ZNXT96
   7513  f73e		       49 ff		      EOR	#$FF	;		     2"S COMPLEMENT   (DOES NOT AFFECT C)
   7514  f740		       69 01		      ADC	#$01
   7515  f742		       c9 07	   ZNXT96     CMP	#$07
   7516  f744							;*	    BCC     YESCOLL
   7517  f744		       b0 16		      BCS	ZNXTCOLL	;		 SAME AS JMP
   7518  f746		       a9 01	   YESCOLL    LDA	#$01	;		     MONSTER AND DIGDUG COLLIDE!!!
   7519  f748		       85 84		      STA	DETHWISH
   7520  f74a		       a4 80		      LDY	LASTMOVE
   7521  f74c		       be 31 c0 	      LDX	DANIMIX,Y
   7522  f74f		       bd 55 c1 	      LDA	ADEATH,X
   7523  f752		       85 66		      STA	DDINDX
   7524  f754		       20 c8 f7 	      JSR	VANPUMP	;		  ;STOP DISPLAYING PUMP
   7525  f757		       a0 0c		      LDY	#SNG8	;		    GOTCHA NOISE
   7526  f759		       4c ef fd 	      JMP	NOISE	;		    ;NOISE IS A SUBR
   7527  f75c		       ca	   ZNXTCOLL   DEX
   7528  f75d		       10 c3		      BPL	PREV23
   7529  f75f		       60	   ENDCOLL    RTS
   7530  f760
   7531  f760
   7532  f760							;-------- COLLISION DETECT ROUTINE
   7533  f760							;	   BETWEEN DIGDUG AND FLAME
   7534  f760
   7535  f760
   7536  f760		       a5 e3	   FLAMCOLL   LDA	SQUASH
   7537  f762		       d0 fb		      BNE	ENDCOLL
   7538  f764		       a5 61		      LDA	FLAMEX
   7539  f766		       38		      SEC
   7540  f767		       e9 07		      SBC	#$07
   7541  f769		       38		      SEC
   7542  f76a		       e5 53		      SBC	DDXPOS
   7543  f76c		       b0 f1		      BCS	ENDCOLL
   7544  f76e		       49 ff		      EOR	#$FF	;		     ;DOES NOT AFFECT C
   7545  f770							;*	    CLC
   7546  f770		       69 03		      ADC	#$03	;		     SINCE FLAMNUM IS INCREMENTED BY ONE
   7547  f772		       4a		      LSR
   7548  f773		       4a		      LSR
   7549  f774		       4a		      LSR
   7550  f775		       c5 7d		      CMP	FLAMNUM
   7551  f777		       b0 e6		      BCS	ENDCOLL
   7552  f779		       a5 40		      LDA	DDYPOS
   7553  f77b		       38		      SEC
   7554  f77c		       e5 4e		      SBC	FLAMEY
   7555  f77e		       b0 04		      BCS	ZNXT94
   7556  f780		       49 ff		      EOR	#$FF	;		     2"S COMPLEMENT  (DOESN"T AFFECT C)
   7557  f782		       69 01		      ADC	#$01
   7558  f784		       c9 0a	   ZNXT94     CMP	#$0A
   7559  f786		       b0 d7		      BCS	ENDCOLL
   7560  f788		       a9 00		      LDA	#$00
   7561  f78a		       95 b2		      STA	MONSTAT,X
   7562  f78c		       85 ef		      STA	FLAMIE
   7563  f78e		       f0 b6		      BEQ	YESCOLL
   7564  f790							;*	    LDA     #$01;		    FLAME AND DIGDUG COLLIDE!!!
   7565  f790							;*	    STA     DETHWISH
   7566  f790							;*	    LDY     #SNG8
   7567  f790							;*	    JSR     NOISE
   7568  f790							;*	    RTS
   7569  f790
   7570  f790
   7571  f790							;-------- PUMPING CODE
   7572  f790							;-------- PUMPING STATE MACHINE
   7573  f790
   7574  f790							;---- BUTTON INPUT ROUTINE MOVED TO INITDIRT
   7575  f790
   7576  f790
   7577  f790		       20 ba d6    PUMPER     JSR	INPUT
   7578  f793		       a5 b1		      LDA	PUMPCT
   7579  f795		       f0 0c		      BEQ	PUMPER2
   7580  f797		       c6 b1		      DEC	PUMPCT
   7581  f799		       d0 08		      BNE	PUMPER2
   7582  f79b		       a4 7b		      LDY	PUMPIE
   7583  f79d		       30 04		      BMI	PUMPER2
   7584  f79f		       85 eb		      STA	PUMPING	;		  HERE A = 1
   7585  f7a1		       85 ec		      STA	PUMPCNT
   7586  f7a3		       a4 e2	   PUMPER2    LDY	PUMPNUM
   7587  f7a5		       f0 2e		      BEQ	NOPUMP
   7588  f7a7		       10 47		      BPL	EXTEND
   7589  f7a9		       a6 7b	   PUMPWAIT   LDX	PUMPIE
   7590  f7ab		       30 15		      BMI	ZNXT102
   7591  f7ad		       b5 b2		      LDA	MONSTAT,X
   7592  f7af		       30 11		      BMI	ZNXT102	;		  IF DISABLED BIT SET
   7593  f7b1		       0a		      ASL
   7594  f7b2		       30 0e		      BMI	ZNXT102	;		  IF SQUASHED BIT SET
   7595  f7b4		       29 08		      AND	#$08
   7596  f7b6		       f0 0a		      BEQ	ZNXT102	;		  IF GBNF BIT IS SET
   7597  f7b8		       a5 ec		      LDA	PUMPCNT
   7598  f7ba		       d0 18		      BNE	VANEND
   7599  f7bc							;*	    LDA     #$00
   7600  f7bc		       85 ee		      STA	FREEZE
   7601  f7be		       a5 ed		      LDA	WALKING
   7602  f7c0		       f0 12		      BEQ	VANEND
   7603  f7c2		       a9 00	   ZNXT102    LDA	#$00	;		     IF WHILE WAITING SOMETHING HAPPENS
   7604  f7c4		       85 ee		      STA	FREEZE
   7605  f7c6		       85 e2		      STA	PUMPNUM	;		  -THEN TURN OFF THE PUMP
   7606  f7c8		       a9 ff	   VANPUMP    LDA	#$FF
   7607  f7ca		       85 7b		      STA	PUMPIE
   7608  f7cc		       a9 00		      LDA	#0	;		       ;CALLED FROM BLOWUP AND FALL
   7609  f7ce		       85 4f		      STA	PUMPY
   7610  f7d0		       85 50		      STA	PUMPY+1
   7611  f7d2		       85 51		      STA	PUMPY+2
   7612  f7d4		       60	   VANEND     RTS
   7613  f7d5
   7614  f7d5		       a5 e1	   NOPUMP     LDA	DIGGING
   7615  f7d7		       d0 fb		      BNE	VANEND
   7616  f7d9		       a5 e3		      LDA	SQUASH
   7617  f7db		       d0 f7		      BNE	VANEND
   7618  f7dd		       a5 ea		      LDA	PUMP
   7619  f7df		       f0 f3		      BEQ	VANEND
   7620  f7e1		       a9 01		      LDA	#$01	;		     THE VALUE TO FREEZE DIGDUG
   7621  f7e3		       85 ee		      STA	FREEZE	;		   THE DIGDUG STATUS REGESTER
   7622  f7e5		       a0 08		      LDY	#SNG5	;		    THROWN HARPOON
   7623  f7e7		       20 ef fd 	      JSR	NOISE
   7624  f7ea		       20 52 f9 	      JSR	GETMAXP
   7625  f7ed		       4c f6 f7 	      JMP	EXTEND2
   7626  f7f0		       a5 9d	   EXTEND     LDA	MAXPUMP
   7627  f7f2		       c9 01		      CMP	#1
   7628  f7f4		       f0 cc		      BEQ	ZNXT102
   7629  f7f6		       20 12 f8    EXTEND2    JSR	DISPPUMP
   7630  f7f9		       20 c6 f8 	      JSR	PUMPCOLL
   7631  f7fc		       d0 0f		      BNE	ZNXT104
   7632  f7fe		       a5 e2		      LDA	PUMPNUM
   7633  f800		       e6 e2		      INC	PUMPNUM
   7634  f802		       c5 9d		      CMP	MAXPUMP
   7635  f804		       d0 06		      BNE	EXTEND3
   7636  f806		       a5 9d		      LDA	MAXPUMP
   7637  f808		       c9 01		      CMP	#1
   7638  f80a		       d0 b6		      BNE	ZNXT102
   7639  f80c		       60	   EXTEND3    RTS
   7640  f80d		       a9 ff	   ZNXT104    LDA	#$FF
   7641  f80f		       85 e2		      STA	PUMPNUM
   7642  f811		       60		      RTS
   7643  f812
   7644  f812		       a5 80	   DISPPUMP   LDA	LASTMOVE
   7645  f814		       6a		      ROR
   7646  f815		       6a		      ROR
   7647  f816		       b0 4b		      BCS	NORTSOUT
   7648  f818		       08		      PHP
   7649  f819		       a5 e2		      LDA	PUMPNUM	;		  SETUP PUMP XPOS
   7650  f81b		       6a		      ROR		;			-FOR THE WIDE PUMP
   7651  f81c		       a9 00		      LDA	#$00
   7652  f81e		       2a		      ROL
   7653  f81f		       0a		      ASL
   7654  f820		       85 cc		      STA	TEMP1
   7655  f822		       28		      PLP
   7656  f823		       30 16		      BMI	WEST
   7657  f825		       a5 53	   EAST       LDA	DDXPOS
   7658  f827		       18		      CLC
   7659  f828		       65 cc		      ADC	TEMP1
   7660  f82a		       69 06		      ADC	#$06
   7661  f82c		       85 62		      STA	PUMPX
   7662  f82e		       a5 40		      LDA	DDYPOS
   7663  f830		       85 4f		      STA	PUMPY
   7664  f832		       a5 e2		      LDA	PUMPNUM	;		  SETUP THE INDEX FOR PUMP
   7665  f834		       4a		      LSR
   7666  f835		       a8		      TAY
   7667  f836		       b9 d5 e4 	      LDA	PRITES0,Y	;		-FROM PRITES# TABLES
   7668  f839		       d0 1d		      BNE	WESTA	;		    ;USE AS JMP
   7669  f83b		       a5 e2	   WEST       LDA	PUMPNUM	;		  SETUP THE INDEX FOR PUMP
   7670  f83d		       4a		      LSR
   7671  f83e		       85 cd		      STA	TEMP2
   7672  f840		       0a		      ASL
   7673  f841		       0a		      ASL
   7674  f842		       85 ce		      STA	TEMP3
   7675  f844		       a5 53		      LDA	DDXPOS
   7676  f846		       38		      SEC
   7677  f847		       e5 cc		      SBC	TEMP1
   7678  f849		       e9 02		      SBC	#$02
   7679  f84b		       e5 ce		      SBC	TEMP3
   7680  f84d		       85 62		      STA	PUMPX
   7681  f84f		       a5 40		      LDA	DDYPOS
   7682  f851		       85 4f		      STA	PUMPY
   7683  f853		       a4 cd		      LDY	TEMP2
   7684  f855		       b9 c2 e5 	      LDA	PLEFTS0,Y	;		-FROM PRITES# TABLES
   7685  f858		       85 75	   WESTA      STA	PUMPIX
   7686  f85a		       a5 de		      LDA	ZBLANK
   7687  f85c		       85 76		      STA	PUMPIX+1
   7688  f85e		       a5 de		      LDA	ZBLANK
   7689  f860		       85 77		      STA	PUMPIX+2
   7690  f862		       60		      RTS
   7691  f863		       10 29	   NORTSOUT   BPL	SOUTH
   7692  f865		       a5 e2	   NORTH      LDA	PUMPNUM	;		  SETUP THE INDEX FOR PUMP
   7693  f867		       4a		      LSR
   7694  f868		       85 cd		      STA	TEMP2
   7695  f86a
   7696  f86a		       a4 cd		      LDY	TEMP2
   7697  f86c		       b9 b4 e5 	      LDA	PUPS0,Y	;		  -FROM PRITES# TABLES
   7698  f86f		       85 75		      STA	PUMPIX
   7699  f871		       b9 bc e5 	      LDA	PUPS1,Y
   7700  f874		       85 76		      STA	PUMPIX+1
   7701  f876		       b9 ba e5 	      LDA	PUPS2,Y
   7702  f879		       85 77		      STA	PUMPIX+2
   7703  f87b
   7704  f87b		       a5 e2		      LDA	PUMPNUM
   7705  f87d		       0a		      ASL
   7706  f87e		       18		      CLC
   7707  f87f		       65 e2		      ADC	PUMPNUM
   7708  f881		       65 40		      ADC	DDYPOS
   7709  f883		       69 03		      ADC	#$03
   7710  f885		       c9 c0		      CMP	#192	;		     DECIMAL
   7711  f887		       90 02		      BCC	ZNXT166
   7712  f889		       a9 bf		      LDA	#191	;		     DECIMAL
   7713  f88b		       4c 0b fa    ZNXT166    JMP	SUB4	;		     ;SUB4 IS A SUBR
   7714  f88e		       a5 e2	   SOUTH      LDA	PUMPNUM	;		  SETUP PUMP XPOS
   7715  f890							;*	    ROR;		      -FOR THE WIDE PUMP
   7716  f890							;*	    LDA     #$00
   7717  f890							;*	    ROL
   7718  f890		       29 01		      AND	#$01	;		     ;WITH THANKS TO TOM CALDERWOOD
   7719  f892		       85 cc		      STA	TEMP1
   7720  f894		       18		      CLC
   7721  f895		       65 cc		      ADC	TEMP1
   7722  f897		       65 cc		      ADC	TEMP1
   7723  f899		       85 cc		      STA	TEMP1
   7724  f89b
   7725  f89b		       a5 e2		      LDA	PUMPNUM	;		  SETUP THE INDEX FOR PUMP
   7726  f89d		       4a		      LSR
   7727  f89e		       a8		      TAY
   7728  f89f		       b9 ae e5 	      LDA	PDOWNS0,Y	;		  -FROM PRITES# TABLES
   7729  f8a2		       85 75		      STA	PUMPIX
   7730  f8a4		       b9 ac e5 	      LDA	PDOWNS1,Y
   7731  f8a7		       85 76		      STA	PUMPIX+1
   7732  f8a9		       b9 aa e5 	      LDA	PDOWNS2,Y
   7733  f8ac		       85 77		      STA	PUMPIX+2
   7734  f8ae
   7735  f8ae		       a5 40		      LDA	DDYPOS
   7736  f8b0		       38		      SEC
   7737  f8b1		       e5 cc		      SBC	TEMP1
   7738  f8b3		       e9 09		      SBC	#$09
   7739  f8b5
   7740  f8b5		       a4 75		      LDY	PUMPIX
   7741  f8b7		       c0 ac		      CPY	#DPUMP6
   7742  f8b9		       d0 02		      BNE	SOUTHA
   7743  f8bb							;*	    CLC;			    ; CARRY IS SET
   7744  f8bb		       69 05		      ADC	#6-1
   7745  f8bd
   7746  f8bd		       c9 17	   SOUTHA     CMP	#23	;		      DECIMAL
   7747  f8bf		       b0 02		      BCS	ZNXT156
   7748  f8c1		       a9 17		      LDA	#23	;		      DECIMAL
   7749  f8c3		       4c 0b fa    ZNXT156    JMP	SUB4	;		     ;SUB4 IS A SUBR
   7750  f8c6
   7751  f8c6		       a5 80	   PUMPCOLL   LDA	LASTMOVE
   7752  f8c8		       6a		      ROR
   7753  f8c9		       6a		      ROR
   7754  f8ca		       b0 1e		      BCS	PUPDOWN
   7755  f8cc		       30 0b		      BMI	PLEFT
   7756  f8ce		       a5 e2	   PRIGHT     LDA	PUMPNUM
   7757  f8d0		       0a		      ASL
   7758  f8d1		       18		      CLC
   7759  f8d2		       65 53		      ADC	DDXPOS
   7760  f8d4		       69 01		      ADC	#$01	;		     IN CONNECTION WITH WIDTH OF COLL
   7761  f8d6		       4c de f8 	      JMP	PLEFT2
   7762  f8d9		       a5 62	   PLEFT      LDA	PUMPX
   7763  f8db		       38		      SEC
   7764  f8dc		       e9 05		      SBC	#$05	;		     IN COLL
   7765  f8de		       85 cc	   PLEFT2     STA	TEMP1
   7766  f8e0		       a5 4f		      LDA	PUMPY
   7767  f8e2		       38		      SEC
   7768  f8e3		       e9 04		      SBC	#$04
   7769  f8e5		       85 cd		      STA	TEMP2
   7770  f8e7		       4c 0a f9 	      JMP	PCOLL
   7771  f8ea		       10 05	   PUPDOWN    BPL	PDOWN
   7772  f8ec		       a5 4f	   PUP	      LDA	PUMPY
   7773  f8ee		       4c 01 f9 	      JMP	PDOWN2
   7774  f8f1		       a5 e2	   PDOWN      LDA	PUMPNUM
   7775  f8f3		       0a		      ASL
   7776  f8f4		       18		      CLC
   7777  f8f5		       65 e2		      ADC	PUMPNUM
   7778  f8f7		       85 cc		      STA	TEMP1
   7779  f8f9		       a5 40		      LDA	DDYPOS
   7780  f8fb		       38		      SEC
   7781  f8fc		       e5 cc		      SBC	TEMP1
   7782  f8fe		       38		      SEC
   7783  f8ff		       e9 09		      SBC	#$09	;		     IN COLL
   7784  f901		       85 cd	   PDOWN2     STA	TEMP2
   7785  f903		       a5 62		      LDA	PUMPX
   7786  f905		       38		      SEC
   7787  f906		       e9 05		      SBC	#$05	;		     IN COLL
   7788  f908		       85 cc		      STA	TEMP1
   7789  f90a							;*	    JMP     PCOLL
   7790  f90a		       a2 07	   PCOLL      LDX	#$07
   7791  f90c		       b5 b2	   PREV39     LDA	MONSTAT,X
   7792  f90e		       30 3c		      BMI	ENDPCOLL
   7793  f910		       0a		      ASL
   7794  f911		       30 39		      BMI	ENDPCOLL
   7795  f913		       29 0c		      AND	#$0C
   7796  f915		       c9 04		      CMP	#$04	;		     WHEN (NOT GBNF) & (BLOWUP)
   7797  f917		       f0 33		      BEQ	ENDPCOLL
   7798  f919		       b5 54		      LDA	XPOS,X
   7799  f91b		       38		      SEC
   7800  f91c		       e5 cc		      SBC	TEMP1
   7801  f91e		       90 2c		      BCC	ENDPCOLL
   7802  f920		       c9 06		      CMP	#$06	;		     WIDTH OF PUMP COLLISION
   7803  f922		       b0 28		      BCS	ENDPCOLL
   7804  f924		       b5 b2		      LDA	MONSTAT,X
   7805  f926		       29 02		      AND	#$02
   7806  f928		       f0 05		      BEQ	PCOLL1
   7807  f92a		       bd 20 21 	      LDA	BLWYPOS,X
   7808  f92d		       d0 02		      BNE	PCOLL2
   7809  f92f		       b5 41	   PCOLL1     LDA	YPOS,X
   7810  f931		       38	   PCOLL2     SEC
   7811  f932		       e5 cd		      SBC	TEMP2
   7812  f934		       90 16		      BCC	ENDPCOLL
   7813  f936		       c9 08		      CMP	#$08	;		     HEIGHT OF PUMP COLLISION
   7814  f938		       b0 12		      BCS	ENDPCOLL
   7815  f93a		       86 7b		      STX	PUMPIE
   7816  f93c		       e4 ef		      CPX	FLAMIE
   7817  f93e		       d0 03		      BNE	ZNXT107
   7818  f940		       20 e6 f4 	      JSR	FLAMOUT4	;		 ;SETS FLAMEY+FLAMIE+MONSTAT,X TO 0
   7819  f943							;*	    LDA     #0; 		    ;FOUND IN FLAMER
   7820  f943							;*	    STA     FLAMEY
   7821  f943							;*	    STA     FLAMIE
   7822  f943		       a9 07	   ZNXT107    LDA	#$07	;		     SET GBNF, BLOWUP AND FREEZE FLAGS
   7823  f945		       95 b2		      STA	MONSTAT,X
   7824  f947		       a9 01		      LDA	#$01
   7825  f949		       85 eb		      STA	PUMPING
   7826  f94b		       60		      RTS		;			      SO THAT ONLY ONE MONSTER IS AFFECTED
   7827  f94c		       ca	   ENDPCOLL   DEX
   7828  f94d		       10 bd		      BPL	PREV39
   7829  f94f		       a5 eb		      LDA	PUMPING
   7830  f951		       60		      RTS
   7831  f952
   7832  f952
   7833  f952
   7834  f952		       a2 0e	   GETMAXP    LDX	#$0E
   7835  f954		       a9 00		      LDA	#$00
   7836  f956		       85 9d		      STA	MAXPUMP
   7837  f958		       a5 53		      LDA	DDXPOS
   7838  f95a		       85 62		      STA	PUMPX
   7839  f95c		       a5 40		      LDA	DDYPOS
   7840  f95e		       85 4f		      STA	PUMPY
   7841  f960		       20 2b f4 	      JSR	GETDIRT
   7842  f963		       a2 02		      LDX	#$02
   7843  f965		       a5 80		      LDA	LASTMOVE
   7844  f967		       6a		      ROR
   7845  f968		       6a		      ROR
   7846  f969		       b0 3e		      BCS	PDNS
   7847  f96b		       30 23		      BMI	PDW
   7848  f96d				   PDE
   7849  f96d		       a5 e4		      LDA	NOTGRID
   7850  f96f		       d0 03		      BNE	PDELOOP
   7851  f971		       20 f7 e1 	      JSR	MOREPUMP
   7852  f974		       c8	   PDELOOP    INY
   7853  f975		       20 60 d6 	      JSR	LOOKDIRT
   7854  f978		       29 02		      AND	#$02
   7855  f97a		       d0 06		      BNE	ENDPDE
   7856  f97c		       20 f7 e1 	      JSR	MOREPUMP
   7857  f97f		       ca		      DEX
   7858  f980		       10 f2		      BPL	PDELOOP
   7859  f982		       a5 53	   ENDPDE     LDA	DDXPOS
   7860  f984		       29 07		      AND	#$07
   7861  f986		       f0 06		      BEQ	ENDPDE2
   7862  f988		       38		      SEC
   7863  f989		       e9 01		      SBC	#1
   7864  f98b		       4a		      LSR
   7865  f98c		       49 03		      EOR	#$03
   7866  f98e		       10 63	   ENDPDE2    BPL	SUB2	;		     ;SUB2 IS A SUBR
   7867  f990		       a5 e4	   PDW	      LDA	NOTGRID
   7868  f992		       f0 07		      BEQ	PDW1
   7869  f994		       20 60 d6    PDWLOOP    JSR	LOOKDIRT
   7870  f997		       29 08		      AND	#$08
   7871  f999		       d0 07		      BNE	ENDPDW
   7872  f99b		       20 f7 e1    PDW1       JSR	MOREPUMP
   7873  f99e		       88		      DEY		;			      ;NOTE - Y GETS DECREMENTED ONE TOO
   7874  f99f		       ca		      DEX		;			      ; MANY TIMES BUT IT SHOULDN"T MATTER
   7875  f9a0		       10 f2		      BPL	PDWLOOP
   7876  f9a2		       a5 53	   ENDPDW     LDA	DDXPOS
   7877  f9a4		       29 07		      AND	#$07
   7878  f9a6		       4a		      LSR
   7879  f9a7		       10 4a		      BPL	SUB2	;		     ;SUB2 IS A SUBR
   7880  f9a9		       10 29	   PDNS       BPL	PDS
   7881  f9ab				   PDN
   7882  f9ab		       a5 e4		      LDA	NOTGRID
   7883  f9ad		       d0 03		      BNE	PDNLOOP
   7884  f9af		       20 f7 e1 	      JSR	MOREPUMP
   7885  f9b2		       98	   PDNLOOP    TYA
   7886  f9b3		       38		      SEC
   7887  f9b4		       e9 10		      SBC	#$10
   7888  f9b6		       a8		      TAY
   7889  f9b7		       20 60 d6 	      JSR	LOOKDIRT
   7890  f9ba		       29 01		      AND	#$01
   7891  f9bc		       d0 06		      BNE	ENDPDN
   7892  f9be		       20 f7 e1 	      JSR	MOREPUMP
   7893  f9c1		       ca		      DEX
   7894  f9c2		       10 ee		      BPL	PDNLOOP
   7895  f9c4		       20 30 d7    ENDPDN     JSR	SUB3	;		     ;0 1 2 3 4 5 6 7 8 9 A B -->--->
   7896  f9c7		       a8		      TAY		;			      ;0 3 3 3 2 2 2 1 1 1 0 0
   7897  f9c8		       f0 05		      BEQ	ENDPDN2
   7898  f9ca		       e9 0d		      SBC	#$0D
   7899  f9cc		       49 ff		      EOR	#$FF
   7900  f9ce		       a8		      TAY
   7901  f9cf		       b9 90 24    ENDPDN2    LDA	DIV3TAB,Y
   7902  f9d2		       10 1f		      BPL	SUB2	;		     ;SUB2 IS A SUBR
   7903  f9d4		       a5 e4	   PDS	      LDA	NOTGRID
   7904  f9d6		       f0 07		      BEQ	PDS1
   7905  f9d8		       20 60 d6    PDSLOOP    JSR	LOOKDIRT
   7906  f9db		       29 04		      AND	#$04
   7907  f9dd		       d0 0b		      BNE	ENDPDS
   7908  f9df		       20 f7 e1    PDS1       JSR	MOREPUMP
   7909  f9e2		       98		      TYA		;			      ;NOTE - Y GETS CHANGED ONE TOO MANY
   7910  f9e3		       18		      CLC		;			      ; TIMES BUT IT SHOULDN"T MATTER
   7911  f9e4		       69 10		      ADC	#$10
   7912  f9e6		       a8		      TAY
   7913  f9e7		       ca		      DEX
   7914  f9e8		       10 ee		      BPL	PDSLOOP
   7915  f9ea		       20 30 d7    ENDPDS     JSR	SUB3
   7916  f9ed		       a8		      TAY
   7917  f9ee		       b9 90 24 	      LDA	DIV3TAB,Y
   7918  f9f1		       10 00		      BPL	SUB2	;		     ;SUB2 IS A SUBR
   7919  f9f3
   7920  f9f3							;*;* MOVED TO ARRAYS:
   7921  f9f3							;*LOOKDIRT  LDA     DIRTMAP,Y
   7922  f9f3							;*	    CMP     #CHARD12
   7923  f9f3							;*	    BCS     ENDLOOK
   7924  f9f3							;*	    CMP     #CHARDF
   7925  f9f3							;*	    BCC     ZNXT120
   7926  f9f3							;*	    LDA     #$01;		    SKY CHARACTER
   7927  f9f3							;*	    RTS
   7928  f9f3							;*ZNXT120   LSR
   7929  f9f3							;*	    RTS
   7930  f9f3							;*ENDLOOK   LDA     #$0F
   7931  f9f3							;*	    RTS
   7932  f9f3							;*MOREPUMP  LDA     MAXPUMP
   7933  f9f3							;*	    CLC
   7934  f9f3							;*	    ADC     #$04
   7935  f9f3							;*	    STA     MAXPUMP
   7936  f9f3							;*	    RTS
   7937  f9f3
   7938  f9f3
   7939  f9f3
   7940  f9f3
   7941  f9f3							;-------- SUBROUTINES (AND JUMPS)
   7942  f9f3
   7943  f9f3		       18	   SUB2       CLC		;			      THIS IS A JUMP TO . . .
   7944  f9f4		       65 9d		      ADC	MAXPUMP
   7945  f9f6		       c9 0c		      CMP	#$0C
   7946  f9f8		       90 02		      BCC	ENDDPDE
   7947  f9fa		       a9 0b		      LDA	#$0B
   7948  f9fc		       85 9d	   ENDDPDE    STA	MAXPUMP
   7949  f9fe		       60		      RTS
   7950  f9ff
   7951  f9ff		       38	   DISNEY     SEC
   7952  fa00		       e9 0c		      SBC	#$0C
   7953  fa02		       90 04		      BCC	DISNEY1
   7954  fa04		       c9 17		      CMP	#23
   7955  fa06		       b0 02		      BCS	DISNEY2
   7956  fa08		       a9 17	   DISNEY1    LDA	#23
   7957  fa0a		       60	   DISNEY2    RTS
   7958  fa0b
   7959  fa0b		       85 4f	   SUB4       STA	PUMPY
   7960  fa0d
   7961  fa0d		       a0 ac		      LDY	#DPUMP6
   7962  fa0f		       c4 76		      CPY	PUMPIX+1
   7963  fa11		       d0 03		      BNE	SUB4A
   7964  fa13		       18		      CLC
   7965  fa14		       69 06		      ADC	#6
   7966  fa16
   7967  fa16		       20 ff f9    SUB4A      JSR	DISNEY
   7968  fa19							;*	    SEC
   7969  fa19							;*	    SBC     #$0C
   7970  fa19							;*	    BCC     ZNXT168
   7971  fa19							;*	    CMP     #23;		    DECIMAL
   7972  fa19							;*	    BCS     ZNXT167
   7973  fa19							;*ZNXT168   LDA     #23;		     DECIMAL
   7974  fa19							;*ZNXT167
   7975  fa19		       85 50		      STA	PUMPY+1
   7976  fa1b
   7977  fa1b		       c4 77		      CPY	PUMPIX+2
   7978  fa1d		       d0 03		      BNE	SUB4B
   7979  fa1f		       18		      CLC
   7980  fa20		       69 06		      ADC	#6
   7981  fa22
   7982  fa22		       20 ff f9    SUB4B      JSR	DISNEY
   7983  fa25							;*	    SEC
   7984  fa25							;*	    SBC     #$0C
   7985  fa25							;*	    BCC     ZNXT169
   7986  fa25							;*	    CMP     #23;		    DECIMAL
   7987  fa25							;*	    BCS     ZNXT170
   7988  fa25							;*ZNXT169   LDA     #23;		     DECIMAL
   7989  fa25							;*ZNXT170
   7990  fa25		       85 51		      STA	PUMPY+2
   7991  fa27		       a5 53		      LDA	DDXPOS
   7992  fa29		       18		      CLC
   7993  fa2a		       69 02		      ADC	#$02
   7994  fa2c		       85 62		      STA	PUMPX
   7995  fa2e		       85 63		      STA	PUMPX+1
   7996  fa30		       85 64		      STA	PUMPX+2
   7997  fa32		       60		      RTS
   7998  fa33
   7999  fa33
   8000  fa33							;;;;;;;;;;;;;;;;;;;;;;;;;;;;;;;;;;;;;;;;;;;;;;;;;;;;;;;;;;;;;;;;;;;;;;;;;;;;;;;;
   8001  fa33							;;;;;;;;;;;;;;;						    ;;;;;;;;;;;;;;
   8002  fa33							;;;;;;;;;;;;;;    BLOWUP:  CALLED FROM MAIN.;			    ;;;;;;;;;;;;;;
   8003  fa33							;;;;;;;;;;;;;;;	     INFLATES AND DEFLATES CREATURES.	    ;;;;;;;;;;;;;;
   8004  fa33							;;;;;;;;;;;;;;;	     POPS CREATURES,DISPLAYS POINTS.	    ;;;;;;;;;;;;;;
   8005  fa33							;;;;;;;;;;;;;;;	     UPDATES SCORE.			    ;;;;;;;;;;;;;;
   8006  fa33							;;;;;;;;;;;;;;;						    ;;;;;;;;;;;;;;
   8007  fa33							;;;;;;;;;;;;;;;;;;;;;;;;;;;;;;;;;;;;;;;;;;;;;;;;;;;;;;;;;;;;;;;;;;;;;;;;;;;;;;;;
   8008  fa33
   8009  fa33
   8010  fa33		       00 20	   SETDEFL    EQU	$20	;		      ;RATE OF DEFLATION
   8011  fa33
   8012  fa33
   8013  fa33
   8014  fa33		       a2 07	   BLOWUP     LDX	#NUMCREAT	;		;FOR EACH CREATURE
   8015  fa35		       86 ce	   BLWLOOP    STX	CURRBLW
   8016  fa37		       b5 b2		      LDA	MONSTAT,X
   8017  fa39		       30 25		      BMI	JNXTBLW
   8018  fa3b		       bc 37 23 	      LDY	BLWSTAT,X	;		;FETCH BLOW UP STATE
   8019  fa3e							;*	    LDA     MONSTAT,X
   8020  fa3e		       29 02		      AND	#$02	;		     ;BLOWN UP?
   8021  fa40		       f0 21		      BEQ	INFLAT
   8022  fa42		       c0 05		      CPY	#5	;		       ;SCORE STAGE?
   8023  fa44		       d0 0e		      BNE	POP
   8024  fa46		       de 3f 23 	      DEC	BLWCTR,X	;		 ;DONE DISPLAYING POINTS?
   8025  fa49		       d0 15		      BNE	JNXTBLW
   8026  fa4b		       20 8a f1 	      JSR	OFFSCR2	;		  ;FOUND IN MONSTER FILE
   8027  fa4e							;*	    LDA     #$80
   8028  fa4e							;*	    STA     MONSTAT,X;		    ;DISABLE CREATURE
   8029  fa4e							;*	    LDA     #0
   8030  fa4e							;*	    STA     POOKAY,X;		    ;DON"T DISPLAY ANYTHING
   8031  fa4e		       20 20 f3 	      JSR	GETMODE	;		  ;CREATURES REDO STRATEGY
   8032  fa51		       4c e4 fa 	      JMP	NXTBLW
   8033  fa54
   8034  fa54		       c0 04	   POP	      CPY	#4	;		       ;POP STAGE?
   8035  fa56		       d0 0b		      BNE	INFLAT
   8036  fa58		       de 3f 23 	      DEC	BLWCTR,X	;		 ;DONE DISPLAYING POP ANIMATION?
   8037  fa5b		       d0 03		      BNE	JNXTBLW
   8038  fa5d
   8039  fa5d		       20 09 fb 	      JSR	CAROL	;		    ;ADD IN POINTS
   8040  fa60
   8041  fa60		       4c e4 fa    JNXTBLW    JMP	NXTBLW
   8042  fa63
   8043  fa63
   8044  fa63		       a5 eb	   INFLAT     LDA	PUMPING	;		  ;INFLATING?
   8045  fa65		       f0 4b		      BEQ	DEFLAT
   8046  fa67		       e4 7b		      CPX	PUMPIE	;		   ;PUMPEE?
   8047  fa69		       d0 47		      BNE	DEFLAT
   8048  fa6b		       bd 37 23 	      LDA	BLWSTAT,X
   8049  fa6e		       d0 14		      BNE	INFLAT2
   8050  fa70		       b5 67		      LDA	POOKAIX,X
   8051  fa72		       9d f8 22 	      STA	PREBLWIX,X	;	       ;SAVE STAMP
   8052  fa75		       b5 41		      LDA	POOKAY,X
   8053  fa77		       9d 20 21 	      STA	BLWYPOS,X
   8054  fa7a							;*	    CLC;			    ; CARRY IS SET
   8055  fa7a		       69 03		      ADC	#4-1
   8056  fa7c		       c9 c0		      CMP	#192
   8057  fa7e		       90 02		      BCC	ADJUSTY
   8058  fa80		       a9 bf		      LDA	#191
   8059  fa82		       95 41	   ADJUSTY    STA	POOKAY,X
   8060  fa84		       fe 37 23    INFLAT2    INC	BLWSTAT,X
   8061  fa87		       a9 20		      LDA	#SETDEFL	;		 ;INIT DEFLATION CTR
   8062  fa89		       9d 3f 23 	      STA	BLWCTR,X
   8063  fa8c		       20 ec fa 	      JSR	PUFF	;		     ;CHANGE ANIMATIONS
   8064  fa8f		       a0 09		      LDY	#SNG4	;		    ;PUMPING CREATURE NOISE
   8065  fa91		       20 ef fd 	      JSR	NOISE
   8066  fa94		       bd 37 23 	      LDA	BLWSTAT,X
   8067  fa97		       c9 04		      CMP	#4	;		       ;POPPING?
   8068  fa99		       d0 c5		      BNE	JNXTBLW
   8069  fa9b		       a0 0a		      LDY	#SNG6	;		    ;POPPING CREATURE NOISE
   8070  fa9d		       20 ef fd 	      JSR	NOISE
   8071  faa0		       b5 b2		      LDA	MONSTAT,X
   8072  faa2		       29 fb		      AND	#$FB
   8073  faa4		       95 b2		      STA	MONSTAT,X
   8074  faa6		       a5 80		      LDA	LASTMOVE
   8075  faa8		       9d 47 23 	      STA	BLWLSTMV,X
   8076  faab		       a9 1e		      LDA	#30	;		      ;SET POP DISPLAY TIMER
   8077  faad		       9d 3f 23 	      STA	BLWCTR,X
   8078  fab0		       10 2f		      BPL	UNLATCH
   8079  fab2
   8080  fab2		       b5 b2	   DEFLAT     LDA	MONSTAT,X	;		;DEFLATING?
   8081  fab4		       29 02		      AND	#$02
   8082  fab6		       f0 2c		      BEQ	NXTBLW
   8083  fab8		       de 3f 23 	      DEC	BLWCTR,X
   8084  fabb		       d0 27		      BNE	NXTBLW
   8085  fabd		       a9 20		      LDA	#SETDEFL
   8086  fabf		       9d 3f 23 	      STA	BLWCTR,X
   8087  fac2		       de 37 23 	      DEC	BLWSTAT,X
   8088  fac5		       f0 06		      BEQ	GOFREE
   8089  fac7		       20 ec fa 	      JSR	PUFF
   8090  faca		       4c e4 fa 	      JMP	NXTBLW
   8091  facd		       b5 b2	   GOFREE     LDA	MONSTAT,X
   8092  facf		       29 f8		      AND	#$F8	;		     ;CLR GBNF,BLOWUP, FREEZE BITS
   8093  fad1		       95 b2		      STA	MONSTAT,X
   8094  fad3		       bd f8 22 	      LDA	PREBLWIX,X	;	       ;RESTORE OLD STAMP
   8095  fad6		       95 67		      STA	POOKAIX,X
   8096  fad8		       bd 20 21 	      LDA	BLWYPOS,X
   8097  fadb		       95 41		      STA	POOKAY,X	;		 ;RESTORE X POSITION
   8098  fadd		       e4 7b		      CPX	PUMPIE
   8099  fadf		       d0 03		      BNE	NXTBLW
   8100  fae1		       20 c8 f7    UNLATCH    JSR	VANPUMP	;		  ;FOUND IN COLLISON
   8101  fae4							;	   ;				   ;USES A
   8102  fae4							;	   ;				   ;CLEARS PUMPY ETC., SETS PUMPIE TO FF
   8103  fae4
   8104  fae4		       a6 ce	   NXTBLW     LDX	CURRBLW
   8105  fae6		       ca		      DEX
   8106  fae7		       30 1f		      BMI	BLWEND
   8107  fae9		       4c 35 fa 	      JMP	BLWLOOP
   8108  faec
   8109  faec
   8110  faec		       bc 37 23    PUFF       LDY	BLWSTAT,X
   8111  faef		       88		      DEY
   8112  faf0		       84 cf		      STY	BLWTEMP
   8113  faf2		       bd 38 21 	      LDA	FACING,X
   8114  faf5		       4a		      LSR
   8115  faf6		       4a		      LSR
   8116  faf7		       0a		      ASL
   8117  faf8							;*	    CLC
   8118  faf8		       65 cf		      ADC	BLWTEMP
   8119  fafa		       85 cf		      STA	BLWTEMP
   8120  fafc		       8a		      TXA
   8121  fafd		       29 04		      AND	#$04
   8122  faff		       0a		      ASL
   8123  fb00							;*	    CLC
   8124  fb00		       65 cf		      ADC	BLWTEMP
   8125  fb02		       a8		      TAY
   8126  fb03		       b9 d8 e5 	      LDA	BLWSTMPS,Y
   8127  fb06		       95 67		      STA	POOKAIX,X
   8128  fb08		       60	   BLWEND     RTS
   8129  fb09
   8130  fb09		       86 ce	   CAROL      STX	CURRBLW	;		  ;CALLED BY CHKDEATH AND POP
   8131  fb0b		       a0 00		      LDY	#0	;		       ;CALC CREATURE"S DIRT LEVEL
   8132  fb0d		       bd 20 21 	      LDA	BLWYPOS,X	;		;USE TRUE Y POSITION
   8133  fb10							;*	    SEC;			    ; SET BY CPY WITH 4
   8134  fb10		       e9 04		      SBC	#$04	;		     ;REQUIRE 2/3 OVERLAP
   8135  fb12		       38	   FNDLEVEL   SEC
   8136  fb13		       e9 0c		      SBC	#12
   8137  fb15		       90 03		      BCC	GOTLEVEL
   8138  fb17		       c8		      INY
   8139  fb18		       10 f8		      BPL	FNDLEVEL
   8140  fb1a		       98	   GOTLEVEL   TYA		;			      ;RANGE 0 - 14
   8141  fb1b		       4a		      LSR		;			;FROM BOTTOM UP TUNNELS ARE
   8142  fb1c		       4a		      LSR		;			;  GROUPED:  3,4,4,4 (INCLUDING SKY)
   8143  fb1d		       a8		      TAY
   8144  fb1e		       8a		      TXA
   8145  fb1f		       29 04		      AND	#$04	;		     ;FYGAR?
   8146  fb21		       f0 0a		      BEQ	LOWPTS
   8147  fb23		       4a		      LSR
   8148  fb24		       3d 47 23 	      AND	BLWLSTMV,X	;	       ;DIGDUG PUMPING HORIZONTALLY?
   8149  fb27		       d0 04		      BNE	LOWPTS
   8150  fb29		       c8		      INY		;			      ;DOUBLE POINT VALUE
   8151  fb2a		       c8		      INY
   8152  fb2b		       c8		      INY
   8153  fb2c		       c8		      INY
   8154  fb2d		       b9 d0 e5    LOWPTS     LDA	BPOINTS,Y
   8155  fb30		       95 67		      STA	POOKAIX,X	;		;DISPLAY POINTS
   8156  fb32		       a9 08		      LDA	#8
   8157  fb34		       d5 54		      CMP	POOKAX,X
   8158  fb36		       90 02		      BCC	LOWPTSA
   8159  fb38		       95 54		      STA	POOKAX,X
   8160  fb3a		       bd 20 21    LOWPTSA    LDA	BLWYPOS,X
   8161  fb3d		       95 41		      STA	POOKAY,X	;		 ;RESTORE Y POSITION
   8162  fb3f		       a9 01		      LDA	#1	;		       ;POINTS HAVE LOWEST PRIORITY
   8163  fb41		       9d c1 24 	      STA	MONPRIOR,X	;	       ;WILL BE RESET BY INCREATS NEXT RACK
   8164  fb44		       b9 c8 e5 	      LDA	BURSTPTS,Y	;	       ;LOW ORDER BYTE
   8165  fb47		       a8		      TAY
   8166  fb48		       a9 00		      LDA	#0
   8167  fb4a		       20 76 df 	      JSR	ADDSCORE
   8168  fb4d		       a6 ce		      LDX	CURRBLW
   8169  fb4f		       a9 1e		      LDA	#30	;		      ;SET POINTS DISPLAY TIMER
   8170  fb51		       9d 3f 23 	      STA	BLWCTR,X
   8171  fb54		       fe 37 23 	      INC	BLWSTAT,X	;		;ADVANCE TO POINT DISPLAY STAGE
   8172  fb57		       60		      RTS
   8173  fb58							;*;*;*;*;*;*;*;*;*;*;*;*;*;*;*;*;*;*;*;*;*;*;*;*;*;*;*;*;*;*;*;*;*;*;*;*;*;*;*;*;*;*;*;*;*;*;*;*;*;*;*;*;*;*;*;*;*;*;*;*;*;*;*;*;*;*;*;*;*;*;*;*;*;*;*;*;*;*;*;*
   8174  fb58							;*;*;*;*;*;*;*;*;*;*;*;							  ;*;*;*;*;*;*;*;*;*;*;*
   8175  fb58							;*;*;*;*;*;*;*;*;*;*;*       GENDPL:  THIS LOADS STAMPS INTO THE DISPLAY LISTS  ;*;*;*;*;*;*;*;*;*;*;*
   8176  fb58							;*;*;*;*;*;*;*;*;*;*;*;		FOR EACH ZONE.	THE BACKGROUND HEADERS	  ;*;*;*;*;*;*;*;*;*;*;*
   8177  fb58							;*;*;*;*;*;*;*;*;*;*;*;		ARE CHANGED ONLY WHEN SWITCHING PLAYERS   ;*;*;*;*;*;*;*;*;*;*;*
   8178  fb58							;*;*;*;*;*;*;*;*;*;*;*;		SO THERE IS NO NEED TO CHANGE THEM EACH   ;*;*;*;*;*;*;*;*;*;*;*
   8179  fb58							;*;*;*;*;*;*;*;*;*;*;*;		TIME THE LOADER IS RUN. 		  ;*;*;*;*;*;*;*;*;*;*;*
   8180  fb58							;*;*;*;*;*;*;*;*;*;*;*;							  ;*;*;*;*;*;*;*;*;*;*;*
   8181  fb58							;*;*;*;*;*;*;*;*;*;*;*;*;*;*;*;*;*;*;*;*;*;*;*;*;*;*;*;*;*;*;*;*;*;*;*;*;*;*;*;*;*;*;*;*;*;*;*;*;*;*;*;*;*;*;*;*;*;*;*;*;*;*;*;*;*;*;*;*;*;*;*;*;*;*;*;*;*;*;*;*
   8182  fb58							;*;*;*;*
   8183  fb58							;*;*;*;* TIMING FOR THE LOADER IS AS FOLLOWS:
   8184  fb58							;*;*;*;*
   8185  fb58							;*;*;*;*;*;*;*;*;*;*;*;*;*;*;*;*;*;*;* THIS IS ALL INVALIDATED:  LOADER HAS BEEN ;*;*;*;*;*;*;*;*;*;*;*;*;*;*;*;*;*;*
   8186  fb58							;*;*;*;*;*;*;*;*;*;*;*;*;*;*;*;*;*;*;* 	CHANGED TO SAVE ROM!!!!!!!	  ;*;*;*;*;*;*;*;*;*;*;*;*;*;*;*;*;*;*
   8187  fb58							;*;*;*;*
   8188  fb58							;*;*;*;*      BEST CASE:	 47 ... INITIALIZE LISTSIZ.
   8189  fb58							;*;*;*;*  ;			   2 ... SET UP FOR STAMP LOADER.
   8190  fb58							;*;*;*;*  ;			2464 ... FILL IN 16 STAMPS: NONE CROSS ZONES.
   8191  fb58							;*;*;*;*  ;			 351 ... ZEROS AT END OF EACH DISPLAY LIST.
   8192  fb58							;*;*;*;*  ;			   8 ... EOR DLSTPTR.
   8193  fb58							;*;*;*;*  ;			----
   8194  fb58							;*;*;*;*  ;			2872 ... TOTAL BEST CASE CYCLES.
   8195  fb58							;*;*;*;*
   8196  fb58							;*;*;*;*
   8197  fb58							;*;*;*;*      AVERAGE CASE:;			       WORST CASE:
   8198  fb58							;*;*;*;*      -------------;			       -----------
   8199  fb58							;*;*;*;*	    49; 				    49
   8200  fb58							;*;*;*;*	  3232 ... 8 CROSS ZONES, 8 DON"T.	 4000 ... ALL CROSS ZONES.
   8201  fb58							;*;*;*;*	   359; 				   359
   8202  fb58							;*;*;*;*	  ----; 				  ____
   8203  fb58							;*;*;*;*	  3640 ... TOTAL AVERAGE CASE.; 	  4408 ... TOTAL WORST CASE.
   8204  fb58							;*;*;*;*
   8205  fb58							;*;*;*;*;*;*;*;*;*;*;*;*;*;*;*;*;*;*;*;*;*;*;*;*;*;*;*;*;*;*;*;*;*;*;*;*;*;*;*;*;*;*;*;*;*;*;*;*;*;*;*;*;*;*;*;*;*;*;*;*;*;*;*;*;*;*;*;*;*;*;*;*;*;*;*;*;*;*;*;*
   8206  fb58
   8207  fb58
   8208  fb58							;*;*;*;* INITIALIZE INDEX INTO DISPLAY LIST FOR EACH ZONE TO 4: THIS WILL
   8209  fb58							;*;*;*;*      POINT TO BYTE JUST FOLLOWING BACKGROUND HEADER.
   8210  fb58
   8211  fb58		       a9 05	   GENDPL     LDA	#5	;		       ;THIS TAKES 32 BYTES AND 47 CYCLES.
   8212  fb5a		       a2 0f		      LDX	#15	;		      ;  DOING THIS IN A LOOP WOULD TAKE
   8213  fb5c		       95 8b	   FILLIST    STA	LISTSIZ,X	;		;  9 BYTES AND 147 CYCLES.
   8214  fb5e		       ca		      DEX		;			      ;NOTE THAT WE DIDN"T TOUCH LISTSIZ+0.
   8215  fb5f		       d0 fb		      BNE	FILLIST
   8216  fb61
   8217  fb61
   8218  fb61							;*;*;*;* NOW FOR EACH STAMP POSSIBLE ON SCREEN, SEE WHICH ZONE(S) THE STAMP APPEARS
   8219  fb61							;*;*;*;*      IN AND PUT THE APPROPRIATE HEADER INTO THE ZONE"S DISPLAY LIST.
   8220  fb61							;*;*;*;*      THE COORDINATE SYSTEM FOR THE POSITIONS OF THE STAMPS RUNS FROM 0
   8221  fb61							;*;*;*;*      AT THE BOTTOM OF THE SCREEN TO 191 AT THE TOP, AND FROM 0 AT THE
   8222  fb61							;*;*;*;*      LEFT TO 159 AT THE RIGHT.  THE TOP ZONE IS ZONE 15 (SKY), AND THE
   8223  fb61							;*;*;*;*      BOTTOM ZONE IS ZONE 0 (SCORE / NUMBER OF EXTRA LIVES LINE).
   8224  fb61							;*;*;*;*      BEST CASE TIMING FOR THIS LOOP IS 154 CYCLES PER STAMP, WORST CASE
   8225  fb61							;*;*;*       250 CYCLES PER STAMP.
   8226  fb61
   8227  fb61				   GENDPL2		;				 ;(ENTRY POINT FOR TITLEPAG.)
   8228  fb61		       a9 01		      LDA	#1	;		       ;FIRST DO ALL STAMPS WITH STMPRIOR=1:
   8229  fb63		       85 de		      STA	LISTPTR	;		  ;  THESE HAVE LOWEST PRIORITY SO WILL
   8230  fb65							;				 ;  BE PUT IN DISPLAY LIST FIRST.
   8231  fb65		       a9 c4	   ZGEN2      LDA	#CSET2	;		   ;ALL STAMPS ARE IN CSET2 EXCEPT FOR
   8232  fb67		       85 df		      STA	LISTPTR+1	;		;  FRUIT, WHICH IS IN FIRST SLOT OF
   8233  fb69							;				 ;  STMPYPOS AND IN CSET1.
   8234  fb69		       a0 00		      LDY	#0
   8235  fb6b				   GETSTAMP
   8236  fb6b		       84 dd		      STY	TEMPY
   8237  fb6d		       b9 c0 24 	      LDA	STMPRIOR,Y	;	       ;DOES THIS STAMP HAVE CORRECT PRIORITY
   8238  fb70		       c5 de		      CMP	LISTPTR	;		  ;  FOR THIS PASS?
   8239  fb72		       d0 64		      BNE	NXTSTAMP
   8240  fb74		       b9 40 00 	      LDA	STMPYPOS,Y	;	       ;VERTICAL POSITION OF STAMP.
   8241  fb77		       f0 5f		      BEQ	NXTSTAMP	;		 ;IF ZERO, DON"T DISPLAY STAMP.
   8242  fb79		       85 d7		      STA	TEMPYPOS
   8243  fb7b		       4a		      LSR		;			;FIND WHICH ZONE BY DIVIDING BY 12.
   8244  fb7c		       4a		      LSR
   8245  fb7d		       aa		      TAX
   8246  fb7e		       bd 90 24 	      LDA	DIV3TAB,X	;		;ZONE NUMBER.
   8247  fb81		       aa		      TAX
   8248  fb82		       b9 53 00 	      LDA	STMPXPOS,Y	;	       ;SAVE HORIZONTAL POSITION.
   8249  fb85		       18		      CLC		;			      ;CENTER STAMPS ON SCREEN.
   8250  fb86		       69 10		      ADC	#16
   8251  fb88		       85 da		      STA	HEADER3
   8252  fb8a		       b9 66 00 	      LDA	STMPINDX,Y	;	       ;INDEX = LOW ADDRESS OF STAMP.
   8253  fb8d		       85 d8		      STA	HEADER0
   8254  fb8f		       4a		      LSR
   8255  fb90		       a8		      TAY
   8256  fb91		       a5 dd		      LDA	TEMPY	;		    ;IS THIS FRUIT STAMP?
   8257  fb93		       c9 12		      CMP	#TOTLSTMP	;		;IF SO, HEADER1 ALREADY SET UP.
   8258  fb95		       f0 05		      BEQ	OVERLAPS
   8259  fb97		       b9 00 24 	      LDA	STMPPALW,Y	;	       ;PALETTE/WIDTH BYTE FOR REGULAR STAMP.
   8260  fb9a		       85 d9		      STA	HEADER1
   8261  fb9c
   8262  fb9c				   OVERLAPS
   8263  fb9c		       20 d6 db 	      JSR	SETDPLH	;		  ;GET ADDRESS OF DISPLAY LIST FOR ZONE.
   8264  fb9f		       b4 8b		      LDY	LISTSIZ,X	;		;POINTER INTO DISPLAY LIST FOR ZONE.
   8265  fba1		       c0 3d		      CPY	#LISTLENG	;		;LIST FULL YET?
   8266  fba3		       b0 1c		      BCS	NXTZLST
   8267  fba5		       a5 d8		      LDA	HEADER0
   8268  fba7		       91 db		      STA	(DPLOW),Y
   8269  fba9		       c8		      INY
   8270  fbaa		       a5 d9		      LDA	HEADER1	;		  ;PALETTE/WIDTH FOR STAMP.
   8271  fbac		       91 db		      STA	(DPLOW),Y
   8272  fbae		       c8		      INY
   8273  fbaf		       a5 df		      LDA	LISTPTR+1	;		;HIGH BYTE FOR STAMP ADDRESSES.
   8274  fbb1							;*;*;*       CLC;			      ;(CARRY ALREADY CLEAR).
   8275  fbb1		       7d ac ea 	      ADC	TOPZONE,X
   8276  fbb4		       38		      SEC
   8277  fbb5		       e5 d7		      SBC	TEMPYPOS
   8278  fbb7		       91 db		      STA	(DPLOW),Y	;		;VERTICAL POS. OF STAMP ADJUSTED FOR
   8279  fbb9		       c8		      INY		;			      ;  POSITION IN ZONE.
   8280  fbba		       a5 da		      LDA	HEADER3
   8281  fbbc		       91 db		      STA	(DPLOW),Y	;		;HORIZ. POSITION.
   8282  fbbe		       c8		      INY
   8283  fbbf		       94 8b		      STY	LISTSIZ,X
   8284  fbc1				   NXTZLST
   8285  fbc1		       a5 d8		      LDA	HEADER0
   8286  fbc3		       c9 e0		      CMP	#BIGSTAMP
   8287  fbc5		       a5 d7		      LDA	TEMPYPOS	;		 ;SEE IF STAMP OVERLAPS INTO NEXT ZONE.
   8288  fbc7		       90 07		      BCC	ZNXTZLST
   8289  fbc9		       dd ac ea 	      CMP	TOPZONE,X
   8290  fbcc		       90 07		      BCC	ZNXTZ3
   8291  fbce							;*;*;*       SEC
   8292  fbce		       e9 04		      SBC	#4
   8293  fbd0		       dd ac ea    ZNXTZLST   CMP	TOPZONE,X
   8294  fbd3		       b0 03		      BCS	NXTSTAMP
   8295  fbd5		       ca	   ZNXTZ3     DEX
   8296  fbd6		       d0 c4		      BNE	OVERLAPS
   8297  fbd8
   8298  fbd8				   NXTSTAMP
   8299  fbd8		       a4 dd		      LDY	TEMPY
   8300  fbda		       c8		      INY
   8301  fbdb		       c0 12		      CPY	#TOTLSTMP
   8302  fbdd		       90 0c		      BCC	GOGETSTM
   8303  fbdf		       d0 0d		      BNE	TSTPRIOR
   8304  fbe1		       ad ce 1f 	      LDA	FRUITCST	;		 ;FRUIT STAMPS ARE IN CSET1, BUT THEIR
   8305  fbe4		       85 df		      STA	LISTPTR+1	;		;  SCORES ARE IN CSET2.
   8306  fbe6		       ad cf 1f 	      LDA	FRUITPAL	;		 ;PALETTE WIDTH BYTE FOR ALL FRUITS.
   8307  fbe9		       85 d9		      STA	HEADER1
   8308  fbeb		       4c 6b fb    GOGETSTM   JMP	GETSTAMP
   8309  fbee
   8310  fbee		       a5 de	   TSTPRIOR   LDA	LISTPTR	;		  ;HAVE WE MADE BOTH PRIORITY PASSES?
   8311  fbf0		       f0 05		      BEQ	ZPUT0
   8312  fbf2		       c6 de		      DEC	LISTPTR
   8313  fbf4		       4c 65 fb 	      JMP	ZGEN2
   8314  fbf7
   8315  fbf7							;*;*;*;* NOW PUT A 0 IN THE WIDTH OF THE NEXT HEADER IN EACH ZONE.  THIS WILL
   8316  fbf7							;*;*;*;*      SIGNIFY THE END OF THE LIST FOR THAT ZONE.  THE FOLLOWING LOOP
   8317  fbf7							;*;*;*;*      COULD BE COMPACTED TO APPROXIMATELY 33 BYTES, BUT WOULD USE 627
   8318  fbf7							;*;*;*;*      CYCLES.	BY EXPANDING OUT TO THE LARGER LOOP, WE USE 60 BYTES BUT
   8319  fbf7							;*;*;*;*      ONLY 351 CYCLES.  THIS MAKES USE OF THE FACT THAT THERE ARE 4 DISPLAY
   8320  fbf7							;*;*;*;*      LISTS IN A PAGE, AND THE LOW BYTES OF ZONES 15,11,7,3, (OR 14,10,6,2,
   8321  fbf7							;*;*;*;*      ETC.) ARE IDENTICAL.  (SEE DEFINITION OF ZONE ADDRESSES IN DIGDEF).
   8322  fbf7							;*;*;*;*      BY EXPANDING THIS LOOP ALL THE WAY OUT, THE CYCLES COULD BE CUT TO
   8323  fbf7							;*;*;*;*      269, BUT THE BYTES WOULD GROW TO 160.
   8324  fbf7
   8325  fbf7				   ZPUT0
   8326  fbf7		       a2 0f		      LDX	#NUMZONES
   8327  fbf9		       20 1d fc 	      JSR	PUTBLAKB	;		 ;PUT A BLACK BOX IN ZONES 15 AND 14.
   8328  fbfc		       84 9a		      STY	LISTSIZ+15
   8329  fbfe		       a2 0e		      LDX	#14
   8330  fc00		       20 1d fc 	      JSR	PUTBLAKB
   8331  fc03		       84 99		      STY	LISTSIZ+14
   8332  fc05
   8333  fc05		       a2 0f		      LDX	#NUMZONES
   8334  fc07		       20 d6 db    PUTZERO    JSR	SETDPLH
   8335  fc0a		       b4 8b		      LDY	LISTSIZ,X
   8336  fc0c		       c8		      INY
   8337  fc0d		       a9 00		      LDA	#0
   8338  fc0f		       91 db		      STA	(DPLOW),Y
   8339  fc11		       ca		      DEX
   8340  fc12		       d0 f3		      BNE	PUTZERO	;		  ;DON"T TOUCH ZONE 0 (SCORE)!
   8341  fc14
   8342  fc14				   DLFLIP
   8343  fc14		       a5 81		      LDA	DLSTPTR	;		  ;NOW FLIP DLSTPTR SO KERNEL WILL USE
   8344  fc16		       49 40		      EOR	#$40	;		     ;	THE ONE WE JUST CONSTRUCTED.
   8345  fc18		       85 81		      STA	DLSTPTR
   8346  fc1a		       4c ca d1 	      JMP	SCRNON
   8347  fc1d							;*	    LDX     ONSCREEN;		    ;WAIT TILL WE"RE OFF SCREEN.
   8348  fc1d							;*	    BNE     DLFLIP
   8349  fc1d							;*	    BEQ     GETDLST
   8350  fc1d							;*	    INX
   8351  fc1d							;*GETDLST   LDA     LDPPL,X
   8352  fc1d							;*	    STA     DPPL
   8353  fc1d							;*	    LDA     #>DPL0LIST; 	  ;SAME FOR EITHER DPLLIST.
   8354  fc1d							;*	    STA     DPPH
   8355  fc1d							;*	    RTS
   8356  fc1d
   8357  fc1d		       20 d6 db    PUTBLAKB   JSR	SETDPLH
   8358  fc20		       b4 8b		      LDY	LISTSIZ,X	;		;  HALF OF SCREEN.
   8359  fc22		       a2 03		      LDX	#3	;		       ;PUT BLACK BOX IN SKY TO BLOCK LEFT
   8360  fc24		       bd f4 ea    ZPUTBLAK   LDA	BLAKBOX,X	;		;  HALF OF SCREEN.
   8361  fc27		       91 db		      STA	(DPLOW),Y
   8362  fc29		       c8		      INY
   8363  fc2a		       ca		      DEX
   8364  fc2b		       10 f7		      BPL	ZPUTBLAK
   8365  fc2d		       60		      RTS
   8366  fc2e
   8367  fc2e							;* PALETTES FOR STAMPS...
   8368  fc2e							;*VEGPALW
   8369  fc2e							;*	    DC.B      $3E,$3E,$3E,$3E,$3E,$3E;		      ;TEDDY AND VEGGIES...
   8370  fc2e							;*	    DC.B      $3E,$3E,$3E,$3E,$3E,$3E
   8371  fc2e
   8372  fc2e							;*STMPPALW  DC.B      $1E,$1E,$1E,$1E,$1E,$1E; 	       ;R/L DIGDUG.
   8373  fc2e							;*	    DC.B      $1E,$1E,$1E,$5E;			      ;HDEATH1,2,3,ROCK.
   8374  fc2e							;*	    DC.B      $3F,$3E,$3C,$3C,$3A,$3A,$3A;	      ;RFLAME 4(R,L),8,16,24.
   8375  fc2e							;*	    DC.B      $3E,$3C,$3C,$3A,$3A,$3A;		      ;LFLAME 8,16,24.
   8376  fc2e							;*	    DC.B      $3A,$3A,$3C,$3E;			      ;LPUMP24,R24->4
   8377  fc2e							;*	    DC.B      $3B,$3B,$3B,$3C,$3C,$3D,$3E,$3F	     ;LPUMP20,16,12,8,4,OVR.
   8378  fc2e							;*	    DS	    10; 				    ;(8 PIXEL NUMBERS...)
   8379  fc2e							;*	    DC.B      $BE,$1E;				      ;FULLSKY2,BLANK2.
   8380  fc2e							;*	    DC.B      $3E;				      ;TEDDY2.
   8381  fc2e							;*	    DC.B      $7E,$7E;				      ;R,L FLAME FYGAR
   8382  fc2e							;*	    DC.B      $5E,$5E;				      ;R,L HARPOON.
   8383  fc2e							;*	    DC.B      $1E,$1E,$1E,$1E,$1E;		      ;FREE STAMPS!!!
   8384  fc2e							;*	    DC.B      $5E,$5E;				      ;U,D HARPOON.
   8385  fc2e							;*	    DC.B      $3E,$3E,$3E,$3E,$3E,$3E,$3E,$3E	     ;POOKA STAMPS.
   8386  fc2e							;*	    DC.B      $3E,$3E,$3E,$3E
   8387  fc2e							;*	    DC.B      $7E,$7E,$7E,$7E,$7E,$7E,$7E,$7E	     ;FYGAR STAMPS.
   8388  fc2e							;*	    DC.B      $7E,$7E,$7E,$7E
   8389  fc2e							;*	    DC.B      $3E,$3E,$1E,$1E;			      ;POOKA,FYGAR GHOSTS.
   8390  fc2e							;*	    DC.B      $1E,$1E,$1E,$1E,$1E,$1E;		      ;UP/DOWN DIGDUG.
   8391  fc2e							;*	    DC.B      $1E,$7E,$3E;			      ;SQUISH DD,FYGAR,POOKA.
   8392  fc2e							;*	    DC.B      $1E,$1E,$1E,$1E,$5E,$5E,$5E;	      ;VDEATH1,2,3,S,ROCKS.
   8393  fc2e							;*	    DC.B      $3F,$3F,$3F;			      ;DPMP,DFULL,UPMP6,12
   8394  fc2e							;*	    DC.B      $5E,$5E,$5E;			      ;200,300,400
   8395  fc2e							;*	    DC.B      $5E,$5E,$5E;			      ;500,800,1000
   8396  fc2e							;*	    DC.B      $5C,$5C,$5C,$5C,$5C,$5C,$5C,$5C	     ;2500,4000,6000,8000
   8397  fc2e							;*	    DC.B      $5C,$5C,$5C,$5C,$5C,$5C,$5E;	      ;10000,12000,15000,600
   8398  fc2e							;*	    DC.B      $3F;				      ;UFULL6,12
   8399  fc2e
   8400  fc2e							;* PALETTE/WIDTH BYTES FOR ZONE BACKGROUNDS...
   8401  fc2e							;*PALWIDZ   DC.B      $AF;		       ;LIFE/SCORE LINE (BOTTOM)
   8402  fc2e							;*	    DC.B      $EF,$EF,$EF;	      ;DIRT LAYER 3
   8403  fc2e							;*	    DC.B      $CF,$CF,$CF,$CF	     ;DIRT LAYER 2
   8404  fc2e							;*	    DC.B      $AF,$AF,$AF,$AF	     ;DIRT LAYER 1
   8405  fc2e							;*	    DC.B      $8F,$8F,$8F;	      ;DIRT LAYER 0
   8406  fc2e							;*	    DC.B      $AF;		      ;SKY LINE
   8407  fc2e
   8408  fc2e							;*;*;*;*;*;*;*;*;*;*;*;*;*;*;*;*;*;*;*;*;*;*;*;*;*;*;*;*;*;*;*;*;*;*;*;*;*;*;*;*;*;*;*;*;*;*;*;*;*;*;*;*;*;*;*;*;*;*;*;*;*;*;*;*;*;*;*;*;*;*;*;*;*;*;*;*;*;*;*
   8409  fc2e							;*;*;*;*;*;*;*;*;*;*;*;							 ;*;*;*;*;*;*;*;*;*;*;*
   8410  fc2e							;*;*;*;*;*;*;*;*;*;*;*       TITLEPAG:  DRIVER FOR TITLE PAGE ANIMATION.	;*;*;*;*;*;*;*;*;*;*;*
   8411  fc2e							;*;*;*;*;*;*;*;*;*;*;*;		  CONTROL STAYS IN THIS ROUTINE UNTIL	 ;*;*;*;*;*;*;*;*;*;*;*
   8412  fc2e							;*;*;*;*;*;*;*;*;*;*;*;		  TITLE PAGE HAS COMPLETED.  A NEW GAME  ;*;*;*;*;*;*;*;*;*;*;*
   8413  fc2e							;*;*;*;*;*;*;*;*;*;*;*;		  IS THEN INITIALIZED FOR ATTRACT MODE,  ;*;*;*;*;*;*;*;*;*;*;*
   8414  fc2e							;*;*;*;*;*;*;*;*;*;*;*;		  UNLESS THE PLAYER HAS PUSHED RESET,	 ;*;*;*;*;*;*;*;*;*;*;*
   8415  fc2e							;*;*;*;*;*;*;*;*;*;*;*;		  SELECT, OR THE JOYSTICK BUTTON.	 ;*;*;*;*;*;*;*;*;*;*;*
   8416  fc2e							;*;*;*;*;*;*;*;*;*;*;*;							 ;*;*;*;*;*;*;*;*;*;*;*
   8417  fc2e							;*;*;*;*;*;*;*;*;*;*;*;*;*;*;*;*;*;*;*;*;*;*;*;*;*;*;*;*;*;*;*;*;*;*;*;*;*;*;*;*;*;*;*;*;*;*;*;*;*;*;*;*;*;*;*;*;*;*;*;*;*;*;*;*;*;*;*;*;*;*;*;*;*;*;*;*;*;*;*
   8418  fc2e				   ATITLEPA
   8419  fc2e				   TITLEPAG
   8420  fc2e		       20 be d1 	      JSR	SCRNOFF
   8421  fc31
   8422  fc31		       20 9c d6 	      JSR	SETTITLE	;		 ;LOAD TITLEPAG LOGO INTO BOTH DISPLAY
   8423  fc34		       a5 81		      LDA	DLSTPTR	;		  ;  LISTS.
   8424  fc36		       49 40		      EOR	#$40
   8425  fc38		       85 81		      STA	DLSTPTR
   8426  fc3a		       20 9c d6 	      JSR	SETTITLE
   8427  fc3d
   8428  fc3d		       a2 07		      LDX	#NUMCREAT
   8429  fc3f		       bd 37 ee    TITLALL    LDA	TITLCDIR,X
   8430  fc42		       9d 08 21 	      STA	CDIREC,X
   8431  fc45		       bd ef e7 	      LDA	TITLCBOR,X
   8432  fc48		       9d 10 21 	      STA	CBORDER,X
   8433  fc4b		       a9 00		      LDA	#0
   8434  fc4d		       95 b2		      STA	MONSTAT,X
   8435  fc4f		       ca		      DEX
   8436  fc50		       10 ed		      BPL	TITLALL
   8437  fc52		       8d be 1b 	      STA	L0Z0+1	;		   ;SCORE LINE...
   8438  fc55		       8d f1 23 	      STA	IGNORE
   8439  fc58		       85 ad		      STA	TITLETIM
   8440  fc5a
   8441  fc5a		       a2 12		      LDX	#TOTLSTMP
   8442  fc5c		       bd b7 ed    TITLINIT   LDA	TITLYPOS,X
   8443  fc5f		       95 40		      STA	STMPYPOS,X
   8444  fc61		       bd 18 ee 	      LDA	TITLXPOS,X
   8445  fc64		       95 53		      STA	STMPXPOS,X
   8446  fc66		       ca		      DEX
   8447  fc67		       10 f3		      BPL	TITLINIT
   8448  fc69
   8449  fc69		       a2 11		      LDX	#17
   8450  fc6b		       20 72 d6 	      JSR	TITLCOLR
   8451  fc6e		       8d 1d 23 	      STA	P0C0SHAD+22
   8452  fc71
   8453  fc71							;*	    JSR     SCRNON
   8454  fc71
   8455  fc71							;*;*;*;*;*;*;*;*;*;*;* THIS IS THE MAIN LOOP FOR TITLE PAGE:  IT UPDATES THE ANIMATION
   8456  fc71							;*;*;*;*;*;*;*;*;*;*;*       FOR THE BALLOONING DIGDUG, MOVES CREATURES AROUND ON SCREEN,
   8457  fc71							;*;*;*;*;*;*;*;*;*;*;*       AND EVENTUALLY STARTS ROCK FALLING SO CREATURES WILL BE
   8458  fc71							;*;*;*;*;*;*;*;*;*;*;*       CRUSHED.
   8459  fc71				   TLOOP
   8460  fc71		       a5 86		      LDA	FRMCNT
   8461  fc73		       48		      PHA
   8462  fc74
   8463  fc74		       ee 22 23 	      INC	P0C0SHAD+27
   8464  fc77		       a2 0a		      LDX	#10
   8465  fc79		       20 d6 db 	      JSR	SETDPLH
   8466  fc7c
   8467  fc7c		       a9 01		      LDA	#1	;		       ;MOVE CREATURES ON SCREEN.
   8468  fc7e		       85 ce		      STA	TCTEMP
   8469  fc80		       a5 ad		      LDA	TITLETIM	;		 ;ONLY UPDATE EVERY OTHER CYCLE.
   8470  fc82		       4a		      LSR
   8471  fc83		       b0 72		      BCS	TCRTS
   8472  fc85		       4a		      LSR
   8473  fc86		       b0 6f		      BCS	TCRTS
   8474  fc88		       29 07		      AND	#7
   8475  fc8a		       48		      PHA
   8476  fc8b		       c6 ce		      DEC	TCTEMP
   8477  fc8d		       a2 07		      LDX	#NUMCREAT
   8478  fc8f				   CMOVLOOP
   8479  fc8f		       b5 b2		      LDA	MONSTAT,X
   8480  fc91		       30 60		      BMI	NXTCMOVE
   8481  fc93							;*	    AND     #$C0
   8482  fc93							;*	    BNE     NXTCMOVE
   8483  fc93		       e6 ce		      INC	TCTEMP	;		   ;WE HAVE A CREATURE...
   8484  fc95		       bd 08 21 	      LDA	CDIREC,X
   8485  fc98		       4a		      LSR
   8486  fc99		       b0 35		      BCS	CLIMBUP
   8487  fc9b		       a8		      TAY		;			      ;CREATURE IS MOVING LEFT OR RIGHT.
   8488  fc9c		       b5 54		      LDA	POOKAX,X
   8489  fc9e							;*	    CLC
   8490  fc9e		       79 35 c0 	      ADC	CWALK,Y
   8491  fca1		       95 54		      STA	POOKAX,X
   8492  fca3		       c9 96		      CMP	#150
   8493  fca5		       90 07		      BCC	CSTILL
   8494  fca7		       c6 ce		      DEC	TCTEMP
   8495  fca9		       20 8a f1 	      JSR	OFFSCR2	;		  ;SUBR FOUND IN MONSTER FILE
   8496  fcac							;*	    LDA     #$80;		    ;IT RETURNS A 0
   8497  fcac							;*	    STA     MONSTAT,X
   8498  fcac							;*	    ASL
   8499  fcac							;*	    STA     POOKAY,X
   8500  fcac		       f0 45		      BEQ	NXTCMOVE
   8501  fcae		       98	   CSTILL     TYA
   8502  fcaf		       4a		      LSR
   8503  fcb0		       68		      PLA
   8504  fcb1		       48		      PHA
   8505  fcb2		       08		      PHP
   8506  fcb3		       e0 04		      CPX	#4
   8507  fcb5		       90 02		      BCC	HPOOKA
   8508  fcb7		       69 1e		      ADC	#RFYGAR-RPOOKA-1	;WE HAVE A FYGAR.
   8509  fcb9		       a8	   HPOOKA     TAY
   8510  fcba		       28		      PLP
   8511  fcbb		       90 05		      BCC	ACRLEFT
   8512  fcbd		       b9 0b ee 	      LDA	LPOOKA,Y	;		 ; LDA DOESN"T AFFECT CARRY
   8513  fcc0		       b0 03		      BCS	ACRINDX
   8514  fcc2		       b9 02 ee    ACRLEFT    LDA	RPOOKA,Y
   8515  fcc5		       95 67	   ACRINDX    STA	POOKAIX,X
   8516  fcc7		       b5 54		      LDA	POOKAX,X
   8517  fcc9		       dd 10 21 	      CMP	CBORDER,X
   8518  fccc		       d0 25		      BNE	NXTCMOVE
   8519  fcce		       f0 17		      BEQ	NDIREC
   8520  fcd0
   8521  fcd0		       f6 41	   CLIMBUP    INC	POOKAY,X
   8522  fcd2		       68		      PLA
   8523  fcd3		       48		      PHA
   8524  fcd4		       e0 04		      CPX	#4
   8525  fcd6		       90 02		      BCC	UPOOKA
   8526  fcd8		       69 1e		      ADC	#RFYGAR-RPOOKA-1	;WE HAVE AN UP FYGAR.
   8527  fcda		       a8	   UPOOKA     TAY
   8528  fcdb		       b9 0b ee 	      LDA	LPOOKA,Y
   8529  fcde		       95 67		      STA	POOKAIX,X
   8530  fce0		       b5 41		      LDA	POOKAY,X	;		 ;CREATURE MOVING UP.
   8531  fce2		       dd 10 21 	      CMP	CBORDER,X
   8532  fce5		       d0 0c		      BNE	NXTCMOVE
   8533  fce7		       fe 08 21    NDIREC     INC	CDIREC,X	;		 ;MOVE TO NEW DIRECTION.
   8534  fcea		       bc 08 21 	      LDY	CDIREC,X
   8535  fced		       b9 aa e1 	      LDA	CTURNS,Y
   8536  fcf0		       9d 10 21 	      STA	CBORDER,X
   8537  fcf3
   8538  fcf3		       ca	   NXTCMOVE   DEX
   8539  fcf4		       10 99		      BPL	CMOVLOOP
   8540  fcf6		       68		      PLA
   8541  fcf7
   8542  fcf7		       a5 ce	   TCRTS      LDA	TCTEMP	;		   ;IF 0 UPON RETURN FROM TCMOVE,
   8543  fcf9		       f0 1c		      BEQ	TITLEDON	;		 ;  CREATURES ALL WALKED OFF SCREEN.
   8544  fcfb
   8545  fcfb		       68		      PLA
   8546  fcfc		       c5 86	   TWAITFRM   CMP	FRMCNT
   8547  fcfe		       f0 fc		      BEQ	TWAITFRM
   8548  fd00
   8549  fd00		       a2 0f		      LDX	#NUMZONES
   8550  fd02		       bd bd ea    TITLLIST   LDA	TLISTSIZ,X
   8551  fd05		       95 8b		      STA	LISTSIZ,X
   8552  fd07		       ca		      DEX
   8553  fd08		       10 f8		      BPL	TITLLIST
   8554  fd0a		       20 61 fb 	      JSR	GENDPL2
   8555  fd0d
   8556  fd0d							;*;*;*;*;*;*;*;*;*;*;* READ THE JOYSTICK BUTTON, RESET, AND SELECT:  SINCE THIS IS
   8557  fd0d							;*;*;*;*;*;*;*;*;*;*;*       PRECISELY WHAT CHKSTATE DOES EVERY TIME THROUGH PLAYGAME
   8558  fd0d							;*;*;*;*;*;*;*;*;*;*;*       LOOP IN MAIN, JUST CALL IT HERE.	IF ANY OF THE BUTTONS
   8559  fd0d							;*;*;*;*;*;*;*;*;*;*;*       ARE PRESSED, WE WILL LEAVE ATTRACT MODE (AND THUS TITLE PAGE).
   8560  fd0d
   8561  fd0d		       20 6d de 	      JSR	CHKSTATE
   8562  fd10		       a5 a0		      LDA	ATTRACT
   8563  fd12		       f0 36		      BEQ	TITLEND
   8564  fd14		       4c 71 fc 	      JMP	TLOOP
   8565  fd17
   8566  fd17							;*;*;*;*;*;*;*;*;*;*;* WE FINISHED ANIMATION BUT WE"RE STILL IN ATTRACT MODE:	SET UP
   8567  fd17							;*;*;*;*;*;*;*;*;*;*;*       NEW SAMPLE GAME FOR CONTINUATION OF ATTRACT MODE.
   8568  fd17
   8569  fd17				   TITLEDON
   8570  fd17		       68	   ATITLEDO   PLA
   8571  fd18		       20 f9 e9 	      JSR	SETRACK1	;		 ;RETURNS 1 IN A.
   8572  fd1b							;*;*	     LDA     #1;		     ;BONZO
   8573  fd1b		       20 b1 dd 	      JSR	HSCINIT
   8574  fd1e		       8a		      TXA
   8575  fd1f		       d0 0a		      BNE	TRYTEDDY
   8576  fd21		       a2 00		      LDX	#<HSCRAM
   8577  fd23		       a0 26		      LDY	#>HSCRAM
   8578  fd25		       20 fa 3f 	      JSR	HSCATRCT
   8579  fd28		       20 87 dd 	      JSR	HSCDISPL	;		 ;DISPLAY HIGH SCORE FOR 10 SECONDS.
   8580  fd2b		       a9 00	   TRYTEDDY   LDA	#0	;		       ;PINEAPPLE MODE
   8581  fd2d		       20 b1 dd 	      JSR	HSCINIT
   8582  fd30		       8a		      TXA
   8583  fd31		       d0 0a		      BNE	ATTNOHSC
   8584  fd33							;*;*;*       LDX     #<HSCRAM; 	    ;X CONTAINS 0 ALREADY...
   8585  fd33		       a0 26		      LDY	#>HSCRAM
   8586  fd35		       20 fa 3f 	      JSR	HSCATRCT
   8587  fd38		       20 87 dd 	      JSR	HSCDISPL
   8588  fd3b		       a2 01	   HSCSTOP    LDX	#1
   8589  fd3d		       4c 09 df    ATTNOHSC   JMP	NEWAGAME	;		 ;NEWAGAME IS A SUBR
   8590  fd40
   8591  fd40		       38	   BORE       SEC		;			      ;ALSO USED BY DDMOVE
   8592  fd41		       e9 24		      SBC	#36
   8593  fd43		       4a	   BORE1      LSR
   8594  fd44		       a8		      TAY
   8595  fd45		       b1 cf		      LDA	(DRTPTR),Y
   8596  fd47		       9d 00 26 	      STA	DIRTMAP,X
   8597  fd4a		       60	   TITLEND    RTS
   8598  fd4b
   8599  fd4b
   8600  fd4b				   TEMPLATE
   8601  fd4b		       64 dc e0 1c*	      DC.B	TITLED10,$DC,CSET1,28,TITLEI10,$DE,CSET1,44
   8602  fd53		       6c dc e0 34*	      DC.B	TITLEG10,$DC,CSET1,52,TITLED10,$DC,CSET1,84
   8603  fd5b		       74 dc e0 64*	      DC.B	TITLEU10,$DC,CSET1,100,TITLEG10,$DC,CSET1,116
   8604  fd63		       7c 9c e0 44	      DC.B	TDDUG10,$9C,CSET1,68
   8605  fd67		       00 00		      DC.B	0,0
   8606  fd69		       5a 7e c4 26*	      DC.B	LETRL,$7E,CSET2,38,LETRE,$7E,CSET2,46,LETRV,$7E,CSET2,54
   8607  fd75		       5c 7e c4 3e*	      DC.B	LETRE,$7E,CSET2,62,LETRL,$7E,CSET2,70,PINEAPPL,$BE,CSET1,104
   8608  fd81		       00 00		      DC.B	0,0
   8609  fd83		       4e 7e e0 56	      DC.B	LETRS,$7E,CSET1,86
   8610  fd87		       60 7e c4 26*	      DC.B	LETRP,$7E,CSET2,38,LETRL,$7E,CSET2,46,LETRA,$7E,CSET1,54
   8611  fd93		       52 7e e0 3e*	      DC.B	LETRY,$7E,CSET1,62,LETRE,$7E,CSET2,70,LETRR,$7E,CSET1,78
   8612  fd9f		       98 7e e0 68	      DC.B	FULL0+2,$7E,CSET1,104
   8613  fda3		       00 00		      DC.B	0,0
   8614  fda5		       54 7e e0 2c*	      DC.B	LETRG,$7E,CSET1,44,LETRA,$7E,CSET1,52,LETRM,$7E,CSET1,60
   8615  fdb1		       5c 7e c4 44*	      DC.B	LETRE,$7E,CSET2,68,LETRO,$7E,CSET2,84,LETRV,$7E,CSET2,92
   8616  fdbd		       5c 7e c4 64*	      DC.B	LETRE,$7E,CSET2,100,LETRR,$7E,CSET1,108
   8617  fdc5		       00 00		      DC.B	0,0
   8618  fdc7		       68 dc e0 1c*	      DC.B	TITLED9,$DC,CSET1,28,TITLEI9,$DE,CSET1,44
   8619  fdcf		       70 dc e0 34*	      DC.B	TITLEG9,$DC,CSET1,52,TITLED9,$DC,CSET1,84
   8620  fdd7		       78 dc e0 64*	      DC.B	TITLEU9,$DC,CSET1,100,TITLEG9,$DC,CSET1,116
   8621  fddf		       80 9c e0 44	      DC.B	TDDUG9,$9C,CSET1,68
   8622  fde3		       00 00		      DC.B	0,0
   8623  fde5		       58 3a e0 24*	      DC.B	ATARICP,$3A,CSET1,36,NAMCOCP,$3A,CSET1,95,0,0
   8624  fdef
   8625  fdef							;;;;;;;;;;;;;;;;;;;;;;;;;;;;;;;;;;;;;;;;;;;;;;;;;;;;;;;;;;;;;;;;;;;;;;;;;;;;;;;
   8626  fdef							;;;;;;;;;;;;;;;						   ;;;;;;;;;;;;;;
   8627  fdef							;;;;;;;;;;;;;;    SOUND;					   ;;;;;;;;;;;;;;
   8628  fdef							;;;;;;;;;;;;;;;						   ;;;;;;;;;;;;;;
   8629  fdef							;;;;;;;;;;;;;;;						   ;;;;;;;;;;;;;;
   8630  fdef							;;;;;;;;;;;;;;;						   ;;;;;;;;;;;;;;
   8631  fdef							;;;;;;;;;;;;;;;						   ;;;;;;;;;;;;;;
   8632  fdef							;;;;;;;;;;;;;;;;;;;;;;;;;;;;;;;;;;;;;;;;;;;;;;;;;;;;;;;;;;;;;;;;;;;;;;;;;;;;;;;
   8633  fdef
   8634  fdef
   8635  fdef							; SONGS
   8636  fdef							;________________LEN___C0__C1___________________________________________________
   8637  fdef							; 0	   ;					      NO SONG ACTIVE
   8638  fdef							;_______________________________________________________________________________
   8639  fdef							; 1	SNGC	   24	4  0  0  1  3  0;	    CREATURE MOVEMENT
   8640  fdef							;_______________________________________________________________________________
   8641  fdef							; 2	SNGD	   63	4  0D  1  2  2	2;	     SLOW DIGDUG
   8642  fdef							;_______________________________________________________________________________
   8643  fdef							; 3	SNGD	   63	4  0D  1  1  2	2;	     FAST DIGDUG
   8644  fdef							;_______________________________________________________________________________
   8645  fdef							; 4	SNGNULL    8   0  0  0	7  0  0;	   THE SOUND OF SILENCE
   8646  fdef							;_______________________________________________________________________________
   8647  fdef							; 5	SNG1	   8   1  1  1	1  3  3;	   ROCK CRUSHING MONSTER
   8648  fdef							;_______________________________________________________________________________
   8649  fdef							; 6	SNG2	   8   0D  0  0  1  3  0;	    ROCK HITTING GROUND/DIGDUG
   8650  fdef							;_______________________________________________________________________________
   8651  fdef							; 7	SNG3	   10	7  4  1  1  3  3;	    FLAME NOISE
   8652  fdef							;_______________________________________________________________________________
   8653  fdef							; 8	SNG5	   9   4  0  0	2  3  0;	   DIGDUG THROWING HARPOON
   8654  fdef							;_______________________________________________________________________________
   8655  fdef							; 9	SNG4	   24	4  0  0  0  0  0;	    PUMP CREATURE
   8656  fdef							;_______________________________________________________________________________
   8657  fdef							;10	SNG6	   20	4  0  0  0  4  0;	    POP CREATURE
   8658  fdef							;_______________________________________________________________________________
   8659  fdef							;11	SNG7	   8   0  0  0	2  7  0;	   ROCK FALLING
   8660  fdef							;_______________________________________________________________________________
   8661  fdef							;12	SNG8	   5   4  0D  1  3  4  7;	    GOTCHA SOUND
   8662  fdef							;_______________________________________________________________________________
   8663  fdef							;13	SNG9	   31	4  0D  1  3  4	3;	     CREATURE ESCAPING
   8664  fdef							;_______________________________________________________________________________
   8665  fdef							;14	SNG10	   6   4  0  0	2  7  0;	   EAT VEGETABLE
   8666  fdef							;_______________________________________________________________________________
   8667  fdef							;15	SNG11	   12	4  0  0  6  5  0;	    BONUS MAN
   8668  fdef							;_______________________________________________________________________________
   8669  fdef							;16	SNG12	   23	0D  0D	1  3  3  3;	      SPEEDUP MUSIC
   8670  fdef							;_______________________________________________________________________________
   8671  fdef							;17	SNG13	   21	4  0D  1  6  4	4;	     RACKEND
   8672  fdef							;_______________________________________________________________________________
   8673  fdef							;18	SNG14	   16	0D  0D	1  3  0  0;	      DIGDUG DEATH
   8674  fdef							;_______________________________________________________________________________
   8675  fdef							;19	SNG15	   63	4  0D  1  4  4	4;	     ENTRANCE
   8676  fdef							;_______________________________________________________________________________
   8677  fdef
   8678  fdef
   8679  fdef
   8680  fdef
   8681  fdef		       c4 7f	   NOISE      CPY	SNGTEMP1	;		 ;REQUEST SOUND
   8682  fdf1		       90 02		      BCC	NOISE5
   8683  fdf3		       84 7f		      STY	SNGTEMP1	;		 ;HIGHEST PRIORITY OVERRIDES
   8684  fdf5				   NOISE5
   8685  fdf5							;*	    RTS;			    ;ASSUME RTS FOLLOWS DIRECTLY
   8686  fdf5
   8687  fdf5		       60	   GLVSOUND   RTS
   8688  fdf6		       20 f3 e5    DNEWSONG   JSR	SAVDUN	;		   ;SAVE CURRENT DD INFO (USES A AND Y)
   8689  fdf9		       4c 2b ff    GNEWSONG   JMP	NEWSONG
   8690  fdfc				   SOUND
   8691  fdfc							;*	    LDA     ENTRY;		    ;UPDATE SECOND TIMER
   8692  fdfc							;*	    BNE     NOTSEC
   8693  fdfc		       a5 86		      LDA	FRMCNT
   8694  fdfe		       cd 06 23 	      CMP	NXTSEC
   8695  fe01		       d0 17		      BNE	NOTSEC
   8696  fe03							;*	    CLC;			    ;CARRY IS SET
   8697  fe03		       69 3b		      ADC	#60-1	;		    ;CHANGE FOR PAL/SECAM
   8698  fe05		       8d 06 23 	      STA	NXTSEC
   8699  fe08		       e6 f3		      INC	SCNDTIM
   8700  fe0a		       ad 01 23 	      LDA	SPEEDUP
   8701  fe0d		       f0 03		      BEQ	NOTSECA
   8702  fe0f		       ce 01 23 	      DEC	SPEEDUP
   8703  fe12		       ad 03 23    NOTSECA    LDA	GHOSTOUT
   8704  fe15		       f0 03		      BEQ	NOTSEC
   8705  fe17		       ce 03 23 	      DEC	GHOSTOUT
   8706  fe1a				   NOTSEC
   8707  fe1a		       a5 a8		      LDA	NONOISE	;		  ;OK TO MAKE NOISE?
   8708  fe1c		       f0 0b		      BEQ	SOUND2
   8709  fe1e		       a9 00		      LDA	#0	;		       ;IF NOT, SHUT OFF NOISE
   8710  fe20		       85 19		      STA	AUDV0
   8711  fe22		       85 1a		      STA	AUDV1
   8712  fe24		       85 7e		      STA	CURSONG
   8713  fe26		       85 7f		      STA	SNGTEMP1
   8714  fe28		       60	   HLVSOUND   RTS
   8715  fe29							;
   8716  fe29		       a5 7e	   SOUND2     LDA	CURSONG	;		  ;HIGHER PRIORITY SOUNDS OVERRIDE LOWER
   8717  fe2b		       c5 7f		      CMP	SNGTEMP1	;		 ;SONGS DON"T INTERRUPT THEMSELVES
   8718  fe2d		       d0 0a		      BNE	SOUND2A
   8719  fe2f		       c9 05		      CMP	#SNG1	;		    ;ROCK CRUSHING CREATURE? --- ALLOWED
   8720  fe31		       f0 08		      BEQ	SOUND2B	;		  ;	TO OVERRIDE ITSELF (SPECIAL CASE)
   8721  fe33		       c9 09		      CMP	#SNG4	;		    ;INFLATING CREATURE? --- ALLOWED
   8722  fe35		       f0 04		      BEQ	SOUND2B	;		  ;	TO OVERRIDE ITSELF (SPECIAL CASE)
   8723  fe37		       d0 27		      BNE	SOUNDOK
   8724  fe39		       b0 25	   SOUND2A    BCS	SOUNDOK
   8725  fe3b		       20 bf e2    SOUND2B    JSR	DIGSONG	;		  ;CURRENT SONG IS DD MUSIC? (USES A)
   8726  fe3e		       d0 03		      BNE	SOUND2C
   8727  fe40		       20 f3 e5 	      JSR	SAVDUN	;		   ;SAVE DIGDUG MUSIC INFO (USES A AND Y)
   8728  fe43		       a5 7f	   SOUND2C    LDA	SNGTEMP1	;		 ;START NEW SONG
   8729  fe45		       85 7e		      STA	CURSONG
   8730  fe47		       a0 00		      LDY	#0
   8731  fe49		       84 7f		      STY	SNGTEMP1
   8732  fe4b		       20 bf e2 	      JSR	DIGSONG	;		  ;CURRENT SONG IS NOT DD MUSIC? (USES A)
   8733  fe4e		       f0 05		      BEQ	SNGCON
   8734  fe50		       20 67 ff 	      JSR	INITALLS	;		 ;SETS A TO 0, USES Y
   8735  fe53		       30 0b		      BMI	SOUNDOK
   8736  fe55		       a0 06	   SNGCON     LDY	#6	;		       ;RESTORE DIGDUG MUSIC INFO
   8737  fe57		       b9 50 23    SNGCON2    LDA	DURINDX0,Y
   8738  fe5a		       99 f4 00 	      STA	CURINDX0,Y
   8739  fe5d		       88		      DEY
   8740  fe5e		       10 f7		      BPL	SNGCON2
   8741  fe60
   8742  fe60		       a5 7e	   SOUNDOK    LDA	CURSONG
   8743  fe62		       f0 95	   HNEWSONG   BEQ	GNEWSONG
   8744  fe64
   8745  fe64		       20 bf e2 	      JSR	DIGSONG	;		  ;DIGDUG MUSIC?  (USES A)
   8746  fe67		       d0 0a		      BNE	SOUND1C
   8747  fe69		       a5 ed	   SOUND1A    LDA	WALKING
   8748  fe6b		       f0 89		      BEQ	DNEWSONG
   8749  fe6d		       a5 84		      LDA	DETHWISH
   8750  fe6f		       05 83		      ORA	DEATH
   8751  fe71		       d0 83		      BNE	DNEWSONG
   8752  fe73				   SOUND1C
   8753  fe73
   8754  fe73		       c6 f8		      DEC	DURCTR	;		   ;NOTE DONE?
   8755  fe75		       10 b1		      BPL	HLVSOUND
   8756  fe77		       a6 7e		      LDX	CURSONG	;		  ;CURRENT SONG
   8757  fe79		       bd b1 e9 	      LDA	SNGHBF0,X
   8758  fe7c		       85 7a		      STA	SNGPTR+1
   8759  fe7e		       c6 f4		      DEC	CURINDX0	;		 ;BYTE DONE?
   8760  fe80		       10 5c		      BPL	SETDUR
   8761  fe82		       24 f6		      BIT	REST0	;		    ;REST?
   8762  fe84		       10 0a		      BPL	NEWBYTF0
   8763  fe86		       a9 00		      LDA	#0
   8764  fe88		       85 f6		      STA	REST0
   8765  fe8a		       85 19		      STA	AUDV0
   8766  fe8c		       85 f4		      STA	CURINDX0
   8767  fe8e		       10 4e		      BPL	SETDUR
   8768  fe90		       e6 f9	   NEWBYTF0   INC	TUNINDX0	;		 ;DECODE NEXT BYTE
   8769  fe92		       a4 f9		      LDY	TUNINDX0
   8770  fe94		       98		      TYA
   8771  fe95		       dd 3b c0 	      CMP	SNGLEN,X	;		 ;CURRENT SONG DONE?
   8772  fe98		       d0 0c		      BNE	NOTDONE
   8773  fe9a		       8a		      TXA
   8774  fe9b		       20 bf e2 	      JSR	DIGSONG	;		  ;DIGDUG MUSIC? (USES A)
   8775  fe9e		       d0 03		      BNE	JNEWSONG
   8776  fea0		       20 ef e3 	      JSR	INITDIGS
   8777  fea3		       4c 2b ff    JNEWSONG   JMP	NEWSONG
   8778  fea6		       bd 00 c2    NOTDONE    LDA	SNGLBF0,X
   8779  fea9		       85 79		      STA	SNGPTR
   8780  feab		       b1 79		      LDA	(SNGPTR),Y
   8781  fead		       85 f6		      STA	REST0
   8782  feaf		       85 17		      STA	AUDF0	;		    ;SET FREQUENCY 0
   8783  feb1		       29 60		      AND	#$60
   8784  feb3							;*	    CLC
   8785  feb3							;*	    ROL
   8786  feb3		       0a		      ASL
   8787  feb4		       2a		      ROL
   8788  feb5		       2a		      ROL
   8789  feb6		       2a		      ROL
   8790  feb7		       85 f4		      STA	CURINDX0
   8791  feb9		       b1 79		      LDA	(SNGPTR),Y
   8792  febb		       29 1f		      AND	#$1F	;		     ;FREQUENCY OF 0 MEANS VOLUME OF 0
   8793  febd		       f0 11		      BEQ	SETVOL0
   8794  febf		       bd 39 c2 	      LDA	SNGVV0,X	;		 ;ABNORMAL CASE FOR VOLUME?
   8795  fec2		       29 0f		      AND	#$0F
   8796  fec4		       d0 0a		      BNE	SETVOL0
   8797  fec6		       b9 71 ec 	      LDA	SNG4V0,Y
   8798  fec9		       e0 09		      CPX	#SNG4	;		    ; FOR NOW .....
   8799  fecb		       f0 03		      BEQ	SETVOL0
   8800  fecd		       b9 38 ec 	      LDA	SNG14V0,Y
   8801  fed0		       85 19	   SETVOL0    STA	AUDV0	;		    ;SET VOLUME 0
   8802  fed2		       bd 26 c2 	      LDA	SNGC0,X	;		  ;ABNORMAL CASE FOR CONTROL?
   8803  fed5		       29 0f		      AND	#$0F
   8804  fed7		       d0 03		      BNE	SETCON0
   8805  fed9		       b9 69 ec 	      LDA	SNG7C0,Y
   8806  fedc		       85 15	   SETCON0    STA	AUDC0	;		    ;SET CONTROL 0
   8807  fede		       bd 4e c0    SETDUR     LDA	SNGDM,X	;		  ;SET NOTE DURATION
   8808  fee1		       85 f8		      STA	DURCTR
   8809  fee3							;
   8810  fee3							; SECOND VOICE
   8811  fee3		       bd 13 c2 	      LDA	SNGLBF1,X	;		;SECOND VOICE NEEDED
   8812  fee6		       f0 10		      BEQ	KILLVC2
   8813  fee8		       85 79		      STA	SNGPTR
   8814  feea		       c6 f5	   NEWNOTF1   DEC	CURINDX1	;		 ;BYTE DONE?
   8815  feec		       10 3c		      BPL	LVSOUND
   8816  feee		       24 f7		      BIT	REST1	;		    ;REST?
   8817  fef0		       10 09		      BPL	NEWBYTF1
   8818  fef2		       a9 00		      LDA	#0
   8819  fef4		       85 f7		      STA	REST1
   8820  fef6		       85 f5		      STA	CURINDX1
   8821  fef8		       85 1a	   KILLVC2    STA	AUDV1
   8822  fefa		       60		      RTS
   8823  fefb		       e6 fa	   NEWBYTF1   INC	TUNINDX1	;		 ;DECODE NEXT BYTE
   8824  fefd		       a4 fa		      LDY	TUNINDX1
   8825  feff		       b1 79		      LDA	(SNGPTR),Y
   8826  ff01		       85 f7		      STA	REST1
   8827  ff03		       85 18		      STA	AUDF1	;		    ;SET FREQUENCY 1
   8828  ff05		       29 60		      AND	#$60
   8829  ff07							;*	    CLC
   8830  ff07							;*	    ROL
   8831  ff07		       0a		      ASL
   8832  ff08		       2a		      ROL
   8833  ff09		       2a		      ROL
   8834  ff0a		       2a		      ROL
   8835  ff0b		       85 f5		      STA	CURINDX1
   8836  ff0d		       b1 79		      LDA	(SNGPTR),Y
   8837  ff0f		       29 1f		      AND	#$1F	;		     ;FREQUENCY OF 0 MEANS VOLUME OF 0
   8838  ff11		       f0 0c		      BEQ	SETVOL1
   8839  ff13		       bd 39 c2 	      LDA	SNGVV0,X	;		 ;ABNORMAL CASE FOR VOLUME?
   8840  ff16		       4a		      LSR
   8841  ff17		       4a		      LSR
   8842  ff18		       4a		      LSR
   8843  ff19		       4a		      LSR
   8844  ff1a		       d0 03		      BNE	SETVOL1
   8845  ff1c		       b9 54 ec 	      LDA	SNG14V1,Y
   8846  ff1f		       85 1a	   SETVOL1    STA	AUDV1	;		    ;SET VOLUME 1
   8847  ff21		       bd 26 c2 	      LDA	SNGC0,X
   8848  ff24		       4a		      LSR
   8849  ff25		       4a		      LSR
   8850  ff26		       4a		      LSR
   8851  ff27		       4a		      LSR
   8852  ff28		       85 16		      STA	AUDC1	;		    ;SET CONTROL 1
   8853  ff2a		       60	   LVSOUND    RTS
   8854  ff2b
   8855  ff2b				   NEWSONG
   8856  ff2b		       a9 00		      LDA	#0
   8857  ff2d		       85 19		      STA	AUDV0
   8858  ff2f		       85 1a		      STA	AUDV1
   8859  ff31		       85 7f		      STA	SNGTEMP1
   8860  ff33
   8861  ff33		       a6 7e		      LDX	CURSONG
   8862  ff35		       85 7e		      STA	CURSONG
   8863  ff37		       e0 05		      CPX	#5	;		       ;SPACE SOUNDS
   8864  ff39		       b0 24		      BCS	SOUND14A
   8865  ff3b		       a5 84		      LDA	DETHWISH
   8866  ff3d		       05 83		      ORA	DEATH
   8867  ff3f		       05 e3		      ORA	SQUASH
   8868  ff41		       05 85		      ORA	ENTRY
   8869  ff43		       d0 1a		      BNE	SOUND14A
   8870  ff45		       a5 ed		      LDA	WALKING
   8871  ff47		       f0 0e		      BEQ	SOUND14
   8872  ff49		       ad 05 23 	      LDA	FAST
   8873  ff4c		       a0 02		      LDY	#SNGD
   8874  ff4e		       05 e9		      ORA	ESCAPER
   8875  ff50		       f0 02		      BEQ	SOUND13A
   8876  ff52		       a0 03		      LDY	#SNGDF
   8877  ff54		       4c ef fd    SOUND13A   JMP	NOISE	;		    ;NOISE IS A SUBR
   8878  ff57		       e0 04	   SOUND14    CPX	#SNGNULL	;		 ;SOUND JUST ENDED IS SILENCE?
   8879  ff59		       f0 08		      BEQ	SOUND15
   8880  ff5b		       e0 01		      CPX	#SNGC	;		    ;SOUND JUST ENDED IS CMOVEMENT?
   8881  ff5d		       f0 04		      BEQ	SOUND15
   8882  ff5f		       a0 04	   SOUND14A   LDY	#SNGNULL	;		 ;SOUND OF SILENCE
   8883  ff61		       10 f1		      BPL	SOUND13A
   8884  ff63		       a0 01	   SOUND15    LDY	#SNGC	;		    ;START UP CRITTER MOVE NOISE
   8885  ff65		       10 ed		      BPL	SOUND13A
   8886  ff67
   8887  ff67
   8888  ff67		       a0 04	   INITALLS   LDY	#4
   8889  ff69		       a9 00		      LDA	#0
   8890  ff6b		       99 f4 00    INITSND    STA	CURINDX0,Y
   8891  ff6e		       88		      DEY
   8892  ff6f		       10 fa		      BPL	INITSND
   8893  ff71		       84 f9		      STY	TUNINDX0
   8894  ff73		       84 fa		      STY	TUNINDX1
   8895  ff75		       60		      RTS
   8896  ff76
   8897  ff76		       47 43 43 28*COPYRGHT   DC.B	$47,$43,$43,$28,$43,$29,$31,$39,$38,$34
   8898  ff80
   8899  ff80				   ENDSOUND
   8900  ff80				   ENDE000
   8901  ff80					      ORG	$FF80
   8902  ff80		       00 00 00 00*	      DC.B	0,0,0,0,0,0,0,0,0,0,0,0,0,0,0,0
   8903  ff90		       00 00 00 00*	      DC.B	0,0,0,0,0,0,0,0,0,0,0,0,0,0,0,0
   8904  ffa0		       00 00 00 00*	      DC.B	0,0,0,0,0,0,0,0,0,0,0,0,0,0,0,0
   8905  ffb0		       00 00 00 00*	      DC.B	0,0,0,0,0,0,0,0,0,0,0,0,0,0,0,0
   8906  ffc0		       00 00 00 00*	      DC.B	0,0,0,0,0,0,0,0,0,0,0,0,0,0,0,0
   8907  ffd0		       00 00 00 00*	      DC.B	0,0,0,0,0,0,0,0,0,0,0,0,0,0,0,0
   8908  ffe0		       00 00 00 00*	      DC.B	0,0,0,0,0,0,0,0,0,0,0,0,0,0,0,0
   8909  fff0		       00 00 00 00*	      DC.B	0,0,0,0,0,0,0,0
   8910  fff8
   8911  fff8					      ORG	$FFF8
   8912  fff8		       ff		      DC.B	$FF	;		      ;COUNTRY CODE
   8913  fff9		       c7		      DC.B	$C7	;		      ;MARIA SIGNATURE AND START OF CODE
   8914  fffa							;*	   ;				    ;DLI VECTOR:  THIS LOCATION IS A
   8915  fffa							;*	   ;				    ;  JMP TO LOCATION IN RAM (DLIJMP).
   8916  fffa		       5f c1		      DC.B	<GENEJMP,>GENEJMP	;  JUMP ADDRESS IS CHANGED AS DMA
   8917  fffc							;				 ;  MOVES DOWN SCREEN.
   8918  fffc					      ORG	$FFFC
   8919  fffc		       00 d0		      DC.B	<MAIN,>MAIN	;INTERRUPT RESET VECTOR.
   8920  fffe		       d8 ee		      DC.B	<GENERTI,>GENERTI	;JUST IN CASE....
   8921  10000				    END
