------- FILE GLOAD.ASM LEVEL 1 PASS 2
      1  10000					       processor	6502
      2  10000 ????						; JU
      3  10000 ????						; MGG;GRAPHA.S,R:M1:$
      4  10000 ????						; MGG;GRAPHB.S,R:M1:$
      5  10000 ????						; MGG;GLOADER.S,R:$
      6  10000 ????						; MGG;GMAIN.S,R:$
      7  10000 ????						; MGG;GMIV.S,R:$
      8  10000 ????						; MGG;GSCORE.S,R:$
      9  10000 ????						; MGG;GDAC1.S,R:$
     10  10000 ????						; MGG;GDAC2.S,R:$
     11  10000 ????						; MGG;GDAC3.S,R:$
     12  10000 ????						; MGG;GDAC4.S,R:$
     13  10000 ????						; MGG;DOALL,R:M1:$
     14  10000 ????						; MGG;SET,R:M1:$
     15  10000 ????						; MGG;GAME.Z,R:$
     16  10000 ????				       SEG	ROM
     17  0000				   HEADER     ORG	$0000
     18  0000		       01		      DC.B	1	; 0   Header version	  - 1 byte
     19  0001		       41 54 41 52*	      DC.B	"ATARI7800"	; 1..16  "ATARI7800   "  - 16 bytes
     20  000a		       20 20 20 20*	      DS	7,32
     21  0011							; DC.B    "Test"; 17..48 Cart title	  - 32 bytes
     22  0011		       00 00 00 00*	      DS	HEADER+49-.,0
     23  0031							; Hack of changing the 256->code line to the $00,$00,$80,$00 code line
     24  0031							; added by Aaron Lanterman, 9/4/2020, to stop assembler from complaining...
     25  0031							; Basically, I'm telling it you have a 32K cartridge, but that doesn't
     26  0031							; seem to break the emulator (at least)
     27  0031		       00 00 80 00	      DC.B	$00,$00,$80,$00	;
     28  0035							;DC.B	  $00,$00,256->code,$00; 49..52 data length	 - 4 bytes
     29  0035		       00 00		      DC.B	$00,$00	; 53..54 cart type	 - 2 bytes
     30  0037							;    bit 0 - pokey at $4000
     31  0037							;    bit 1 - supergame bank switched
     32  0037							;    bit 2 - supergame ram at $4000
     33  0037							;    bit 3 - rom at $4000
     34  0037							;    bit 4 - bank 6 at $4000
     35  0037							;    bit 5 - supergame banked ram
     36  0037							;    bit 6 - pokey at $450
     37  0037							;    bit 7 - mirror ram at $4000
     38  0037							;    bit 8-15 - Special
     39  0037							;   0 = Normal cart
     40  0037		       01		      DC.B	1	; 55	controller 1 type  - 1 byte
     41  0038		       01		      DC.B	1	; 56	controller 2 type  - 1 byte
     42  0039							;    0 = None
     43  0039							;    1 = Joystick
     44  0039							;    2 = Light Gun
     45  0039		       00		      DC.B	0	; 57 0 = NTSC 1 = PA
     46  003a		       00		      DC.B	0	; 58	Save data peripheral - 1 byte (version 2)
     47  003b							;    0 = None / unknown (default)
     48  003b							;    1 = High Score Cart (HSC)
     49  003b							;    2 = SaveKey
     50  003f					      ORG	HEADER+63
     51  003f		       00		      DC.B	0	; 63	Expansion module
     52  0040							;    0 = No expansion module (default on all currently released games)
     53  0040							;    1 = Expansion module required
     54  0040							; ORG	   HEADER+100	   ; 100..127 "ACTUAL CART DATA STARTS HERE" - 28 bytes
     55  0040							; DC.B    "ACTUAL CART DATA STARTS HERE"
     56  0040							; end of header code for the simulator added by Aaron Lanterman
     57  0040
------- FILE GRAPHA1.ASM LEVEL 2 PASS 2
      0  0040					      include	"GRAPHA1.ASM"
      1  0040							;GRAPHA.S
      2  0040							;;*;*;*;*;*;*;*;*;*;*;*;*;*;*;*;*;*;*;*;*;*;*;*;*;*;*;*;*;*;*;*;*;*;*;*;*;*;*;*;*;*;*;*;*;*;*;*;*;*;*;*;*;*;*;*;*;*;*;*;*;*;*;*;*;*;*;*;*;*;*;*;*;*;*;*;*;*;*;*
      3  0040
      4  0040							;	  THE NECESSARY PROLOG FOR MARIA CODE
      5  0040
      6  0040							;;*;*;*;*;*;*;*;*;*;*;*;*;*;*;*;*;*;*;*;*;*;*;*;*;*;*;*;*;*;*;*;*;*;*;*;*;*;*;*;*;*;*;*;*;*;*;*;*;*;*;*;*;*;*;*;*;*;*;*;*;*;*;*;*;*;*;*;*;*;*;*;*;*;*;*;*;*;*;*
      7  0040							;  STELLA (TIA) REGISTER ADDRESSES
      8  0040							; NOTE THESE REGISTERS ARE SHADOWED AT 100 TO 11F
      9  0040							;	   ;				 200 TO 21F
     10  0040							;	   ;				 300 TO 31F
     11  0040							;;*;*;*;*;*;*;*;*;*;*;*;*;*;*;*;*;*;*;*;*;*;*;*;*;*;*;*;*;*;*;*;*;*;*;*;*;*;*;*;*;*;*;*;*;*;*;*;*;*;*;*;*;*;*;*;*;*;*;*;*;*;*;*;*;*;*;*;*;*;*;*;*;*;*;*;*;*;*;*
     12  0040
     13  0040		       00 15	   AUDC0      EQU	$15	;BITS	   3210 AUDIO CONTROL 0
     14  0040		       00 16	   AUDC1      EQU	$16	;BITS	   3210 AUDIO CONTROL 1
     15  0040		       00 17	   AUDF0      EQU	$17	;BITS	   3210 AUDIO FREQUENCY 0
     16  0040		       00 18	   AUDF1      EQU	$18	;BITS	   3210 AUDIO FREQUENCY 1
     17  0040		       00 19	   AUDV0      EQU	$19	;BITS	   3210 AUDIO VOLUME 0
     18  0040		       00 1a	   AUDV1      EQU	$1A	;BITS	   3210 AUDIO VOLUME 1
     19  0040		       00 08	   INPT0      EQU	$08
     20  0040		       00 09	   INPT1      EQU	$09
     21  0040		       00 0a	   INPT2      EQU	$0A
     22  0040		       00 0b	   INPT3      EQU	$0B
     23  0040		       00 0c	   INPT4      EQU	$0C	;PLAYER 0 BUTTON CLEAR WHEN HIT
     24  0040		       00 0d	   INPT5      EQU	$0D	;PLAYER 1 BUTTON CLEAR WHEN HIT
     25  0040
     26  0040
     27  0040
     28  0040
     29  0040
     30  0040							;;*;*;*;*;*;*;*;*;*;*;*;*;*;*;*;*;*;*;*;*;*;*;*;*;*;*;*;*;*;*;*;*;*;*;*;*;*;*;*;*;*;*;*;*;*;*;*;*;*;*;*;*;*;*;*;*;*;*;*;*;*;*;*;*;*;*;*;*;*;*;*;*;*;*;*;*;*;*;*
     31  0040							; MARIA REGISTERS
     32  0040							; NOTE THESE REGISTERS ARE SHADOWED AT 120 TO 13F
     33  0040							;	   ;				 220 TO 23F
     34  0040							;	   ;				 320 TO 33F
     35  0040							;;*;*;*;*;*;*;*;*;*;*;*;*;*;*;*;*;*;*;*;*;*;*;*;*;*;*;*;*;*;*;*;*;*;*;*;*;*;*;*;*;*;*;*;*;*;*;*;*;*;*;*;*;*;*;*;*;*;*;*;*;*;*;*;*;*;*;*;*;*;*;*;*;*;*;*;*;*;*;*
     36  0040		       00 20	   P0C0       EQU	$20	;		      ;BACKGROUND COLOR 		 RW
     37  0040							;	   ALL PALETTE AND COLOR ARE HIGH NIBBLE COLOR, LOW NIBBLE LUMINANCE
     38  0040		       00 21	   P0C1       EQU	$21	;		      ;PALETTE ZERO COLOR ONE		 RW
     39  0040		       00 22	   P0C2       EQU	$22	;		      ;PALETTE ZERO COLOR TWO		 RW
     40  0040		       00 23	   P0C3       EQU	$23	;		      ;PALETTE ZERO COLOR THREE 	 RW
     41  0040		       00 24	   WSYNCM     EQU	$24	;		      ;FAST MARIA WSYNC STROBE
     42  0040		       00 25	   P1C1       EQU	$25	;		      ;PALETTE ONE COLOR ONE		 RW
     43  0040		       00 26	   P1C2       EQU	$26	;		      ;PALETTE ONE COLOR TWO		 RW
     44  0040		       00 27	   P1C3       EQU	$27	;		      ;PALETTE ONE COLOR THREE		 RW
     45  0040		       00 28	   CTRLRD     EQU	$28	;		      ;BIT 7 IN VBLANK, BIT 6 IN DISPLAY RO
     46  0040		       00 29	   P2C1       EQU	$29	;		      ;PALETTE TWO COLOR ONE		 RW
     47  0040		       00 2a	   P2C2       EQU	$2A	;		      ;PALETTE TWO COLOR TWO		 RW
     48  0040		       00 2b	   P2C3       EQU	$2B	;		      ;PALETTE TWO COLOR THREE		 RW
     49  0040		       00 2c	   DPPH       EQU	$2C	;		      ;DISPLAY LIST POINTER HIGH	 WO
     50  0040		       00 2d	   P3C1       EQU	$2D	;		      ;PALETTE THREE COLOR ONE		 RW
     51  0040		       00 2e	   P3C2       EQU	$2E	;		      ;PALETTE THREE COLOR TWO		 RW
     52  0040		       00 2f	   P3C3       EQU	$2F	;		      ;PALETTE THREE COLOR THREE	 RW
     53  0040		       00 30	   DPPL       EQU	$30	;		      ;DISPLAY LIST POINTER LOW 	 WO
     54  0040		       00 31	   P4C1       EQU	$31	;		      ;PALETTE FOUR COLOR ONE		 RW
     55  0040		       00 32	   P4C2       EQU	$32	;		      ;PALETTE FOUR COLOR TWO		 RW
     56  0040		       00 33	   P4C3       EQU	$33	;		      ;PALETTE FOUR COLOR THREE 	 RW
     57  0040		       00 34	   CHARBASE   EQU	$34	;		      :CHARACTER MODE HIGH POINTER	 WO
     58  0040		       00 35	   P5C1       EQU	$35	;		      ;PALETTE FIVE COLOR ONE		 RW
     59  0040		       00 36	   P5C2       EQU	$36	;		      ;PALETTE FIVE COLOR TWO		 RW
     60  0040		       00 37	   P5C3       EQU	$37	;		      ;PALETTE FIVE COLOR THREE 	 RW
     61  0040		       00 38	   OFFSET     EQU	$38	;		      ;GRAPHICS HIGH POINTER OFFSET	 RW
     62  0040		       00 39	   P6C1       EQU	$39	;		      ;PALETTE SIX COLOR ONE		 RW
     63  0040		       00 3a	   P6C2       EQU	$3A	;		      ;PALETTE SIX COLOR TWO		 RW
     64  0040		       00 3b	   P6C3       EQU	$3B	;		      ;PALETTE SIX COLOR THREE		 RW
     65  0040		       00 3c	   CTRLWT     EQU	$3C	;		      ;BIT 7  CHARACTER WIDTH,BIT 6 BCNT WO
     66  0040		       00 3d	   P7C1       EQU	$3D	;		      ;PALETTE SEVEN COLOR ONE		 RW
     67  0040		       00 3e	   P7C2       EQU	$3E	;		      ;PALETTE SEVEN COLOR TWO		 RW
     68  0040		       00 3f	   P7C3       EQU	$3F	;		      ;PALETTE SEVEN COLOR THREE	 RW
     69  0040
     70  0040		       00 07	   MISTYPE    EQU	$7
     71  0040		       00 05	   YSHIP      EQU	$5
     72  0040		       00 30	   BONUSPT    EQU	$30	;		      ;SET TO EVERY 30,00 POINTS
     73  0040		       00 ff	   NOTFOSH    EQU	$FF
     74  0040		       00 0e	   TIBTNBIR   EQU	$0E
     75  0040		       00 f0	   TIBTNWAV   EQU	$F0
     76  0040		       00 80	   TIBTNFWV   EQU	$80
     77  0040
     78  0040
     79  0040
     80  0040							;;*;*;*;*;*;*;*;*;*;*;*;*;*;*;*;*;*;*;*;*;*;*;*;*;*;*;*;*;*;*;*;*;*;*;*;*;*;*;*;*;*;*;*;*;*;*;*;*;*;*;*;*;*;*;*;*;*;*;*;*;*;*;*;*;*;*;*;*;*;*;*;*;*;*;*;*;*;*;*
     81  0040							; ZERO PAGE RAM   040 TO 0FF
     82  0040							;;*;*;*;*;*;*;*;*;*;*;*;*;*;*;*;*;*;*;*;*;*;*;*;*;*;*;*;*;*;*;*;*;*;*;*;*;*;*;*;*;*;*;*;*;*;*;*;*;*;*;*;*;*;*;*;*;*;*;*;*;*;*;*;*;*;*;*;*;*;*;*;*;*;*;*;*;*;*;*
     83  0040					      ORG	$0040
     84  0040		       00	   ARRIVED    DS	1	;			;ALL SHIPS ARRIVED, GO TO EXPNSN
     85  0041		       00	   NUMFLY     DS	1	;			;NO OF SHIPS FLYING IN EXPNSN
     86  0042		       00	   RACK       DS	1	;			;RACK NUMBER
     87  0043		       00	   GASTONHK   DS	1	;			;RACK NUMBER IN BCD
     88  0044		       00	   BORNCNT    DS	1	;			;DELAY BETWEEN BIRTHS
     89  0045		       00	   NEWWAVE    DS	1	;			;INDICATES START OF NEW WAVE
     90  0046		       00	   SHIPCNT    DS	1	;			;NO OF SHIPS CREATED
     91  0047		       00	   SHIPLEFT   DS	1
     92  0048		       00	   WAVECNT    DS	1	;			;TELLS WHEN TO INC WAVEREG
     93  0049		       00	   WAVEREG    DS	1	;			;TELLS WHICH WAVE THIS IS
     94  004a		       00	   TOGGLEM0   DS	1	;			;EXPANSION AND SHIFT VARIABLES
     95  004b		       00	   EXPANR     DS	1
     96  004c		       00	   EXPANC     DS	1
     97  004d		       00	   EXPANCC    DS	1
     98  004e		       00	   COL0       DS	1	;			;COLUMN POSITIONS
     99  004f		       00	   COL1       DS	1
    100  0050		       00	   COL2       DS	1
    101  0051		       00	   COL3       DS	1
    102  0052		       00	   COL4       DS	1
    103  0053		       00	   TOGGLEM    DS	1
    104  0054		       00	   TOGGLES    DS	1
    105  0055		       00	   XSTEPY     DS	1
    106  0056		       00	   COUNT      DS	1
    107  0057		       00	   BULLSHT    DS	1	;			;INCREASES DIFFICULTY LATER IN RACK
    108  0058		       00	   STRSPEED   DS	1	;			;SPEED OF THE STARS
    109  0059		       00	   SHPERWAV   DS	1	;			;COUNTS NUMBER OF SHIPS PER WAVE
    110  005a		       00	   CHALNUM    DS	1	;			;GIVES WHICH "NUMBER" A CHAL STAGE IS
    111  005b		       00	   CHALINDX   DS	1	;			;INDEX TO CHALLENGING STAGE PAIRTABLE
    112  005c		       00	   CAPBOS1    DS	1	;			;TELLS WHICH BOSS HAS THE HERO
    113  005d		       00	   CHTAB40    DS	1	;			;SAVES COLUMN NUMBER OF CAPT"D HERO
    114  005e		       00	   HEROREAP   DS	1	;			;INDICATES THAT CAPTD HERO MUST RETURN
    115  005f		       00	   DECCNT     DS	1	;			;NEED TO BE SWITCHED
    116  0060		       00	   ABORT      DS	1	;			;ABORTS NEW ATTACKS OR BIRTHS
    117  0061		       00	   CHALSTG    DS	1	;			;INDICATES CHALLENGING STAGE
    118  0062		       00	   CHALWAVE   DS	1	;			;INDICATES START OF CHALLENGING WAVE
    119  0063		       00	   WAVESCR    DS	1	;			;HOLDS THE SCORE FOR AN INDIVIDUAL WAVE
    120  0064							;ALL OF THE ABOVE VARIABLES ARE SWITCHED IN TWO PLAYER MODE
    121  0064		       00	   CAPTUREX   DS	1	;			;XCORD OF CAPTURING BOSS GALAGA
    122  0065							;HEROX     DS	    1;			    ;HERO X COORDINATE
    123  0065		       00 00	   LISTPTR    DS	2	;			;PTR TO CURRENT DISPLAY LIST
    124  0067		       00	   TEMP0      DS	1	;			;TEMP VARIABLES FOR SCORE & LOADER
    125  0068		       00 00	   TEMP1      DS	2
    126  006a		       00 00	   TEMP2      DS	2
    127  006c		       00	   TEMP3      DS	1
    128  006d		       00	   TEMP4      DS	1
    129  006e		       00	   TEMP5      DS	1
    130  006f		       00	   TEMP6      DS	1
    131  0070		       00	   TEMP7      DS	1
    132  0071		       00 00	   TEMP8      DS	2	;			;LOADER TEMP
    133  0073		       00	   DLSPTR     DS	1	;			;PTR TO CURRENT DLSTLST
    134  0074		       00	   FRAME      DS	1	;			;FRAME COUNT
    135  0075		       00	   RLOGO      DS	1
    136  0076		       00	   LY	      DS	1
    137  0077		       00	   LA	      DS	1
    138  0078		       00	   HEADER0    DS	1	;			;LOADER HEADERS
    139  0079		       00	   HEADER1    DS	1
    140  007a		       00	   HEADER2    DS	1
    141  007b		       00	   HEADER3    DS	1
    142  007c		       00	   HEADER4    DS	1
    143  007d		       00	   HEADER5    DS	1
    144  007e		       00	   HEADER6    DS	1
    145  007f		       00	   HEADER7    DS	1
    146  0080		       00	   SAVEA      DS	1	;			;SAVES A, X, AND Y, RESPECTIVELY
    147  0081		       00	   SAVEX      DS	1
    148  0082		       00	   SAVEY      DS	1
    149  0083		       00	   ANIMATE    DS	1
    150  0084		       00	   MSHCNT     DS	1
    151  0085		       00	   STARCNTR   DS	1	;			;USED IN STARLDR
    152  0086		       00	   THREECNT   DS	1	;			;USED IN STARLDR
    153  0087		       00	   FOURCNT    DS	1	;			;USED IN STARLDR
    154  0088		       00	   AIRBORNE   DS	1	;			;NO OF SHIPS AIRBORNE
    155  0089		       00	   NOSWITCH   DS	1	;			;INDICATES HERO HAS BEEN CAPTURED
    156  008a		       00	   CHALSCR    DS	1	;			;KEEPS SCORE ON CHALLENGING STAGE
    157  008b		       00	   STARPTR    DS	1
    158  008c		       00	   STARINC    DS	1
    159  008d		       00	   SCRTIME    DS	1	;			;DISPLAYS CHALLENGING STAGE RESULTS
    160  008e		       00	   PUNTSCRL   DS	1	;			;TELLS IF SCROLL SHOULD OCCUR
    161  008f		       00	   AUTOPLAZ   DS	1	;			;ADDITIONAL AUTOPLAY REGISTER
    162  0090		       00	   SELTIMER   DS	1	;			;TIMER BETWEEN ADVANCING SELECT OPTNS
    163  0091		       00	   SELDELAY   DS	1	;			;TIMER FOR LOCAL SELECT ADVANCE
    164  0092		       00	   SELTGL     DS	1	;			;TOGGLE FOR LOCAL SELECT ADVANCE
    165  0093		       00	   DECDELAY   DS	1	;			;DELAYS REVIVAL OF HERO IN 1 PLAYER MD
    166  0094		       00	   SCRTEMP    DS	1	;			;HOLDS THE SCORE FOR A HERO SHOT
    167  0095		       00	   P1TOG      DS	1	;			;COUNTER FOR CREDITING BONUS LIVES
    168  0096		       00	   P2TOG      DS	1	;			;SAME, FOR PLAYER 2
    169  0097		       00	   PRCNTREG   DS	1	;			;HOLDS THE HIT/MISS RATIO
    170  0098		       00 00	   MISCNT11   DS	2	;			;HOLDS THE # OF SHOTS FIRED PLAYER1
    171  009a		       00 00	   MISCNT12   DS	2	;			;HOLDS THE # OF SHOTS FIRED PLAYER2
    172  009c		       00 00 00    MISCNT21   DS	3	;			;HOLDS THE # OF HITS FOR PLAYER1
    173  009f		       00 00 00    MISCNT22   DS	3	;			;HOLDS THE # OF HITS FOR PLAYER2
    174  00a2		       00 00 00    RATIO      DS	3	;			;HOLDS THE RESULT OF 100 ;* MISCNT2
    175  00a5		       00	   METAREG    DS	1	;			;TELLS IF TIME FOR META ATTEMPT
    176  00a6		       00	   METACNT    DS	1	;			;KEEPS TRACK OF META BIRTHS
    177  00a7		       00	   CAPQUAN    DS	1	;			;CAPTURE QUANDARY QUESTION
    178  00a8		       00	   LOOPCNT    DS	1	;			;COUNTER IN BIRTH ROUTINE
    179  00a9		       00	   MISTIMER   DS	1	;			;TIME BETWEEN HERO MISSILES
    180  00aa		       00 00	   P1BONUS    DS	2	;			;SCORE BONUSES
    181  00ac		       00 00	   P2BONUS    DS	2
    182  00ae		       00	   PLAYER     DS	1	;			;PLAYER1 OR PLAYER2 INDICATOR
    183  00af		       00	   GAMEOVER   DS	1	;			;INDICATES GAME OVER
    184  00b0		       00	   AUTOPLAY   DS	1	;			;INDICATES AUTOPLAY MODE
    185  00b1		       00 00	   LIVES      DS	2	;			;NO OF LIVES FOR EACH PLAYER
    186  00b3		       00	   SHIPDIR    DS	1
    187  00b4		       00	   WAITCNT    DS	1	;			;CNTR USED FOR LOWERING TRCTR BEAM
    188  00b5		       00	   ZOFFSET    DS	1	;			;USED IN BEAM LOADER
    189  00b6		       00	   WAITCNT2   DS	1	;			;USED IN BEAM LOADER
    190  00b7		       00	   WAITCNT3   DS	1	;			;DITTO
    191  00b8		       00	   KEEPY      DS	1	;			;SAVES Y VALUE
    192  00b9		       00	   KEEPX      DS	1	;			;SAVES X VALUE
    193  00ba		       00	   DECREG     DS	1	;			;USED TO DELAY GIVING NEW LIFE
    194  00bb		       00	   RDYREG     DS	1	;			;DISPLAYS "READY"
    195  00bc		       00	   CHLNGREG   DS	1	;			;DISPLAYS "CHALLENGING STAGE"
    196  00bd		       00	   RACKREG    DS	1	;			;?
    197  00be		       00	   PLAYRREG   DS	1	;			;DISPLAYS "PLAYER" "1" OR "2"
    198  00bf		       00	   GMOVEREG   DS	1	;			;DISPLAYS "GAME OVER"
    199  00c0		       00	   CAPTDREG   DS	1	;			;DISPLAYS "FIGHTER CAPTURED"
    200  00c1		       00	   TABPNT     DS	1
    201  00c2							;SOUND VARIBLES
    202  00c2							;SOUNDZP   DS	    2;			    ;2 BYTES - ZERO PAGE FOR SOUND
    203  00c2		       00	   MPTRL      DS	1
    204  00c3		       00	   MPTRH      DS	1
    205  00c4
    206  00c4		       00	   FLAP       DS	1
    207  00c5							;	   LOADER TEMP RAM
    208  00c5		       00 00 00 00*LISTSIZ    DS	16	;		       ;HAS SIZES OF EACH DISPLAY LIST
    209  00d5		       00	   LTYPE      DS	1
    210  00d6		       00	   STAMPH     DS	1	;			;?
    211  00d7		       00	   STAMPL     DS	1	;			;?
    212  00d8		       00	   STAMPB     DS	1
    213  00d9		       00	   BOOTLDR    DS	1	;			;TELLS LOADER IT HAS OVERLAPPED ITSELF
    214  00da		       00	   BOZO0      DS	1	;			;TC TEMP VARIABLE
    215  00db		       00	   BOZO1      DS	1	;			;TC TEMP VARIABLE
    216  00dc		       00	   BOZO2      DS	1	;			;TC TEMP VARIABLE
    217  00dd		       00	   BOZO3      DS	1	;			;TC TEMP VARIABLE
    218  00de		       00	   BOZO4      DS	1	;			;TC TEMP VARIABLE
    219  00df		       00	   BOZO5      DS	1	;			;TC TEMP VARIABLE
    220  00e0		       00	   BOZO6      DS	1	;			;TC TEMP VARIABLE
    221  00e1		       00	   BOZO7      DS	1	;			;TC TEMP VARIABLE
    222  00e2		       00	   BOZO8      DS	1	;			;TC TEMP VARIABLE
    223  00e3							;169 OUT OF 192 ARE USED
    224  00e3		       00	   SCORPCNT   DS	1	;			;USED TO SEE IF 3 SCORPIONS ARE HIT
    225  00e4		       00	   PAUSE      DS	1	;			;INDICATES PAUSE BUTTON ACTIVE
    226  00e5		       00	   INHSC      DS	1	;			;INDICATES IN HIGH SCORE CART
    227  00e6		       00	   DIFCULTY   DS	1	;			;INDICATES DIFFICULTY CALL FOR HSC
    228  00e7		       00	   SAVEB      DS	1	;			;HOLDS LOADER ACCUMULATOR VALUE
    229  00e8							;174 OUT OF 192 USED
    230  00e8		       00 00 00 00 HSCORE     DS	4	;			;4 BCD DIGITS
    231  00ec		       00	   PAUSECT1   DS	1	;			;COUNTER FOR LENGTH OF TIME IN PAUSE
    232  00ed		       00	   PAUSECT2   DS	1	;			;SAME
    233  00ee		       00	   PAUSTOG    DS	1	;			;ONLY LOOK AT PAUSE ONCE IN 10 FRAMES
    234  00ef		       00	   ATTEMPT    DS	1	;			INCREMENTS THE NEXT SHIP TO ATTACK
    235  00f0
    236  00f0
    237  00f0							;;*;*;*;*;*;*;*;*;*;*;*;*;*;*;*;*;*;*;*;*;*;*;*;*;*;*;*;*;*;*;*;*;*;*;*;*;*;*;*;*;*;*;*;*;*;*;*;*;*;*;*;*;*;*;*;*;*;*;*;*;*;*;*;*;*;*;*;*;*;*;*;*;*;*;*;*;*;*;*
    238  00f0							; FIRST PAGE RAM   140 TO 1FF
    239  0140					      ORG	$0140
    240  0140
    241  0140		       00 00 00 00*MOMENTUM   DS	61	;		       ;HOLDS MOMENTUM FOR ALL SHIPS
    242  017d
    243  017d
    244  017d
    245  017d
    246  017d							;;*;*;*;*;*;*;*;*;*;*;*;*;*;*;*;*;*;*;*;*;*;*;*;*;*;*;*;*;*;*;*;*;*;*;*;*;*;*;*;*;*;*;*;*;*;*;*;*;*;*;*;*;*;*;*;*;*;*;*;*;*;*;*;*;*;*;*;*;*;*;*;*;*;*;*;*;*;*;*
    247  017d							;;*;*;*;*;*;*;*;*;*;*;*;*;*;*;*;*;*;*;*;*;*;*;*;*;*;*;*;*;*;*;*;*;*;*;*;*;*;*;*;*;*;*;*;*;*;*;*;*;*;*;*;*;*;*;*;*;*;*;*;*;*;*;*;*;*;*;*;*;*;*;*;*;*;*;*;*;*;*;*
    248  017d							;  PIA AND TIMER (6532) LOCATIONS   280 TO 2FF
    249  017d							; NOTE THESE REGISTERS ARE SHADOWED AT 380 TO 3FF
    250  017d							;;*;*;*;*;*;*;*;*;*;*;*;*;*;*;*;*;*;*;*;*;*;*;*;*;*;*;*;*;*;*;*;*;*;*;*;*;*;*;*;*;*;*;*;*;*;*;*;*;*;*;*;*;*;*;*;*;*;*;*;*;*;*;*;*;*;*;*;*;*;*;*;*;*;*;*;*;*;*;*
    251  017d		       02 80	   SWCHA      EQU	$280	;PO, P1 JOYSTICKS
    252  017d
    253  017d							;	   BIT 7 PLAYER 0 EAST IF CLEAR
    254  017d							;	   BIT 6;	   WEST
    255  017d							;	   BIT 5;	   SOUTH
    256  017d							;	   BIT 4;	   NORTH
    257  017d							;	   BIT 3 PLAYER 1 EAST IF CLEAR
    258  017d							;	   BIT 2;	   WEST
    259  017d							;	   BIT 1;	   SOUTH
    260  017d							;	   BIT 0;	   NORTH
    261  017d
    262  017d		       02 82	   SWCHB      EQU	$282	;CONSOLE SWITCHES
    263  017d
    264  017d							;	   BIT 7   PLAYER 1 DIFFICULTY A IF SET B IF CLEAR
    265  017d							;	   BIT 6   PLAYER 0 DIFFICULTY A IF SET B IF CLEAR
    266  017d							;	   BIT 3   BLACK & WHITE/COLOR	COLOR WHEN SET
    267  017d							;	   BIT 1   GAME SELECT	CLEAR WHEN PRESSED
    268  017d							;	   BIT 0   GAME RESET	CLEAR WHEN PRESSED
    269  017d
    270  017d		       02 81	   CTLSWA     EQU	$281
    271  017d		       02 83	   CTLSWB     EQU	$283
    272  017d		       02 84	   INTIM      EQU	$284	;INTERVAL TIMER IN
    273  017d		       02 95	   TIM8T      EQU	$295	;TIMER 8T WRITE OUT
    274  017d		       02 96	   TIM64T     EQU	$296	;TIMER 64T WRITE OUT
    275  017d		       02 9e	   TIM64TI    EQU	$29E	;INTERUPT TIMER 64T
    276  017d		       00 52	   DLSIZE     EQU	82
    277  017d
    278  017d
    279  017d							;;*;*;*;*;*;*;*;*;*;*;*;*;*;*;*;*;*;*;*;*;*;*;*;*;*;*;*;*;*;*;*;*;*;*;*;*;*;*;*;*;*;*;*;*;*;*;*;*;*;*;*;*;*;*;*;*;*;*;*;*;*;*;*;*;*;*;*;*;*;*;*;*;*;*;*;*;*;*;*
    280  017d							; RAM	   1800 TO 203F;		   (MARIA 2)
    281  017d							;;*;*;*;*;*;*;*;*;*;*;*;*;*;*;*;*;*;*;*;*;*;*;*;*;*;*;*;*;*;*;*;*;*;*;*;*;*;*;*;*;*;*;*;*;*;*;*;*;*;*;*;*;*;*;*;*;*;*;*;*;*;*;*;*;*;*;*;*;*;*;*;*;*;*;*;*;*;*;*
    282  017d							;THIS MEMORY SPACE IF FULL
    283  1800					      ORG	$1800
    284  1800							;	   DISPLAY LIST ONE
    285  1800		       00 00 00 00*S1L1       DS	DLSIZE
    286  1852		       00 00 00 00*S1L2       DS	DLSIZE
    287  18a4		       00 00 00 00*S1L3       DS	DLSIZE
    288  18f6		       00 00 00 00*S1L4       DS	DLSIZE
    289  1948		       00 00 00 00*S1L5       DS	DLSIZE
    290  199a		       00 00 00 00*S1L6       DS	DLSIZE
    291  19ec		       00 00 00 00*S1L7       DS	DLSIZE
    292  1a3e		       00 00 00 00*S1L8       DS	DLSIZE
    293  1a90		       00 00 00 00*S1L9       DS	DLSIZE
    294  1ae2		       00 00 00 00*S1L10      DS	DLSIZE
    295  1b34		       00 00 00 00*S1L11      DS	DLSIZE
    296  1b86		       00 00 00 00*S1L12      DS	DLSIZE
    297  1bd8		       00 00 00 00*S1L13      DS	DLSIZE
    298  1c2a		       00 00 00 00*S1L14      DS	DLSIZE
    299  1c7c		       00 00 00 00*S1L15      DS	DLSIZE
    300  1cce		       00 00 00 00*S1L16      DS	DLSIZE
    301  1d20		       00 00	   ZEROHDR    DS	2
    302  1d22
    303  1d22		       00 00 00 00*DLSTLST1   DS	63
    304  1d61		       00 00 00 00*DLSTLST2   DS	63
    305  1da0
    306  1da0		       00 00 00 00*NEWCOLS    DS	10
    307  1daa		       00 00 00 00*NEWTYPE    DS	41
    308  1dd3
    309  1dd3
    310  1dd3		       00 00 00 00*TYPE       DS	72
    311  1e1b		       00 00 00 00*XCORD      DS	72
    312  1e63		       00 00 00 00*YCORD      DS	72
    313  1eab		       00 00 00 00*ANGLE      DS	72
    314  1ef3		       00 00 00 00*ML	      DS	67
    315  1f36		       00 00 00 00*MH	      DS	65
    316  1f77		       00 00 00 00*MODE       DS	67
    317  1fba		       00 00 00 00*COUNTXY    DS	65
    318  1ffb		       00 00 00 00*DONE       DS	65
    319  203c
    320  203c		       1e 5a	   HEROX      EQU	XCORD+63
    321  203c
    322  203c
    323  2200					      ORG	$2200
    324  2200							;	   DISPLAY LISTS TWO;		   ;THE LOW BYTE OF S2L1 = S1L1
    325  2200		       00 00 00 00*S2L1       DS	DLSIZE
    326  2252		       00 00 00 00*S2L2       DS	DLSIZE
    327  22a4		       00 00 00 00*S2L3       DS	DLSIZE
    328  22f6		       00 00 00 00*S2L4       DS	DLSIZE
    329  2348		       00 00 00 00*S2L5       DS	DLSIZE
    330  239a		       00 00 00 00*S2L6       DS	DLSIZE
    331  23ec		       00 00 00 00*S2L7       DS	DLSIZE
    332  243e		       00 00 00 00*S2L8       DS	DLSIZE
    333  2490		       00 00 00 00*S2L9       DS	DLSIZE
    334  24e2		       00 00 00 00*S2L10      DS	DLSIZE
    335  2534		       00 00 00 00*S2L11      DS	DLSIZE
    336  2586		       00 00 00 00*S2L12      DS	DLSIZE
    337  25d8		       00 00 00 00*S2L13      DS	DLSIZE
    338  262a		       00 00 00 00*S2L14      DS	DLSIZE
    339  267c		       00 00 00 00*S2L15      DS	DLSIZE
    340  26ce		       00 00 00 00*S2L16      DS	DLSIZE
    341  2720
    342  2720		       00	   SELECT     DS	1	;			;TELLS YOU THAT YOU"RE IN SELECT MODE
    343  2721		       00	   RSTRTREG   DS	1	;			;SIGNIFIES A RESTART IN PROGRESS
    344  2722		       00	   LEVELSEL   DS	1	;			;LEVEL SELECTION VARIABLE
    345  2723		       00	   TWOPLAYR   DS	1	;			;INDICATES TWO PLAYER MODE
    346  2724		       00 00 00    P1SCORE    DS	3	;			;DONT SPLIT THESE TWO APART
    347  2727		       00 00 00    P2SCORE    DS	3
    348  272a		       00	   FARREN     DS	1
    349  272b
    350  272b		       00 00 00 00*SAVES      DS	36	;		       ;SAVES NECESSARY ZERO PAGE MEMORY
    351  274f		       00	   ONE60TIM   DS	1
    352  2750		       00	   TTEMP      DS	1
    353  2751		       00	   TUNTEMP    DS	1
    354  2752		       00	   DCH0       DS	1	;			;ONE BYTE--DURATION CNTR CHAN. 0
    355  2753		       00	   DCH1       DS	1	;			;ONE BYTE--DURATION CNTR CHAN. 1
    356  2754		       00	   TUNNUM     DS	1	;			;ONE BYTE--TUNE NUM FOR CHAN. 0
    357  2755		       00	   TUNNUM1    DS	1	;			;ONE BYTE--TUNE NUM FOR CHAN. 1
    358  2756		       00	   TINDEX0    DS	1	;			;ONE BYTE--NOTE POINTER 0
    359  2757		       00	   TINDEX1    DS	1	;			;ONE BYTE--NOTE POINTER 1
    360  2758		       00	   CINDEX0    DS	1	;			;CONTROL INDEX
    361  2759		       00	   CINDEX1    DS	1
    362  275a		       00	   VINDEX0    DS	1	;			;VOLUME INDEX
    363  275b		       00	   VINDEX1    DS	1
    364  275c		       00 00 00 00*SCORE      DS	16
    365  276c		       00 00 00 00*LISTSIZ2   DS	9	;			;SECOND SET OF LIST SIZES
    366  2775		       00 00 00 00*COLPOS     DS	10
    367  277f
    368  277f		       00 00 00 00*DUMYHDR    DS	7
    369  2786
    370  2786							;;*;*;*;*;*;*;*;*;*;*;*;*;*;*;*;*;*;*;*;*;*;*;*;*;*;*;*;*;*;*;*;*;*;*;*;*;*;*;*;*;*;*;*;*;*;*;*;*;*;*;*;*;*;*;*;*;*;*;*;*;*;*;*;*;*;*;*;*;*;*;*;*;*;*;*;*;*;*;*
    371  2786
------- FILE GLOAD.ASM
------- FILE GMAIN.ASM LEVEL 2 PASS 2
      0  2786					      include	"GMAIN.ASM"
      1  2786					      processor	6502
      2  2786							;;*;*;*;*;*;*;*;*;*;*;*;*;*;*;*;*;*;*;*;*;*;*;*;*;*;*;*;*;*;*;*;*;*;*;*;*;*;*;*;*;*;*;*;*;*;*;*;*;*;*;*;*;*;*;*;*;*;*;*;*;*;*;*;*;*;*;*;*;*;*;*;*;*;*;*;*;*;*;*
      3  2786							;GMAIN.S
      4  8000					      ORG	$8000
      5  8000				   BEGIN
      6  8000		       a2 47		      LDX	#71	;		       ;ZERO OUT ENMYLIST (TYPE)
      7  8002		       a9 00	   XZERO      LDA	#0
      8  8004		       9d d3 1d 	      STA	TYPE,X
      9  8007		       a9 01		      LDA	#1
     10  8009		       9d ab 1e 	      STA	ANGLE,X
     11  800c		       ca		      DEX
     12  800d		       10 f3		      BPL	XZERO
     13  800f		       a2 28		      LDX	#40
     14  8011		       a9 00	   XAVIDSUX   LDA	#0
     15  8013		       9d aa 1d 	      STA	NEWTYPE,X
     16  8016		       ca		      DEX
     17  8017		       10 f8		      BPL	XAVIDSUX
     18  8019		       ad 21 27 	      LDA	RSTRTREG	;		 ;SEE IF A RESTART HAS OCCURED
     19  801c		       f0 08		      BEQ	LOGO
     20  801e		       a9 00		      LDA	#0
     21  8020		       8d 21 27 	      STA	RSTRTREG	;		 ;CLEAR FLAG
     22  8023		       4c 60 82 	      JMP	GOTORES
     23  8026		       20 2f 80    LOGO       JSR	SETLOGO
     24  8029		       20 d0 d3 	      JSR	SCRAPALL
     25  802c		       4c 92 80 	      JMP	TITLPPP
     26  802f		       a9 01	   SETLOGO    LDA	#1
     27  8031		       85 68		      STA	TEMP1
     28  8033		       a9 f0		      LDA	#$F0
     29  8035		       85 6a		      STA	TEMP2
     30  8037		       a2 12		      LDX	#18
     31  8039		       a0 41		      LDY	#65	;		      ;START WITH 2ND PAGE GRAPHICS
     32  803b		       8a	   LLOGO      TXA
     33  803c		       99 d3 1d 	      STA	TYPE,Y
     34  803f		       e8		      INX
     35  8040		       c8		      INY
     36  8041		       e0 18		      CPX	#24
     37  8043		       d0 f6		      BNE	LLOGO
     38  8045		       a9 1e		      LDA	#30
     39  8047		       8d 5c 1e 	      STA	XCORD+65
     40  804a		       8d 5d 1e 	      STA	XCORD+66
     41  804d		       a9 52		      LDA	#82
     42  804f		       8d 5e 1e 	      STA	XCORD+67
     43  8052		       8d 5f 1e 	      STA	XCORD+68
     44  8055		       a9 46		      LDA	#70
     45  8057		       8d 60 1e 	      STA	XCORD+69
     46  805a		       8d 61 1e 	      STA	XCORD+70
     47  805d		       a9 48		      LDA	#72
     48  805f		       8d a4 1e 	      STA	YCORD+65
     49  8062		       8d a6 1e 	      STA	YCORD+67
     50  8065		       a9 54		      LDA	#84
     51  8067		       8d a5 1e 	      STA	YCORD+66
     52  806a		       8d a7 1e 	      STA	YCORD+68
     53  806d		       a9 60		      LDA	#96
     54  806f		       8d a8 1e 	      STA	YCORD+69
     55  8072		       a9 6c		      LDA	#108
     56  8074		       8d a9 1e 	      STA	YCORD+70
     57  8077		       a9 00		      LDA	#0
     58  8079		       8d ab 1e 	      STA	ANGLE
     59  807c		       85 6c		      STA	TEMP3	;		    ;INITIALLY POSITIVE
     60  807e		       a9 48		      LDA	#$48
     61  8080		       8d 63 1e 	      STA	YCORD
     62  8083		       a9 50		      LDA	#$50
     63  8085		       8d 1b 1e 	      STA	XCORD
     64  8088							;THIS SECTION SETS UP THE TWINKLE
     65  8088		       a9 23		      LDA	#35
     66  808a		       8d d3 1d 	      STA	TYPE
     67  808d		       a9 07		      LDA	#7	;		       ;USE Y AS A LOCATION VARIABLE
     68  808f		       85 da		      STA	BOZO0	;		    ;THIS SAVES THE Y VALUE
     69  8091		       60		      RTS		;			      ;END OF LOGO SETUP SUBROUTINE
     70  8092
     71  8092		       a9 00	   TITLPPP    LDA	#0
     72  8094		       85 74		      STA	FRAME	;		    ;SET UP FRAME
     73  8096		       c6 74	   TITLOOP    DEC	FRAME
     74  8098		       a5 74	   TITLP1     LDA	FRAME
     75  809a		       30 fc		      BMI	TITLP1
     76  809c		       20 f6 88 	      JSR	TWINKEL	;		  ;TWINKLE SUBROUTINE
     77  809f		       ad 20 27 	      LDA	SELECT	;		   ;SEE IF IN SELECT MODE
     78  80a2		       f0 03		      BEQ	NOTOSEL
     79  80a4		       4c 57 81 	      JMP	GOTOSEL
     80  80a7		       a5 6a	   NOTOSEL    LDA	TEMP2
     81  80a9		       f0 29		      BEQ	DOHSC	;		    ;DO HSC AFTER TITLE PAGE
     82  80ab
     83  80ab		       ad 82 02    ATIT       LDA	SWCHB	;		    ;GET LOCAL INPUTS
     84  80ae		       4a		      LSR
     85  80af		       b0 03		      BCS	ATIT2
     86  80b1		       4c 60 82 	      JMP	GOTORES
     87  80b4		       4a	   ATIT2      LSR
     88  80b5		       b0 03		      BCS	ATIT3
     89  80b7		       4c 57 81 	      JMP	GOTOSEL
     90  80ba		       ad 80 02    ATIT3      LDA	SWCHA	;		    ;LOOK AT JOYSTICK INPUT
     91  80bd		       09 0f		      ORA	#$0F	;		     ;BOOT PLAYER 2 INPUT
     92  80bf		       c9 ff		      CMP	#$FF	;		     ;SEE IF ANY INPUT
     93  80c1		       f0 03		      BEQ	FUCKYOU
     94  80c3		       4c 57 81 	      JMP	GOTOSEL	;		  ;GO TO SELECT MODE
     95  80c6		       24 0c	   FUCKYOU    BIT	INPT4	;		    ;LOOK AT FIRE BUTTON INPUT
     96  80c8		       30 03		      BMI	ATIT4
     97  80ca		       4c 60 82 	      JMP	GOTORES
     98  80cd		       a9 00	   ATIT4      LDA	#0
     99  80cf		       85 c4		      STA	FLAP	;		     ;PREVENT FLAPPING IN LOADER
    100  80d1		       4c 96 80 	      JMP	TITLOOP
    101  80d4
    102  80d4		       a9 00	   DOHSC      LDA	#0
    103  80d6		       85 e6		      STA	DIFCULTY	;		 ;SET DIFFICULTY FOR NOVICE
    104  80d8		       20 2f 80 	      JSR	SETLOGO	;		  ;SETS UP THE LOGO DISPLAY
    105  80db		       a9 01		      LDA	#1
    106  80dd		       85 e5		      STA	INHSC	;		    ;INDICATE IN HSC MODE
    107  80df		       20 92 b8 	      JSR	HSCTEST	;		  SEE IF THERE IS A DISPLAY FOR THIS
    108  80e2		       30 0c		      BMI	NONOVICE
    109  80e4		       a9 01		      LDA	#1
    110  80e6		       85 e5		      STA	INHSC
    111  80e8		       20 9d b8 	      JSR	HSCDSPLY	;		 ;DISPLAY HISCORECART
    112  80eb		       20 3a df 	      JSR	GAMEPOLL	;		 SEE IF ANY INPUT
    113  80ee		       b0 21		      BCS	NOEXPERT
    114  80f0		       e6 e6	   NONOVICE   INC	DIFCULTY
    115  80f2		       20 92 b8 	      JSR	HSCTEST	;		  SEE IF ADVANCED TABLE
    116  80f5		       30 0c		      BMI	NOADVNCD
    117  80f7		       a9 01		      LDA	#1
    118  80f9		       85 e5		      STA	INHSC
    119  80fb		       20 9d b8 	      JSR	HSCDSPLY
    120  80fe		       20 3a df 	      JSR	GAMEPOLL	;		 SEE IF ANY INPUT
    121  8101		       b0 0e		      BCS	NOEXPERT
    122  8103		       e6 e6	   NOADVNCD   INC	DIFCULTY
    123  8105		       20 92 b8 	      JSR	HSCTEST	;		  SEE IF EXPERT TABLE
    124  8108		       30 07		      BMI	NOEXPERT
    125  810a		       a9 01		      LDA	#1
    126  810c		       85 e5		      STA	INHSC
    127  810e		       20 9d b8 	      JSR	HSCDSPLY
    128  8111		       a9 40	   NOEXPERT   LDA	#$40
    129  8113		       85 3c		      STA	CTRLWT	;		   RESET THE CORRECT CONTROL WORD
    130  8115		       20 1b 81 	      JSR	CLEARDL1
    131  8118		       4c 3e 81 	      JMP	ENDCLEAR
    132  811b
    133  811b				   CLEARDL1		;				 ;THIS SUBROUTINE CLEARS THE FIRST DLIST
    134  811b		       a9 18		      LDA	#$18
    135  811d		       85 69		      STA	TEMP1+1	;		  TEMP1 NOW HAS THE ADDRESS 1801
    136  811f		       a2 0f		      LDX	#15	;		      LOOP 16 TIMES
    137  8121		       a9 00		      LDA	#0
    138  8123		       85 68		      STA	TEMP1
    139  8125		       a0 00	   DLST1CLR   LDY	#0
    140  8127		       98		      TYA
    141  8128		       91 68		      STA	(TEMP1),Y
    142  812a		       c8		      INY
    143  812b		       91 68		      STA	(TEMP1),Y
    144  812d		       a5 68		      LDA	TEMP1
    145  812f		       18		      CLC
    146  8130		       69 52		      ADC	#82	;		      INC TO NEXT DLST
    147  8132		       85 68		      STA	TEMP1
    148  8134		       a5 69		      LDA	TEMP1+1
    149  8136		       69 00		      ADC	#0
    150  8138		       85 69		      STA	TEMP1+1
    151  813a		       ca		      DEX
    152  813b		       10 e8		      BPL	DLST1CLR
    153  813d		       60		      RTS
    154  813e
    155  813e		       a9 22	   ENDCLEAR   LDA	#<DLSTLST1
    156  8140		       85 30		      STA	DPPL
    157  8142		       a9 1d		      LDA	#>DLSTLST1
    158  8144		       85 2c		      STA	DPPH
    159  8146		       a9 00		      LDA	#0
    160  8148		       85 73		      STA	DLSPTR	;		   ;NEXT DLI WILL BUILD DISPLAY LIST 2
    161  814a							;	   STA	   TWOPLAYR;		   ;SET TO ONE PLAYER MODE FOR AUTOPLAY
    162  814a		       85 e5		      STA	INHSC
    163  814c		       85 b0		      STA	AUTOPLAY	;		 ;THIS JUST SETS UP AUTOPLAY NOW
    164  814e		       a9 09		      LDA	#9
    165  8150		       85 8f		      STA	AUTOPLAZ	;		 ;ADDITIONAL COUNTER
    166  8152		       85 b0		      STA	AUTOPLAY	;		 ;NEEDS A NON-ZERO VALUE
    167  8154		       4c 90 82 	      JMP	ATITOUT	;		  ;GO INTO GAME LOOP
    168  8157				   GOTOSEL
    169  8157		       a9 20		      LDA	#$20
    170  8159		       85 a9		      STA	MISTIMER	;		 ;DONT ALLOW SHOT TO BE FIRED
    171  815b		       85 6a		      STA	TEMP2	;		    ;KEEP STAR TWINKLING
    172  815d		       8d 20 27 	      STA	SELECT	;		   ;INDICATE IN SELECT MODE
    173  8160		       a9 00		      LDA	#0
    174  8162		       85 b0		      STA	AUTOPLAY	;		 ;CLEAR AUTOPLAY MODE
    175  8164		       85 8f		      STA	AUTOPLAZ
    176  8166		       85 c4		      STA	FLAP	;		     ;PREVENT FLAPPING IN LOADER
    177  8168		       24 0c		      BIT	INPT4	;		    ;SEE IF FIRE BUTTON HIT
    178  816a		       30 03		      BMI	CONTSEL	;		  ;IF HIT, START GAME
    179  816c		       4c 60 82    SELRES     JMP	GOTORES
    180  816f		       ad 82 02    CONTSEL    LDA	SWCHB
    181  8172		       4a		      LSR
    182  8173		       90 f7		      BCC	SELRES	;		   ;SEE IF RESET HIT DURING SELECT
    183  8175							;*THIS SECTION KEEPS UP THE SELECTION DISPLAY
    184  8175		       a9 2f		      LDA	#47	;		      ;PLAYERS TYPE
    185  8177		       8d 1a 1e 	      STA	TYPE+71	;		  ;STORE IN TYPE LIST
    186  817a		       a9 28		      LDA	#40
    187  817c		       8d 62 1e 	      STA	XCORD+71
    188  817f		       a9 84		      LDA	#132
    189  8181		       8d aa 1e 	      STA	YCORD+71
    190  8184		       8d 64 1e 	      STA	YCORD+1
    191  8187		       a9 01		      LDA	#1
    192  8189		       8d f2 1e 	      STA	ANGLE+71
    193  818c		       8d ac 1e 	      STA	ANGLE+1
    194  818f		       a0 30		      LDY	#48
    195  8191		       ad 23 27 	      LDA	TWOPLAYR	;		 ;GET TWOPLAYER REGISTER
    196  8194		       f0 01		      BEQ	SHOWONE
    197  8196		       c8		      INY
    198  8197				   SHOWONE		;				 ;"1" TYPE
    199  8197		       8c d4 1d 	      STY	TYPE+1
    200  819a		       a9 5a		      LDA	#90
    201  819c		       8d 1c 1e 	      STA	XCORD+1
    202  819f							;THIS SECTION PUTS UP THE PLAY LEVEL
    203  819f		       a9 2e		      LDA	#46	;		      ;"LEVEL" TYPE
    204  81a1		       8d d5 1d 	      STA	TYPE+2
    205  81a4		       a9 28		      LDA	#40
    206  81a6		       8d 1d 1e 	      STA	XCORD+2
    207  81a9		       a9 90		      LDA	#144
    208  81ab		       8d 65 1e 	      STA	YCORD+2
    209  81ae		       8d 66 1e 	      STA	YCORD+3
    210  81b1		       a9 01		      LDA	#1
    211  81b3		       8d ad 1e 	      STA	ANGLE+2
    212  81b6		       8d ae 1e 	      STA	ANGLE+3
    213  81b9		       a0 2c		      LDY	#44
    214  81bb		       ad 22 27 	      LDA	LEVELSEL	;		 ;GET LEVEL SELECTION REGISTER
    215  81be		       30 04		      BMI	DONOVICE	;		 ;$FF IS NOVICE
    216  81c0		       d0 03		      BNE	FINLEVEL	;		 ;1 IS EXPERT, 0 IS ADVANCED
    217  81c2		       88		      DEY
    218  81c3		       88		      DEY		;			      ;43 IS ADVANCED
    219  81c4		       c8	   DONOVICE   INY		;			      ;45 IS NOVICE
    220  81c5		       8c d6 1d    FINLEVEL   STY	TYPE+3	;		   ;44 IS EXPERT
    221  81c8		       a9 50		      LDA	#80
    222  81ca		       8d 1e 1e 	      STA	XCORD+3
    223  81cd							;THIS SECTION DOES THE SELECTION ADVANCE
    224  81cd		       c6 90		      DEC	SELTIMER	;		 ;SEE IF TIME TO LOOK AT JOYSTICK
    225  81cf		       d0 39		      BNE	ENDSEL
    226  81d1		       a9 14		      LDA	#20
    227  81d3		       85 90		      STA	SELTIMER	;		 ;RESET SELTIMER
    228  81d5		       ad 80 02 	      LDA	SWCHA	;		    ;GET JOYSTICK INPUT
    229  81d8		       09 0f		      ORA	#$0F	;		     ;BOOT PLAYER 2 INPUT
    230  81da		       c9 ff		      CMP	#$FF
    231  81dc		       f0 3c		      BEQ	CHKSWB	;		   ;LOOK AT LOCAL INPUT
    232  81de		       0a		      ASL
    233  81df		       90 14		      BCC	INCDIFF	;		  ;INC DIFFICULTY
    234  81e1		       0a		      ASL
    235  81e2		       90 1e		      BCC	DECDIFF	;		  ;DEC DIFFICULTY
    236  81e4		       0a		      ASL
    237  81e5		       b0 07		      BCS	INCPLYR
    238  81e7		       a9 00		      LDA	#0
    239  81e9		       8d 23 27 	      STA	TWOPLAYR	;		 ;SET PLAYERS TO 1
    240  81ec		       f0 1c		      BEQ	ENDSEL
    241  81ee		       a9 01	   INCPLYR    LDA	#1
    242  81f0		       8d 23 27 	      STA	TWOPLAYR	;		 ;SET PLAYERS TO 2
    243  81f3		       d0 15		      BNE	ENDSEL
    244  81f5		       ad 22 27    INCDIFF    LDA	LEVELSEL	;		 ;GET LEVEL SELECTION REG
    245  81f8		       c9 01		      CMP	#1
    246  81fa		       f0 0e		      BEQ	ENDSEL
    247  81fc		       ee 22 27 	      INC	LEVELSEL
    248  81ff		       4c 96 80 	      JMP	TITLOOP
    249  8202		       ad 22 27    DECDIFF    LDA	LEVELSEL
    250  8205		       30 03		      BMI	ENDSEL
    251  8207		       ce 22 27 	      DEC	LEVELSEL
    252  820a				   ENDSEL
    253  820a		       c6 dc		      DEC	BOZO2
    254  820c		       d0 09		      BNE	ENDSELL
    255  820e		       c6 dd		      DEC	BOZO3
    256  8210		       d0 05		      BNE	ENDSELL
    257  8212		       a9 00		      LDA	#0
    258  8214		       8d 20 27 	      STA	SELECT	;		   GO BACK TO GAME LOOP
    259  8217		       4c 96 80    ENDSELL    JMP	TITLOOP
    260  821a		       ad 82 02    CHKSWB     LDA	SWCHB
    261  821d		       4a		      LSR
    262  821e		       4a		      LSR		;			;LOOK AT SELECT INPUT
    263  821f		       b0 0d		      BCS	NOSEL
    264  8221							;SELECT ACTIVE, NEED TO SEE IF WAS ACTIVE BEFORE
    265  8221		       a5 92		      LDA	SELTGL
    266  8223		       d0 0f		      BNE	CHKTIMER	;		 ;WAS ON, CHECK IF TIME TO INC OPTIONS
    267  8225		       e6 92		      INC	SELTGL	;		   ;SET TOGGLE TO ON
    268  8227		       a9 05		      LDA	#5
    269  8229		       85 91		      STA	SELDELAY	;		 ;INITIALIZE SELECT DELAY
    270  822b		       4c 3c 82 	      JMP	INCOPTNS	;		 ;WASN"T ON, MUST INC OPTIONS
    271  822e		       a9 00	   NOSEL      LDA	#0
    272  8230		       85 92		      STA	SELTGL	;		   ;SET SELECT TOGGLE TO OFF
    273  8232		       f0 d6		      BEQ	ENDSEL
    274  8234		       c6 91	   CHKTIMER   DEC	SELDELAY
    275  8236		       10 d2		      BPL	ENDSEL	;		   ;NOT LONG ENOUGH BETWEEN OPTION CHNG
    276  8238		       a9 05		      LDA	#05
    277  823a		       85 91		      STA	SELDELAY
    278  823c		       ad 22 27    INCOPTNS   LDA	LEVELSEL
    279  823f		       c9 01		      CMP	#1	;		       ;SEE IF HIGHEST LEVEL
    280  8241		       f0 06		      BEQ	CHPLYER	;		  ;IF HIGHEST LEVEL, CHANGE PLAYER #
    281  8243		       ee 22 27 	      INC	LEVELSEL
    282  8246		       4c 0a 82 	      JMP	ENDSEL
    283  8249		       a9 ff	   CHPLYER    LDA	#$FF
    284  824b		       8d 22 27 	      STA	LEVELSEL	;		 ;RESET LEVEL TO LOWEST SETTING
    285  824e		       ad 23 27 	      LDA	TWOPLAYR
    286  8251		       f0 07		      BEQ	CHPLYER1
    287  8253		       a9 00		      LDA	#0
    288  8255		       8d 23 27 	      STA	TWOPLAYR	;		 ;SET TO ONE PLAYER
    289  8258		       f0 b0		      BEQ	ENDSEL
    290  825a		       ee 23 27    CHPLYER1   INC	TWOPLAYR	;		 ;SET TO TWO PLAYERS
    291  825d		       4c 0a 82 	      JMP	ENDSEL
    292  8260				   GOTORES
    293  8260							;CALL GALAGA TUNE HERE
    294  8260		       20 d0 d3 	      JSR	SCRAPALL
    295  8263		       a9 00		      LDA	#0
    296  8265		       20 03 d4 	      JSR	TUNIN
    297  8268		       a9 01		      LDA	#1
    298  826a		       20 03 d4 	      JSR	TUNIN
    299  826d		       a9 20		      LDA	#$20	;		     ;PREVENT SHOT FIRE
    300  826f		       85 a9		      STA	MISTIMER
    301  8271		       a9 00		      LDA	#0
    302  8273		       85 b0		      STA	AUTOPLAY	;		 ;CLEAR AUTOPLAY MODE
    303  8275		       8d 20 27 	      STA	SELECT	;		   ;CLEAR SELECT MODE
    304  8278		       20 7d 82 	      JSR	CLRSCORE
    305  827b		       30 13		      BMI	ATITOUT	;		  ;CLRSCORE RETURNS MINUS
    306  827d		       a2 05	   CLRSCORE   LDX	#5
    307  827f		       9d 24 27    ZZLOP      STA	P1SCORE,X	;		;ZERO OUT THE SCORES
    308  8282		       ca		      DEX
    309  8283		       10 fa		      BPL	ZZLOP
    310  8285		       a9 0a		      LDA	#$A
    311  8287		       a2 0f		      LDX	#15
    312  8289		       9d 5c 27    ZZZLOP     STA	SCORE,X	;		  ;BLANK OUT THE SCORE DISPLAY
    313  828c		       ca		      DEX
    314  828d		       10 fa		      BPL	ZZZLOP
    315  828f		       60		      RTS
    316  8290		       a9 04	   ATITOUT    LDA	#4
    317  8292		       85 b1		      STA	LIVES
    318  8294		       ae 23 27 	      LDX	TWOPLAYR
    319  8297		       f0 02		      BEQ	ZILOUT
    320  8299		       85 b2		      STA	LIVES+1
    321  829b		       ad 22 27    ZILOUT     LDA	LEVELSEL
    322  829e		       30 14		      BMI	LOWRACK
    323  82a0		       f0 12		      BEQ	LOWRACK
    324  82a2		       a9 02		      LDA	#2
    325  82a4		       85 5a		      STA	CHALNUM	;		  ;START W/ CHAL STG NUMBER 3
    326  82a6		       a9 05		      LDA	#5
    327  82a8		       85 49		      STA	WAVEREG	;		  ;INIT WAVEREG TO RACK 10
    328  82aa		       a9 10		      LDA	#$10
    329  82ac		       85 43		      STA	GASTONHK	;		 ;STORE BCD RECORD OF RACK
    330  82ae		       a9 0a		      LDA	#10
    331  82b0		       85 5b		      STA	CHALINDX	;		 ;INIT CHALINDX TO RACK 10
    332  82b2		       d0 04		      BNE	LOWRACK1
    333  82b4		       a9 01	   LOWRACK    LDA	#1
    334  82b6		       85 43		      STA	GASTONHK	;		 ;STORE BCD RECORD OF RACK
    335  82b8		       85 42	   LOWRACK1   STA	RACK
    336  82ba		       85 75		      STA	RLOGO
    337  82bc		       a9 00		      LDA	#0
    338  82be		       a2 47		      LDX	#71
    339  82c0		       9d d3 1d    XXERO      STA	TYPE,X
    340  82c3		       9d ab 1e 	      STA	ANGLE,X
    341  82c6		       9d 77 1f 	      STA	MODE,X	;		   ;ZERO OUT MODE AS WELL
    342  82c9		       ca		      DEX
    343  82ca		       10 f4		      BPL	XXERO
    344  82cc		       a9 05		      LDA	#5
    345  82ce		       8d 12 1e 	      STA	TYPE+63
    346  82d1		       a9 80		      LDA	#$80
    347  82d3		       85 bd		      STA	RACKREG
    348  82d5		       8d ea 1e 	      STA	ANGLE+63
    349  82d8		       8d e9 1e 	      STA	ANGLE+62
    350  82db		       a9 ab		      LDA	#171
    351  82dd		       8d a2 1e 	      STA	YCORD+63
    352  82e0		       a9 00		      LDA	#0
    353  82e2		       8d 9f 1f 	      STA	MODE+40
    354  82e5		       8d 11 1e 	      STA	TYPE+62
    355  82e8		       8d b6 1f 	      STA	MODE+63
    356  82eb		       a0 23		      LDY	#35
    357  82ed				   ZCOPY		;				 ;SAVE ALL 2ND PLAYER VARIABLES
    358  82ed		       b9 40 00 	      LDA	ARRIVED,Y
    359  82f0		       99 2b 27 	      STA	SAVES,Y
    360  82f3		       88		      DEY
    361  82f4		       10 f7		      BPL	ZCOPY
    362  82f6		       a9 4f		      LDA	#$4F
    363  82f8		       85 bb		      STA	RDYREG	;		   ;GIVE INITIAL DELAY TO GAME
    364  82fa		       a9 01		      LDA	#1
    365  82fc		       85 60		      STA	ABORT	;		    ;GIVE GAME DELAY
    366  82fe				   BLOOP
    367  82fe		       a5 74		      LDA	FRAME
    368  8300		       30 fc		      BMI	BLOOP
    369  8302		       20 3a 89 	      JSR	UPENLIST
    370  8305		       20 dc ce 	      JSR	COLDET1
    371  8308		       20 c6 d0 	      JSR	COLDET2
    372  830b		       20 c6 9b 	      JSR	ATTACK
    373  830e		       20 cf 93 	      JSR	ADDSCORE
    374  8311		       20 70 98 	      JSR	TOFIRE
    375  8314		       20 50 92 	      JSR	HEROSPIN
    376  8317		       20 20 83 	      JSR	CHBONUS
    377  831a		       20 b6 84 	      JSR	WORDS
    378  831d		       4c fe 82 	      JMP	BLOOP
    379  8320				   CHBONUS
    380  8320		       a5 8d		      LDA	SCRTIME	;		  ;SEE IF TIME FOR SCORE DISPLAY
    381  8322		       d0 03		      BNE	CHBONUS1
    382  8324		       4c a5 84 	      JMP	ENDBONS2
    383  8327							;*WILL NOT LEAVE THIS LOOP UNTIL DONE WITH ALL DISPLAY
    384  8327		       a9 01	   CHBONUS1   LDA	#1
    385  8329		       a0 41		      LDY	#65
    386  832b		       99 ab 1e    CHBONUS2   STA	ANGLE,Y	;		  ;SET ALL ANGLES TO 1
    387  832e		       c8		      INY
    388  832f		       c0 48		      CPY	#72
    389  8331		       d0 f8		      BNE	CHBONUS2
    390  8333		       20 e2 88 	      JSR	CLREXPLO	;		 CLEAR ANY REMAINING EXPLOSIONS
    391  8336		       a5 8a		      LDA	CHALSCR	;		  ;GET SCORE FOR STAGE
    392  8338		       c9 40		      CMP	#$40	;		     ;SEE IF PERFECT SCORE
    393  833a		       d0 0d		      BNE	NOFANFR
    394  833c		       a9 11		      LDA	#17
    395  833e		       20 03 d4 	      JSR	TUNIN
    396  8341		       a9 12		      LDA	#18
    397  8343		       20 03 d4 	      JSR	TUNIN	;		    ;CALL PERFECT SCORE FANFARE
    398  8346		       4c 53 83 	      JMP	NOFAN2
    399  8349		       a9 13	   NOFANFR    LDA	#19
    400  834b		       20 03 d4 	      JSR	TUNIN
    401  834e		       a9 14		      LDA	#20
    402  8350		       20 03 d4 	      JSR	TUNIN	;		    ;CALL REGULAR STATS MUSIC
    403  8353		       a9 00	   NOFAN2     LDA	#0
    404  8355		       8d 0b 1e 	      STA	TYPE+56
    405  8358		       8d 0c 1e 	      STA	TYPE+57	;		  ;CLEAR OUT HERO MISSILES
    406  835b		       a9 24		      LDA	#36	;		      ;"NUMBER OF HITS" TYPE
    407  835d		       8d 14 1e 	      STA	TYPE+65
    408  8360		       a9 48		      LDA	#72
    409  8362		       8d a4 1e 	      STA	YCORD+65
    410  8365		       a9 1a		      LDA	#26
    411  8367		       8d 5c 1e 	      STA	XCORD+65
    412  836a		       a9 5a		      LDA	#90
    413  836c		       85 8d		      STA	SCRTIME	;		  ;USE THIS AS A TEMP LOCATION
    414  836e		       20 a6 84 	      JSR	SCRDELAY	;		 ;WAIT 60 FRAMES
    415  8371		       a5 8a		      LDA	CHALSCR
    416  8373		       4a		      LSR
    417  8374		       4a		      LSR
    418  8375		       4a		      LSR
    419  8376		       4a		      LSR		;			      ;GET RID OF LOWER NIBBLE
    420  8377		       8d ed 1e 	      STA	ANGLE+66
    421  837a		       8d f0 1e 	      STA	ANGLE+69
    422  837d		       85 6d		      STA	TEMP4	;		    ;HIGH DIGIT OF SCORE
    423  837f		       f0 05		      BEQ	NOZEROS	;		  ;DONT SHOW IF LEADING ZERO
    424  8381		       a9 28		      LDA	#40	;		      ;DIGIT TYPE
    425  8383		       8d 15 1e 	      STA	TYPE+66
    426  8386		       a9 28	   NOZEROS    LDA	#40
    427  8388		       8d 16 1e 	      STA	TYPE+67
    428  838b		       a9 48		      LDA	#72
    429  838d		       8d a5 1e 	      STA	YCORD+66
    430  8390		       8d a6 1e 	      STA	YCORD+67
    431  8393		       a9 71		      LDA	#113
    432  8395		       8d 5d 1e 	      STA	XCORD+66
    433  8398		       a9 51		      LDA	#81
    434  839a		       8d 60 1e 	      STA	XCORD+69
    435  839d		       a9 77		      LDA	#119
    436  839f		       8d 5e 1e 	      STA	XCORD+67
    437  83a2		       a9 57		      LDA	#87
    438  83a4		       8d 61 1e 	      STA	XCORD+70
    439  83a7		       a5 8a		      LDA	CHALSCR
    440  83a9		       29 0f		      AND	#$0F	;		     ;BOOT HIGH NIBBLE
    441  83ab		       8d ee 1e 	      STA	ANGLE+67
    442  83ae		       8d f1 1e 	      STA	ANGLE+70
    443  83b1		       0a		      ASL
    444  83b2		       0a		      ASL
    445  83b3		       0a		      ASL
    446  83b4		       0a		      ASL
    447  83b5		       85 6e		      STA	TEMP5	;		    ;LOW BYTE OF SCORE
    448  83b7		       a9 5a		      LDA	#90
    449  83b9		       85 8d		      STA	SCRTIME
    450  83bb		       20 a6 84 	      JSR	SCRDELAY	;		 ;WAIT 60 FRAMES
    451  83be		       a5 8a		      LDA	CHALSCR
    452  83c0		       c9 40		      CMP	#$40	;		     ;SEE IF PERFECT SCORE
    453  83c2		       f0 4e		      BEQ	PRFCTSCR
    454  83c4		       a9 27		      LDA	#39
    455  83c6		       8d 17 1e 	      STA	TYPE+68	;		  ;SET "BONUS" TYPE
    456  83c9		       a9 60		      LDA	#96
    457  83cb		       8d a7 1e 	      STA	YCORD+68
    458  83ce		       8d a8 1e 	      STA	YCORD+69
    459  83d1		       8d a9 1e 	      STA	YCORD+70
    460  83d4		       8d aa 1e 	      STA	YCORD+71
    461  83d7		       a9 2d		      LDA	#45
    462  83d9		       8d 5f 1e 	      STA	XCORD+68
    463  83dc		       a9 5a		      LDA	#90
    464  83de		       85 8d		      STA	SCRTIME
    465  83e0		       20 a6 84 	      JSR	SCRDELAY	;		 ;WAIT 60 FRAMES
    466  83e3		       a9 28		      LDA	#40	;		      ;DIGIT TYPE
    467  83e5		       8d 18 1e 	      STA	TYPE+69
    468  83e8		       8d 19 1e 	      STA	TYPE+70
    469  83eb		       ad f0 1e 	      LDA	ANGLE+69	;		 ;SEE IF IS ZERO
    470  83ee		       d0 0b		      BNE	NOTXERO
    471  83f0		       8d 18 1e 	      STA	TYPE+69	;		  ;DONT SHOW IT
    472  83f3		       ad f1 1e 	      LDA	ANGLE+70
    473  83f6		       d0 03		      BNE	NOTXERO
    474  83f8		       8d 19 1e 	      STA	TYPE+70	;		  ;DONT SHOW IT
    475  83fb		       20 cf 93    NOTXERO    JSR	ADDSCORE
    476  83fe		       a9 2a		      LDA	#42	;		      ;DOUBLE ZERO TYPE
    477  8400		       8d 1a 1e 	      STA	TYPE+71
    478  8403		       a9 5d		      LDA	#93
    479  8405		       8d 62 1e 	      STA	XCORD+71
    480  8408		       a9 b0		      LDA	#$B0
    481  840a		       85 8d		      STA	SCRTIME
    482  840c		       20 a6 84 	      JSR	SCRDELAY
    483  840f		       4c 97 84 	      JMP	ENDBONUS
    484  8412		       a9 25	   PRFCTSCR   LDA	#37
    485  8414		       8d 1a 1e 	      STA	TYPE+71
    486  8417		       a9 30		      LDA	#48
    487  8419		       8d aa 1e 	      STA	YCORD+71
    488  841c		       a9 3c		      LDA	#60
    489  841e		       8d 62 1e 	      STA	XCORD+71
    490  8421		       a9 1e		      LDA	#30
    491  8423		       85 8d		      STA	SCRTIME
    492  8425		       20 a6 84 	      JSR	SCRDELAY	;		 ;PERFECT ON
    493  8428		       a9 00		      LDA	#0
    494  842a		       8d 1a 1e 	      STA	TYPE+71
    495  842d		       a9 1e		      LDA	#30
    496  842f		       85 8d		      STA	SCRTIME
    497  8431		       20 a6 84 	      JSR	SCRDELAY	;		 ;PERFECT OFF
    498  8434		       a9 25		      LDA	#37
    499  8436		       8d 1a 1e 	      STA	TYPE+71
    500  8439		       a9 26		      LDA	#38
    501  843b		       8d 17 1e 	      STA	TYPE+68	;		  ;"SPECIAL BONUS" TYPE
    502  843e		       a9 14		      LDA	#20
    503  8440		       8d 5f 1e 	      STA	XCORD+68
    504  8443		       a9 60		      LDA	#96
    505  8445		       8d a7 1e 	      STA	YCORD+68
    506  8448		       a9 1e		      LDA	#30
    507  844a		       85 8d		      STA	SCRTIME
    508  844c		       20 a6 84 	      JSR	SCRDELAY	;		 ;PERFECT ON
    509  844f		       a9 00		      LDA	#0
    510  8451		       8d 1a 1e 	      STA	TYPE+71
    511  8454		       a9 1e		      LDA	#30
    512  8456		       85 8d		      STA	SCRTIME
    513  8458		       20 a6 84 	      JSR	SCRDELAY	;		 ;PERFECT OFF
    514  845b		       a9 25		      LDA	#37
    515  845d		       8d 1a 1e 	      STA	TYPE+71
    516  8460		       a9 00		      LDA	#0
    517  8462		       85 6e		      STA	TEMP5
    518  8464		       a9 0a		      LDA	#10
    519  8466		       85 6d		      STA	TEMP4	;		    ;GIVES SCORE OF 10,00 BONUS
    520  8468		       20 cf 93 	      JSR	ADDSCORE
    521  846b		       a9 29		      LDA	#41
    522  846d		       8d 18 1e 	      STA	TYPE+69	;		  ;TEN THOUSAND TYPE
    523  8470		       a9 01		      LDA	#1
    524  8472		       8d f0 1e 	      STA	ANGLE+69	;		 ;RESET THE ANGLE
    525  8475		       a9 60		      LDA	#96
    526  8477		       8d a8 1e 	      STA	YCORD+69
    527  847a		       a9 6b		      LDA	#107
    528  847c		       8d 60 1e 	      STA	XCORD+69
    529  847f		       a9 1e		      LDA	#30
    530  8481		       85 8d		      STA	SCRTIME
    531  8483		       20 a6 84 	      JSR	SCRDELAY	;		 ;PERFECT ON
    532  8486		       a9 00		      LDA	#0
    533  8488		       8d 1a 1e 	      STA	TYPE+71
    534  848b		       a9 1e		      LDA	#30
    535  848d		       85 8d		      STA	SCRTIME
    536  848f		       20 a6 84 	      JSR	SCRDELAY	;		 ;PERFECT OFF
    537  8492		       a9 25		      LDA	#37
    538  8494		       8d 1a 1e 	      STA	TYPE+71
    539  8497		       a9 00	   ENDBONUS   LDA	#0
    540  8499		       a0 41		      LDY	#65
    541  849b		       99 d3 1d    ENDBONS1   STA	TYPE,Y
    542  849e		       c8		      INY
    543  849f		       c0 48		      CPY	#72
    544  84a1		       30 f8		      BMI	ENDBONS1	;		 ;CLEAR ALL TYPES
    545  84a3		       85 8a		      STA	CHALSCR	;		  ;RESET SCORE REGISTER
    546  84a5							;	   LDA	   XCORD+63
    547  84a5							;	  STA	  HEROX;		  ;RESET HEROS POSITION
    548  84a5		       60	   ENDBONS2   RTS
    549  84a6		       c6 74	   SCRDELAY   DEC	FRAME	;		    ;THIS SUBROUTINE CAUSES A DELAY
    550  84a8		       a5 74	   SCRDLY1    LDA	FRAME	;		    ;DELAY LENGTH IS STORED IN SCRTIME
    551  84aa		       30 fc		      BMI	SCRDLY1
    552  84ac		       c6 8d		      DEC	SCRTIME
    553  84ae		       f0 05		      BEQ	SCRDLY2
    554  84b0		       c6 74		      DEC	FRAME
    555  84b2		       4c a8 84 	      JMP	SCRDLY1
    556  84b5		       60	   SCRDLY2    RTS
    557  84b6		       a5 bb	   WORDS      LDA	RDYREG	;		   ;SEE IF READY SHOULD BE DISPLAYED
    558  84b8		       f0 29		      BEQ	WORDS0	;		   ;GO TO NEXT WORD SECTION
    559  84ba		       38		      SEC
    560  84bb		       e9 01		      SBC	#1
    561  84bd		       85 bb		      STA	RDYREG
    562  84bf		       f0 1b		      BEQ	WORDS1	;		   ;RESET LOGO
    563  84c1		       c9 4e		      CMP	#$4E	;		     ;SEE IF FIRST TIME THROUGH
    564  84c3		       d0 1e		      BNE	WORDS0	;		   ;GO TO NEXT WORD SECTION
    565  84c5							;THIS SECTION DISPLAYS THE "READY" LOGO
    566  84c5		       a9 1a		      LDA	#26	;		      ;THIS IS READY TYPE
    567  84c7		       8d 14 1e 	      STA	TYPE+65
    568  84ca		       a9 60		      LDA	#96
    569  84cc		       8d a4 1e 	      STA	YCORD+65
    570  84cf		       a9 41		      LDA	#65
    571  84d1		       8d 5c 1e 	      STA	XCORD+65
    572  84d4		       a9 01		      LDA	#1
    573  84d6		       8d ec 1e 	      STA	ANGLE+65
    574  84d9		       4c e3 84 	      JMP	WORDS0
    575  84dc		       a9 00	   WORDS1     LDA	#0
    576  84de		       85 60		      STA	ABORT	;		    ;RESET ABORT REGISTER
    577  84e0		       8d 14 1e 	      STA	TYPE+65
    578  84e3							;THIS SECTION DISPLAYS THE "PLAYER X" LOGO
    579  84e3		       a5 be	   WORDS0     LDA	PLAYRREG
    580  84e5		       f0 54		      BEQ	WORDS2	;		   ;GO TO NEXT SECTION
    581  84e7		       38		      SEC
    582  84e8		       e9 01		      SBC	#1
    583  84ea		       85 be		      STA	PLAYRREG
    584  84ec		       f0 45		      BEQ	WORDS3	;		   ;RESET LOGO
    585  84ee		       c9 4e		      CMP	#$4E
    586  84f0		       d0 49		      BNE	WORDS2	;		   ;GO TO NEXT SECTION
    587  84f2		       a9 19		      LDA	#25
    588  84f4		       8d 15 1e 	      STA	TYPE+66
    589  84f7		       a9 54		      LDA	#84
    590  84f9		       8d a5 1e 	      STA	YCORD+66
    591  84fc		       a9 37		      LDA	#55
    592  84fe		       8d 5d 1e 	      STA	XCORD+66
    593  8501		       a9 01		      LDA	#1
    594  8503		       8d ed 1e 	      STA	ANGLE+66
    595  8506							;DISPLAY  "1" OR "2"
    596  8506		       a5 bf		      LDA	GMOVEREG
    597  8508		       f0 09		      BEQ	WPLAYER0
    598  850a		       a5 ae		      LDA	PLAYER
    599  850c		       d0 0e		      BNE	WPLAYER1
    600  850e		       a9 20		      LDA	#32
    601  8510		       4c 1e 85 	      JMP	WPLAYER2
    602  8513		       a5 ae	   WPLAYER0   LDA	PLAYER
    603  8515		       f0 05		      BEQ	WPLAYER1
    604  8517		       a9 20		      LDA	#32
    605  8519		       4c 1e 85 	      JMP	WPLAYER2	;		 ;PLAYER 2 TYPE
    606  851c		       a9 1f	   WPLAYER1   LDA	#31	;		      ;PLAYER 1 TYPE
    607  851e		       8d 16 1e    WPLAYER2   STA	TYPE+67
    608  8521		       a9 54		      LDA	#84
    609  8523		       8d a6 1e 	      STA	YCORD+67
    610  8526		       a9 5f		      LDA	#95
    611  8528		       8d 5e 1e 	      STA	XCORD+67
    612  852b		       a9 01		      LDA	#1
    613  852d		       8d ee 1e 	      STA	ANGLE+67
    614  8530		       4c 3b 85 	      JMP	WORDS2
    615  8533		       a9 00	   WORDS3     LDA	#0
    616  8535		       8d 15 1e 	      STA	TYPE+66	;		  ;RESET LOGO
    617  8538		       8d 16 1e 	      STA	TYPE+67
    618  853b							;THIS SECTION HANDLES A "CHALLENGING STAGE"
    619  853b		       a5 bc	   WORDS2     LDA	CHLNGREG
    620  853d		       f0 3a		      BEQ	WORDS4	;		   ;GO TO NEXT SECTION
    621  853f		       38		      SEC
    622  8540		       e9 01		      SBC	#1
    623  8542		       85 bc		      STA	CHLNGREG
    624  8544		       f0 2b		      BEQ	WORDS5	;		   ;RESET LOGO
    625  8546		       c9 4e		      CMP	#$4E
    626  8548		       d0 2f		      BNE	WORDS4	;		   ;GO TO NEXT SECTION
    627  854a		       20 e2 88 	      JSR	CLREXPLO
    628  854d		       a0 1d		      LDY	#29
    629  854f		       8c 14 1e 	      STY	TYPE+65
    630  8552		       c8		      INY		;			      ;Y NOW HAS 30
    631  8553		       8c 15 1e 	      STY	TYPE+66
    632  8556		       8c 5c 1e 	      STY	XCORD+65
    633  8559		       a9 60		      LDA	#96
    634  855b		       8d a4 1e 	      STA	YCORD+65
    635  855e		       8d a5 1e 	      STA	YCORD+66
    636  8561		       a9 64		      LDA	#100
    637  8563		       8d 5d 1e 	      STA	XCORD+66
    638  8566		       a9 01		      LDA	#1
    639  8568		       8d ec 1e 	      STA	ANGLE+65
    640  856b		       8d ed 1e 	      STA	ANGLE+66
    641  856e		       4c 79 85 	      JMP	WORDS4
    642  8571		       a9 00	   WORDS5     LDA	#0
    643  8573		       8d 14 1e 	      STA	TYPE+65
    644  8576		       8d 15 1e 	      STA	TYPE+66
    645  8579							;THIS SECTION HANDLES "GAME OVER"
    646  8579		       a5 bf	   WORDS4     LDA	GMOVEREG
    647  857b		       d0 03		      BNE	NOWORDS6	;		   ;GO TO NEXT SECTION
    648  857d		       4c 17 86    GOWORDS6   JMP	WORDS6
    649  8580		       38	   NOWORDS6   SEC
    650  8581		       e9 01		      SBC	#1
    651  8583		       85 bf		      STA	GMOVEREG
    652  8585		       d0 03		      BNE	PISMEOFF
    653  8587		       4c 0a 86 	      JMP	WORDS7	;		   ;RESET LOGO
    654  858a		       c9 4e	   PISMEOFF   CMP	#$4E
    655  858c		       d0 ef		      BNE	GOWORDS6	;		 ;GO TO NEXT SECTION
    656  858e		       20 e2 88 	      JSR	CLREXPLO
    657  8591		       a9 1c		      LDA	#28
    658  8593		       8d 17 1e 	      STA	TYPE+68
    659  8596		       a9 60		      LDA	#96
    660  8598		       8d a7 1e 	      STA	YCORD+68
    661  859b		       a9 37		      LDA	#55
    662  859d		       8d 5f 1e 	      STA	XCORD+68
    663  85a0		       a9 01		      LDA	#1
    664  85a2		       8d ef 1e 	      STA	ANGLE+68
    665  85a5		       a5 af		      LDA	GAMEOVER
    666  85a7		       f0 6e		      BEQ	WORDS6	;		   ;GAME NOT OVER, GO ON
    667  85a9		       a9 01		      LDA	#1
    668  85ab		       85 b1		      STA	LIVES	;		    ;KEEPS LOADER FROM BARFING
    669  85ad		       85 b2		      STA	LIVES+1
    670  85af				   WORDS8		;NOT USED
    671  85af		       a9 ff		      LDA	#$FF
    672  85b1		       85 8d		      STA	SCRTIME	;		  ;USE SCRDELAY AS A WAIT LOOP
    673  85b3		       20 a6 84 	      JSR	SCRDELAY
    674  85b6		       20 9e 87 	      JSR	STATS	;		    ;SHOW THE GAME STATS
    675  85b9		       ad 2a 27 	      LDA	FARREN
    676  85bc		       30 46		      BMI	HSCBAR
    677  85be		       a9 01		      LDA	#1
    678  85c0		       85 e5		      STA	INHSC
    679  85c2		       a0 01		      LDY	#1
    680  85c4		       a2 47		      LDX	#71
    681  85c6		       a9 00	   CLRTYPES   LDA	#0
    682  85c8		       9d d3 1d 	      STA	TYPE,X	;		   ;BOOT ALL EXTRAEOUS CHARACTERS
    683  85cb		       98		      TYA
    684  85cc		       9d ab 1e 	      STA	ANGLE,X
    685  85cf		       ca		      DEX
    686  85d0		       10 f4		      BPL	CLRTYPES
    687  85d2		       20 2f 80 	      JSR	SETLOGO	;		  ;SET UP THE LOGO DISPLAY
    688  85d5		       ad 22 27 	      LDA	LEVELSEL
    689  85d8		       18		      CLC
    690  85d9		       69 01		      ADC	#1	;		       ;DIFCULTY MUST BE 0 OR GREATER
    691  85db		       85 e6		      STA	DIFCULTY
    692  85dd		       a9 00		      LDA	#0
    693  85df		       85 ae		      STA	PLAYER
    694  85e1		       20 a3 b8 	      JSR	HSCENTER
    695  85e4		       ad 23 27 	      LDA	TWOPLAYR	;		 ;SEE IF TWO PEOPLE PLAYING
    696  85e7		       f0 07		      BEQ	ONLYONE
    697  85e9		       a9 01		      LDA	#1
    698  85eb		       85 ae		      STA	PLAYER
    699  85ed		       20 a3 b8 	      JSR	HSCENTER
    700  85f0		       a9 00	   ONLYONE    LDA	#0
    701  85f2		       85 e5		      STA	INHSC
    702  85f4		       a9 40		      LDA	#$40
    703  85f6		       85 3c		      STA	CTRLWT	;		   ;RESTART THE DLI"S
    704  85f8		       a9 22		      LDA	#<DLSTLST1
    705  85fa		       85 30		      STA	DPPL
    706  85fc		       a9 1d		      LDA	#>DLSTLST1
    707  85fe		       85 2c		      STA	DPPH
    708  8600		       a9 00		      LDA	#0
    709  8602		       85 73		      STA	DLSPTR
    710  8604		       a2 ff	   HSCBAR     LDX	#$FF
    711  8606		       9a		      TXS
    712  8607		       4c 36 b1 	      JMP	RESTART
    713  860a		       a9 00	   WORDS7     LDA	#0
    714  860c		       8d 17 1e 	      STA	TYPE+68	;		  ;RESET "GAME OVER" LOGO
    715  860f		       85 bf		      STA	GMOVEREG
    716  8611		       a9 4f		      LDA	#$4F
    717  8613		       85 bb		      STA	RDYREG
    718  8615		       85 be		      STA	PLAYRREG
    719  8617							;THIS SECTION HANDLES "FIGHTER CAPTURED"
    720  8617		       a5 c0	   WORDS6     LDA	CAPTDREG
    721  8619		       f0 39		      BEQ	WORDS10	;		   ;GO TO NEXT SECTION
    722  861b		       38		      SEC
    723  861c		       e9 01		      SBC	#1
    724  861e		       85 c0		      STA	CAPTDREG
    725  8620		       f0 2a		      BEQ	WORDS9
    726  8622		       c9 4e		      CMP	#$4E	;		     ;SEE IF FIRST TIME THROUGH
    727  8624		       d0 2e		      BNE	WORDS10	;		   ;GO TO NEXT SECTION
    728  8626		       a0 21		      LDY	#33	;		      ;FIGHTER TYPE
    729  8628		       8c 14 1e 	      STY	TYPE+65
    730  862b		       c8		      INY
    731  862c		       8c 15 1e 	      STY	TYPE+66
    732  862f		       a9 1e		      LDA	#30
    733  8631		       8d 5c 1e 	      STA	XCORD+65
    734  8634		       a9 50		      LDA	#80
    735  8636		       8d 5d 1e 	      STA	XCORD+66
    736  8639		       a9 60		      LDA	#96
    737  863b		       8d a4 1e 	      STA	YCORD+65
    738  863e		       8d a5 1e 	      STA	YCORD+66
    739  8641		       a9 01		      LDA	#1
    740  8643		       8d ec 1e 	      STA	ANGLE+65
    741  8646		       8d ed 1e 	      STA	ANGLE+66
    742  8649		       4c 54 86 	      JMP	WORDS10
    743  864c		       a9 00	   WORDS9     LDA	#0
    744  864e		       8d 14 1e 	      STA	TYPE+65
    745  8651		       8d 15 1e 	      STA	TYPE+66
    746  8654							;*THIS SECTION HANDLES AUTOPLAY MODE
    747  8654				   WORDS10
    748  8654		       a5 b0		      LDA	AUTOPLAY	;		 ;SEE IF IN  AUTOPLAY MODE
    749  8656		       f0 34		      BEQ	WORDS11
    750  8658		       24 0c		      BIT	INPT4	;		    ;LOOK AT JOYSTICK FIRE BUTTON
    751  865a		       30 09		      BMI	WORDS12	;		  ;NO INPUT, GO ON
    752  865c		       a2 ff		      LDX	#$FF
    753  865e		       9a		      TXS
    754  865f		       8e 21 27 	      STX	RSTRTREG	;		 ;INDICATE GAME RESTART
    755  8662		       4c 36 b1 	      JMP	RESTART
    756  8665				   WORDS12
    757  8665		       ad 80 02 	      LDA	SWCHA	;		    ;CHECK JOYSTICK INPUT
    758  8668		       09 0f		      ORA	#$0F	;		     ;BOOT PLAYER 2 INPUT
    759  866a		       c9 ff		      CMP	#$FF
    760  866c		       f0 0a		      BEQ	WORDS14
    761  866e		       a2 ff		      LDX	#$FF
    762  8670		       9a		      TXS
    763  8671		       8a		      TXA
    764  8672		       8d 20 27 	      STA	SELECT	;		   ;INDICATE SELECT MODE NOW
    765  8675		       4c 36 b1 	      JMP	RESTART
    766  8678		       c6 b0	   WORDS14    DEC	AUTOPLAY
    767  867a		       d0 10		      BNE	WORDS11
    768  867c		       c6 8f		      DEC	AUTOPLAZ
    769  867e		       f0 06		      BEQ	WORDS15
    770  8680		       a9 ff		      LDA	#$FF
    771  8682		       85 b0		      STA	AUTOPLAY
    772  8684		       d0 06		      BNE	WORDS11
    773  8686		       a2 ff	   WORDS15    LDX	#$FF
    774  8688		       9a		      TXS
    775  8689		       4c 36 b1 	      JMP	RESTART	;		  ;GO BACK TO TITLE PAGE DISPLAY
    776  868c							;*THIS SECTION HANDLES RESETS OR SELECTS WHICH OCCUR AT ANY TIME
    777  868c		       ad 82 02    WORDS11    LDA	SWCHB
    778  868f		       4a		      LSR
    779  8690		       b0 09		      BCS	WORDS16
    780  8692		       a2 ff		      LDX	#$FF
    781  8694		       9a		      TXS
    782  8695		       8e 21 27 	      STX	RSTRTREG	;		 ;INDICATE GAME RESTART
    783  8698		       4c 36 b1 	      JMP	RESTART
    784  869b		       4a	   WORDS16    LSR		;			;CHECK FOR SELECT SWITCH SET
    785  869c		       b0 0a		      BCS	WORDS17
    786  869e		       a2 ff		      LDX	#$FF
    787  86a0		       9a		      TXS
    788  86a1		       8a		      TXA
    789  86a2		       8d 20 27 	      STA	SELECT
    790  86a5		       4c 36 b1 	      JMP	RESTART
    791  86a8
    792  86a8		       a5 ee	   WORDS17    LDA	PAUSTOG	;		  ;SEE IF PAUSE INPUT IS VALID
    793  86aa		       0a		      ASL		;			;SET CARRY BIT IF PAUSE INVALID
    794  86ab		       90 04		      BCC	PSVALID
    795  86ad		       e6 ee		      INC	PAUSTOG	;		  WILL EVENTUALLY INC TO ZERO
    796  86af		       b0 0b		      BCS	SKIPPAUS
    797  86b1		       a9 f0	   PSVALID    LDA	#$F0
    798  86b3		       85 ee		      STA	PAUSTOG
    799  86b5		       ad 82 02 	      LDA	SWCHB
    800  86b8		       4a		      LSR
    801  86b9		       4a		      LSR
    802  86ba		       4a		      LSR
    803  86bb		       4a		      LSR
    804  86bc							;NO CARRY INDICATES PAUSE IS BEING PUSHED
    805  86bc		       24 e4	   SKIPPAUS   BIT	PAUSE
    806  86be		       10 3d		      BPL	NOPAUSON	;		 ;PAUSE WASN"T ON ALREADY
    807  86c0		       90 49		      BCC	PAUSOFF	;		  ;PAUSE WAS ON, NOW TAKE IT OFF
    808  86c2							;INC ALL COUNTERS HERE
    809  86c2		       e6 ec	   PAUSCNT    INC	PAUSECT1
    810  86c4		       d0 0c		      BNE	PAUSCNTL
    811  86c6		       e6 ed		      INC	PAUSECT2
    812  86c8		       d0 08		      BNE	PAUSCNTL
    813  86ca		       a9 ff		      LDA	#$FF
    814  86cc		       85 3c		      STA	CTRLWT	;		   ;BLANK OFF THE SCREEN DISPLAY
    815  86ce		       a9 80		      LDA	#$80
    816  86d0		       85 e4		      STA	PAUSE	;		    ;INDICATES THAT SCREEN IS OFF
    817  86d2		       ad 80 02    PAUSCNTL   LDA	SWCHA
    818  86d5		       c9 ff		      CMP	#$FF	;		     ;SEE IF ANY INPUT AT ALL
    819  86d7		       f0 12		      BEQ	PAUSFIRE	;		 ;NO INPUT, CONTINUE TO SCAN
    820  86d9		       a9 00	   PAUSFIR1   LDA	#0
    821  86db		       85 ec		      STA	PAUSECT1
    822  86dd		       a9 d0		      LDA	#$D0
    823  86df		       85 ed		      STA	PAUSECT2	;		 ;RESET THESE COUNTERS
    824  86e1		       a9 40		      LDA	#$40
    825  86e3		       85 3c		      STA	CTRLWT	;		   ;RESET THE DISPLAY
    826  86e5		       a9 ff		      LDA	#$FF
    827  86e7		       85 e4		      STA	PAUSE	;		    ;INDICATE SCREEN ON MODE AGAIN
    828  86e9		       d0 04		      BNE	PAUSWAIT
    829  86eb		       24 0c	   PAUSFIRE   BIT	INPT4	;		    ;SEE IF FIRE BUTTON HIT
    830  86ed		       10 ea		      BPL	PAUSFIR1
    831  86ef		       c6 74	   PAUSWAIT   DEC	FRAME
    832  86f1		       a5 e4	   PAUSWT     LDA	PAUSE
    833  86f3		       c9 80		      CMP	#$80	;		     ;NO DMA IN THIS MODE
    834  86f5		       f0 b1		      BEQ	WORDS17
    835  86f7		       a5 74		      LDA	FRAME
    836  86f9		       30 f6		      BMI	PAUSWT
    837  86fb		       10 ab		      BPL	WORDS17
    838  86fd
    839  86fd		       b0 1c	   NOPAUSON   BCS	WORDSEND	;		 ;PAUSE NOT ON, NO PAUSE INPUT GIVEN
    840  86ff		       a9 ff		      LDA	#$FF
    841  8701		       85 e4		      STA	PAUSE	;		    ;INDICATE PAUSE ON NOW
    842  8703		       a9 00		      LDA	#0
    843  8705		       85 19		      STA	AUDV0
    844  8707		       85 1a		      STA	AUDV1	;		    ;SILENCE CURRENT SOUNDS
    845  8709		       90 b7		      BCC	PAUSCNT	;		  ;GO TO PAUSE COUNTING ROUTINE
    846  870b
    847  870b		       a9 00	   PAUSOFF    LDA	#0
    848  870d		       85 e4		      STA	PAUSE	;		    ;CLEAR PAUSE
    849  870f		       85 74		      STA	FRAME
    850  8711		       85 ec		      STA	PAUSECT1
    851  8713		       a9 d0		      LDA	#$D0
    852  8715		       85 ed		      STA	PAUSECT2	;		 ;RESET COUNTERS
    853  8717		       a9 40		      LDA	#$40
    854  8719		       85 3c		      STA	CTRLWT	;		   ;RESET THE CONTROL WORD
    855  871b		       c6 74	   WORDSEND   DEC	FRAME	;		    ;END OF GAME LOOP
    856  871d		       60		      RTS
    857  871e
    858  871e		       0a 8c 50 4b*HSTAR      DC.B	10,140,80,75,30,20,50,130	;HORIZONTAL
    859  8726		       64 5a 82 50*	      DC.B	100,90,130,80,70,20,30,130	;POSITION
    860  872e		       14 50 55 91*	      DC.B	20,80,85,145,20,03,50,30	;FOR
    861  8736		       6e 9d 5f 7d*	      DC.B	110,157,95,125,48,11,150,37	;THE STARS
    862  873e		       26 03 5c 6f*	      DC.B	38,03,92,111,57,141,42,43
    863  8746		       41 48 1e 5f*	      DC.B	65,72,30,95,48,80,138,87
    864  874e		       18 75 09 96*	      DC.B	24,117,9,150,58,88,36,80	; For some reason 08, 09 doesnt compile for DC.B
    865  8756		       68 44 5e 1f*	      DC.B	104,68,94,31,64,07,150,111
    866  875e		       16 58 42 6d*	      DC.B	22,88,66,109,139,117,45,36
    867  8766		       2b 09 51 5e*	      DC.B	43,9,81,94,51,112,18,43
    868  876e		       1f 53 89 5a*	      DC.B	31,83,137,90,67,03,77,37
    869  8776		       7e 4e 5d 7d*	      DC.B	126,78,93,125,07,157,33,56
    870  877e		       17 03 45 73*	      DC.B	23,03,69,115,87,60,97,100
    871  8786		       37 17 4d 10*	      DC.B	55,23,77,16,146,86,45,81
    872  878e		       11 8f 2a 49*	      DC.B	17,143,42,73,51,35,58,33
    873  8796		       62 34 24 67*	      DC.B	98,52,36,103,10,71,150,111
    874  879e
    875  879e							;TWINKY    DC.B      $43,$50,$41,$48,$52,$50,$5D,$49
    876  879e
    877  879e							;TWINKX    DC.B      $28,$3E,$47,$50,$30,$57,$5B,$72
    878  879e
    879  879e				   STATS
    880  879e		       a0 46		      LDY	#70
    881  87a0		       a9 00		      LDA	#0
    882  87a2		       99 d3 1d    STATS2     STA	TYPE,Y	;		   ;ZERO OUT TYPE LIST
    883  87a5		       88		      DEY
    884  87a6		       10 fa		      BPL	STATS2
    885  87a8		       85 ae		      STA	PLAYER	;		   ;INIT TO PLAYER ONE
    886  87aa							;ASSUME RATIO = 0 BEFORE STARTING
    887  87aa							;THIS SECTION MULTIPLIES MISCNT21 BY 100
    888  87aa		       a2 01	   STATS1     LDX	#1	;		       ;MULTIPLY BY 4 AND ADD
    889  87ac		       20 bc 88 	      JSR	SHIFTMIS
    890  87af		       a2 02		      LDX	#2	;		       ;MULTIPLY BY 8 AND ADD
    891  87b1		       20 bc 88 	      JSR	SHIFTMIS
    892  87b4		       a2 00		      LDX	#0	;		       ;MULTIPLY BY 2 AND ADD
    893  87b6		       20 bc 88 	      JSR	SHIFTMIS
    894  87b9							;THIS SECTION DIVIDES MISCNT2 BY MISCNT1
    895  87b9		       a5 98		      LDA	MISCNT11
    896  87bb		       d0 04		      BNE	DIVMIS	;		   ;SEE IF THIS IS ZERO
    897  87bd		       a5 99		      LDA	MISCNT11+1
    898  87bf		       f0 2a		      BEQ	SHORATIO	;		 ;DON"T DIVIDE BY ZERO
    899  87c1		       38	   DIVMIS     SEC
    900  87c2		       a5 a2		      LDA	RATIO
    901  87c4		       e5 98		      SBC	MISCNT11
    902  87c6		       85 a2		      STA	RATIO
    903  87c8		       a5 a3		      LDA	RATIO+1
    904  87ca		       e5 99		      SBC	MISCNT11+1
    905  87cc		       85 a3		      STA	RATIO+1
    906  87ce		       a5 a4		      LDA	RATIO+2
    907  87d0		       e9 00		      SBC	#0
    908  87d2		       85 a4		      STA	RATIO+2
    909  87d4		       30 15		      BMI	SHORATIO	;		 ;SHOW RATIO WHEN THIS IS NEGATIVE
    910  87d6		       f8		      SED
    911  87d7		       18		      CLC
    912  87d8		       a5 97		      LDA	PRCNTREG	;		 ;INCREMENT THE PERCENTAGE COUNTER
    913  87da		       69 01		      ADC	#1
    914  87dc		       85 97		      STA	PRCNTREG
    915  87de		       d8		      CLD
    916  87df		       b0 03		      BCS	NOMISSES	;		 ;SEE IF HIT 100%
    917  87e1		       4c c1 87 	      JMP	DIVMIS
    918  87e4		       a4 ae	   NOMISSES   LDY	PLAYER	;		   ;GET CURRENT PLAYER DISPLAYED
    919  87e6		       a9 30		      LDA	#48	;		      ;"1" TYPE, FIRST PAGE
    920  87e8		       99 d7 1d 	      STA	TYPE+4,Y
    921  87eb		       a4 ae	   SHORATIO   LDY	PLAYER	;		   ;USES TYPE SLOTS 65,66,67,68,69,70
    922  87ed		       d0 4b		      BNE	SHORAT1	;		  ;WILL HAVE ALREADY DONE THIS
    923  87ef		       a9 19		      LDA	#25	;		      ;"PLAYER" TYPE
    924  87f1		       8d 18 1e 	      STA	TYPE+69
    925  87f4		       a9 14		      LDA	#20
    926  87f6		       8d 60 1e 	      STA	XCORD+69
    927  87f9		       a9 3c		      LDA	#60
    928  87fb		       8d a8 1e 	      STA	YCORD+69
    929  87fe		       8d a9 1e 	      STA	YCORD+70
    930  8801		       a9 01		      LDA	#1
    931  8803		       8d f0 1e 	      STA	ANGLE+69	;		 ;PLAYER
    932  8806		       8d f1 1e 	      STA	ANGLE+70	;		 ;NUMBER OF HITS
    933  8809		       8d ab 1e 	      STA	ANGLE	;		    ;1
    934  880c		       8d ac 1e 	      STA	ANGLE+1	;		  ;2
    935  880f		       a9 24		      LDA	#36
    936  8811		       8d 19 1e 	      STA	TYPE+70	;		  ;"NUMBER OF HITS" TYPE
    937  8814		       a9 46		      LDA	#70
    938  8816		       8d 61 1e 	      STA	XCORD+70
    939  8819		       a9 30		      LDA	#48	;		      ;"1" TYPE, FIRST PAGE GRAPHICS
    940  881b		       8d d3 1d 	      STA	TYPE
    941  881e		       a9 28		      LDA	#40
    942  8820		       8d 1b 1e 	      STA	XCORD
    943  8823		       8d 1c 1e 	      STA	XCORD+1
    944  8826		       a9 54		      LDA	#84
    945  8828		       8d 63 1e 	      STA	YCORD
    946  882b		       a9 6c		      LDA	#108
    947  882d		       8d 64 1e 	      STA	YCORD+1
    948  8830		       ad 23 27 	      LDA	TWOPLAYR
    949  8833		       f0 05		      BEQ	SHORAT1
    950  8835		       a9 31		      LDA	#49	;		      ;DON"T SHOW IF ONLY ONE PLAYER
    951  8837		       8d d4 1d 	      STA	TYPE+1
    952  883a		       a5 97	   SHORAT1    LDA	PRCNTREG	;		 ;GET THE PERCENT SCORE
    953  883c		       4a		      LSR
    954  883d		       4a		      LSR
    955  883e		       4a		      LSR
    956  883f		       4a		      LSR		;			      ;GET RID OF LOWER NIBBLE
    957  8840		       99 ec 1e 	      STA	ANGLE+65,Y
    958  8843		       a9 28		      LDA	#40	;		      ;DIGIT TYPE
    959  8845		       99 14 1e 	      STA	TYPE+65,Y
    960  8848		       99 16 1e 	      STA	TYPE+67,Y
    961  884b		       98		      TYA		;			      ;LOOK AT Y REG
    962  884c		       f0 04		      BEQ	SHORAT2	;		  ;SEE WHICH PLAYER
    963  884e		       a9 6c		      LDA	#108
    964  8850		       d0 02		      BNE	SHORAT3
    965  8852		       a9 54	   SHORAT2    LDA	#84
    966  8854		       99 a4 1e    SHORAT3    STA	YCORD+65,Y
    967  8857		       99 a6 1e 	      STA	YCORD+67,Y
    968  885a		       99 65 1e 	      STA	YCORD+2,Y	;		;PERCENT SIGN
    969  885d		       99 67 1e 	      STA	YCORD+4,Y	;		;100% SCORE
    970  8860		       a9 65		      LDA	#101
    971  8862		       99 1f 1e 	      STA	XCORD+4,Y
    972  8865		       a9 6b		      LDA	#107
    973  8867		       99 5c 1e 	      STA	XCORD+65,Y
    974  886a		       a9 71		      LDA	#113
    975  886c		       99 5e 1e 	      STA	XCORD+67,Y
    976  886f		       a9 77		      LDA	#119
    977  8871		       99 1d 1e 	      STA	XCORD+2,Y
    978  8874		       a9 01		      LDA	#1
    979  8876		       99 ad 1e 	      STA	ANGLE+2,Y
    980  8879		       99 af 1e 	      STA	ANGLE+4,Y
    981  887c		       a9 33		      LDA	#51
    982  887e		       99 d5 1d 	      STA	TYPE+2,Y
    983  8881		       a5 97		      LDA	PRCNTREG
    984  8883		       29 0f		      AND	#$0F	;		     ;BOOT HIGH NIBBLE
    985  8885		       99 ee 1e 	      STA	ANGLE+67,Y
    986  8888		       ad 23 27 	      LDA	TWOPLAYR	;		 ;SEE IF IN TWO PLAYER MODE
    987  888b		       f0 27		      BEQ	ONESTATS
    988  888d		       a5 ae		      LDA	PLAYER
    989  888f		       d0 23		      BNE	ONESTATS	;		 ;SEE IF ALREADY DID PLAYER 2
    990  8891		       a5 9f		      LDA	MISCNT22	;		 ;TRANSFER PLAYER2 TO PLAYER1"S REGS
    991  8893		       85 9c		      STA	MISCNT21
    992  8895		       a5 a0		      LDA	MISCNT22+1
    993  8897		       85 9d		      STA	MISCNT21+1
    994  8899		       a5 a1		      LDA	MISCNT22+2
    995  889b		       85 9e		      STA	MISCNT21+2
    996  889d		       a5 9a		      LDA	MISCNT12
    997  889f		       85 98		      STA	MISCNT11
    998  88a1		       a5 9b		      LDA	MISCNT12+1
    999  88a3		       85 99		      STA	MISCNT11+1
   1000  88a5		       a9 00		      LDA	#0
   1001  88a7		       85 a2		      STA	RATIO
   1002  88a9		       85 a3		      STA	RATIO+1
   1003  88ab		       85 a4		      STA	RATIO+2
   1004  88ad		       85 97		      STA	PRCNTREG
   1005  88af		       e6 ae		      INC	PLAYER
   1006  88b1		       4c aa 87 	      JMP	STATS1
   1007  88b4		       a9 ff	   ONESTATS   LDA	#$FF
   1008  88b6		       85 8d		      STA	SCRTIME
   1009  88b8		       20 a6 84 	      JSR	SCRDELAY	;		 ;GIVE APPROPRIATE DELAY
   1010  88bb		       60		      RTS
   1011  88bc
   1012  88bc		       18	   SHIFTMIS   CLC
   1013  88bd		       06 9e		      ASL	MISCNT21+2
   1014  88bf		       06 9d		      ASL	MISCNT21+1
   1015  88c1		       90 02		      BCC	SHIFTM1
   1016  88c3		       e6 9e		      INC	MISCNT21+2
   1017  88c5		       06 9c	   SHIFTM1    ASL	MISCNT21
   1018  88c7		       90 02		      BCC	SHIFTM2
   1019  88c9		       e6 9d		      INC	MISCNT21+1
   1020  88cb		       ca	   SHIFTM2    DEX
   1021  88cc		       10 ee		      BPL	SHIFTMIS
   1022  88ce		       18		      CLC
   1023  88cf		       a5 a2		      LDA	RATIO
   1024  88d1		       65 9c		      ADC	MISCNT21
   1025  88d3		       85 a2		      STA	RATIO
   1026  88d5		       a5 a3		      LDA	RATIO+1
   1027  88d7		       65 9d		      ADC	MISCNT21+1
   1028  88d9		       85 a3		      STA	RATIO+1
   1029  88db		       a5 a4		      LDA	RATIO+2
   1030  88dd		       65 9e		      ADC	MISCNT21+2
   1031  88df		       85 a4		      STA	RATIO+2
   1032  88e1		       60		      RTS
   1033  88e2		       a2 39	   CLREXPLO   LDX	#57
   1034  88e4		       e8	   CLREXP     INX
   1035  88e5		       bd d3 1d 	      LDA	TYPE,X
   1036  88e8		       c9 08		      CMP	#8	;		       SEE IF SOME SORT OF EXPLOSION
   1037  88ea		       30 05		      BMI	CLREXP1
   1038  88ec		       a9 00		      LDA	#0
   1039  88ee		       9d d3 1d 	      STA	TYPE,X
   1040  88f1		       e0 3d	   CLREXP1    CPX	#61
   1041  88f3		       30 ef		      BMI	CLREXP
   1042  88f5		       60		      RTS
   1043  88f6		       c6 68	   TWINKEL    DEC	TEMP1
   1044  88f8		       d0 3f		      BNE	TWINKEND
   1045  88fa		       a5 6c		      LDA	TEMP3	;		    ;USED AS A TOGGLE SWITCH
   1046  88fc		       10 07		      BPL	INCANGLE
   1047  88fe		       ce ab 1e 	      DEC	ANGLE
   1048  8901		       30 12		      BMI	RELOCATE	;		 ;MOVE STAR
   1049  8903		       10 2e		      BPL	RESETEMP
   1050  8905		       ee ab 1e    INCANGLE   INC	ANGLE
   1051  8908		       ad ab 1e 	      LDA	ANGLE
   1052  890b		       c9 07		      CMP	#7	;		       ;SEE IF DONE INCREMENTING
   1053  890d		       30 24		      BMI	RESETEMP	;		 ;NO, RESET TEMP VARIABLE
   1054  890f		       a9 ff		      LDA	#$FF
   1055  8911		       85 6c		      STA	TEMP3
   1056  8913		       d0 1e		      BNE	RESETEMP	;		 ;NOW RESET TEMP
   1057  8915		       a9 00	   RELOCATE   LDA	#0
   1058  8917		       8d ab 1e 	      STA	ANGLE
   1059  891a		       85 6c		      STA	TEMP3	;		    ;RESET TOGGLE VARIABLE
   1060  891c		       c6 da		      DEC	BOZO0
   1061  891e		       10 04		      BPL	RELOC1
   1062  8920		       a9 07		      LDA	#7
   1063  8922		       85 da		      STA	BOZO0
   1064  8924		       a5 da	   RELOC1     LDA	BOZO0
   1065  8926		       a8		      TAY
   1066  8927		       b9 68 df 	      LDA	TWINKY,Y	;		 ;GET TWINKLE Y CORD
   1067  892a		       8d 63 1e 	      STA	YCORD
   1068  892d		       b9 b4 9f 	      LDA	TWINKX,Y	;		 ;GET TWINKLE X CORD
   1069  8930		       8d 1b 1e 	      STA	XCORD
   1070  8933		       a9 03	   RESETEMP   LDA	#3
   1071  8935		       85 68		      STA	TEMP1
   1072  8937		       c6 6a		      DEC	TEMP2
   1073  8939		       60	   TWINKEND   RTS
------- FILE GLOAD.ASM
------- FILE GMIV.ASM LEVEL 2 PASS 2
      0  893a					      include	"GMIV.ASM"
      1  893a					      processor	6502
      2  893a							;GMIV.S
      3  893a							;ORG IS AFTER BLOOP
      4  893a				   UPENLIST
      5  893a		       a5 4d	   GOLIST     LDA	EXPANCC
      6  893c		       c9 7f		      CMP	#127
      7  893e		       d0 20		      BNE	INCFRM
      8  8940		       a5 4b		      LDA	EXPANR
      9  8942		       10 1c		      BPL	INCFRM
     10  8944		       e6 53	   CHTOGGLE   INC	TOGGLEM	;		  ;CHANGE FLAG IN MASTER TOGGLE
     11  8946		       a9 3f		      LDA	#63
     12  8948		       85 52		      STA	COL4
     13  894a		       a9 15		      LDA	#21
     14  894c		       85 51		      STA	COL3
     15  894e		       a9 0c		      LDA	#12
     16  8950		       85 50		      STA	COL2
     17  8952		       a9 09		      LDA	#9
     18  8954		       85 4f		      STA	COL1
     19  8956		       a9 07		      LDA	#7
     20  8958		       85 4e		      STA	COL0
     21  895a		       a9 00		      LDA	#0	;		       ;RESET POINTER TO BEGINNING OF TABLE
     22  895c		       85 4d		      STA	EXPANCC
     23  895e		       f0 0a		      BEQ	CHKMODE0
     24  8960				   INCFRM
     25  8960		       a5 56		      LDA	COUNT
     26  8962		       d0 06		      BNE	CHKMODE0
     27  8964		       e6 4a		      INC	TOGGLEM0
     28  8966		       a9 19		      LDA	#25
     29  8968		       85 56		      STA	COUNT
     30  896a		       a0 2d	   CHKMODE0   LDY	#45
     31  896c
     32  896c		       b9 d3 1d    CHKMODE    LDA	TYPE,Y
     33  896f		       d0 02		      BNE	NEND0
     34  8971		       f0 69		      BEQ	TEST
     35  8973
     36  8973		       b9 77 1f    NEND0      LDA	MODE,Y	;		   ;SEE IF IN CONSTANT OR FASTER MODE
     37  8976		       30 67		      BMI	FASTER
     38  8978
     39  8978		       29 0f	   CONSTANT   AND	#$F	;		      ;SEE IF IN SHIFTING MODE
     40  897a		       d0 14		      BNE	BOSACAP0	;		 ;SEE IF IN EXPAND MODE
     41  897c		       c0 28		      CPY	#40	;		      ;SEE IF CAPT"D HERO
     42  897e		       d0 04		      BNE	CONSTNT9
     43  8980		       a6 5d		      LDX	CHTAB40	;		  ;GET COLUMN NUMBER
     44  8982		       10 03		      BPL	CONSTNT8
     45  8984		       be 7d 93    CONSTNT9   LDX	CHTAB,Y
     46  8987		       bd 75 27    CONSTNT8   LDA	COLPOS,X
     47  898a		       99 1b 1e 	      STA	XCORD,Y
     48  898d		       4c 85 8a 	      JMP	END1
     49  8990
     50  8990		       b9 77 1f    BOSACAP0   LDA	MODE,Y
     51  8993		       29 0f		      AND	#$F
     52  8995		       c9 02		      CMP	#2	;		       ;SEE IF IN BOSS CAPTURE MODE1
     53  8997		       d0 03		      BNE	BOSSWAI0
     54  8999		       4c 3e 90 	      JMP	BOSACAP
     55  899c
     56  899c		       c9 03	   BOSSWAI0   CMP	#3	;		       ;SEE IF IN BOSS CAPTURE MODE2
     57  899e		       d0 03		      BNE	BCAPTUR0
     58  89a0		       4c 81 90 	      JMP	BOSSWAIT
     59  89a3
     60  89a3		       c9 04	   BCAPTUR0   CMP	#4	;		       ;SEE IF IN BOSS CAPTURE MODE3
     61  89a5		       d0 03		      BNE	ORIENT0
     62  89a7		       4c b3 91 	      JMP	BCAPTUR
     63  89aa		       c9 05	   ORIENT0    CMP	#5
     64  89ac		       d0 03		      BNE	HEROTWRL
     65  89ae		       4c ed 91 	      JMP	ORIENT
     66  89b1		       c9 07	   HEROTWRL   CMP	#7
     67  89b3		       d0 03		      BNE	PUTDOWN
     68  89b5		       4c 5d 91 	      JMP	TWIRL
     69  89b8		       c9 0b	   PUTDOWN    CMP	#11	;		      ;SEE IF IN HERO PUT DOWN MODE
     70  89ba		       d0 20		      BNE	TEST
     71  89bc		       a9 00		      LDA	#0
     72  89be		       8d d3 1e 	      STA	ANGLE+40
     73  89c1		       ad 8b 1e 	      LDA	YCORD+40	;		 ;SEE IF AT 171 YET
     74  89c4		       c9 ab		      CMP	#171
     75  89c6		       b0 05		      BCS	ISDOWN
     76  89c8		       ee 8b 1e 	      INC	YCORD+40
     77  89cb		       d0 0f		      BNE	TEST
     78  89cd				   ISDOWN
     79  89cd		       a9 05		      LDA	#5
     80  89cf		       8d 12 1e 	      STA	TYPE+63
     81  89d2		       a9 00		      LDA	#0
     82  89d4		       8d fb 1d 	      STA	TYPE+40
     83  89d7		       8d 9f 1f 	      STA	MODE+40
     84  89da		       85 89		      STA	NOSWITCH
     85  89dc							; HOPEFULLY, THE REST OF THE HERO PARAMETERS ARE OK
     86  89dc		       4c 85 8a    TEST       JMP	END1	;		     ;DONE WITH CONSTANT MOTIONS
     87  89df
     88  89df		       b9 77 1f    FASTER     LDA	MODE,Y	;		   ;SEE IF IN TABLEINC MODE
     89  89e2		       29 0f		      AND	#$F
     90  89e4		       d0 06		      BNE	CONTFAST
     91  89e6		       20 55 9a 	      JSR	TABLEINC
     92  89e9		       4c 85 8a 	      JMP	END1
     93  89ec
     94  89ec		       c9 01	   CONTFAST   CMP	#1	;		       ;SEE IF IN GOHOME MODE
     95  89ee		       d0 06		      BNE	CONTFST1
     96  89f0		       20 cd 8e 	      JSR	GOHOME
     97  89f3		       4c 85 8a 	      JMP	END1
     98  89f6
     99  89f6		       c9 02	   CONTFST1   CMP	#2	;		       ;SEE IF IN REAPPEAR MODE
    100  89f8		       d0 03		      BNE	NOREAPP
    101  89fa		       4c c0 8c 	      JMP	REAPPEAR
    102  89fd
    103  89fd		       c9 03	   NOREAPP    CMP	#3	;		       ;SEE IF IN BLUE ATTACK MODE
    104  89ff		       d0 4b		      BNE	REDATAK
    105  8a01		       20 8e 9e 	      JSR	BLUATK
    106  8a04		       b9 d3 1d 	      LDA	TYPE,Y
    107  8a07		       c9 0d		      CMP	#13	;		      ;SEE IF IS A SCORPION
    108  8a09		       d0 7a		      BNE	END1
    109  8a0b		       a5 a6		      LDA	METACNT	;		  ;GET META DELAY CNTR
    110  8a0d		       30 76		      BMI	END1
    111  8a0f		       38		      SEC
    112  8a10		       e9 01		      SBC	#1
    113  8a12		       85 a6		      STA	METACNT
    114  8a14		       f0 08		      BEQ	META7
    115  8a16		       c9 1e		      CMP	#30
    116  8a18		       d0 6b		      BNE	END1
    117  8a1a		       a2 2a		      LDX	#42
    118  8a1c		       d0 02		      BNE	META20
    119  8a1e		       a2 2b	   META7      LDX	#43
    120  8a20
    121  8a20		       a9 d7	   META20     LDA	#<BATBL1	;	       ;MAKE
    122  8a22		       9d f3 1e 	      STA	ML,X	;		     ;MTBLPTR AND MODE TO BE BLUE ATTACK
    123  8a25		       a9 de		      LDA	#>BATBL1
    124  8a27		       9d 36 1f 	      STA	MH,X
    125  8a2a		       a9 0d		      LDA	#13
    126  8a2c		       9d d3 1d 	      STA	TYPE,X
    127  8a2f		       a9 00		      LDA	#0
    128  8a31		       9d ab 1e 	      STA	ANGLE,X
    129  8a34		       9d 40 01 	      STA	MOMENTUM,X	;	       ;CLEAR MOMENTUM OF SHIP
    130  8a37		       bd 1b 1e 	      LDA	XCORD,X	;		  ;SEE IF ON LEFT OR RIGHT SIDE OF
    131  8a3a		       c9 50		      CMP	#80	;		      ;SCREEN AND THUS WHICH WAY TO ATTACK
    132  8a3c		       b0 04		      BCS	META21
    133  8a3e		       a9 83		      LDA	#$83
    134  8a40		       d0 02		      BNE	META22
    135  8a42		       a9 c3	   META21     LDA	#$C3
    136  8a44		       9d 77 1f    META22     STA	MODE,X
    137  8a47		       e6 88		      INC	AIRBORNE	;		 ;MAY NOT HAVE BEEN ALL THE WAY HOME
    138  8a49		       4c 85 8a 	      JMP	END1
    139  8a4c
    140  8a4c		       c9 04	   REDATAK    CMP	#4	;		       ;SEE IF IN RED ATTACK MODE
    141  8a4e		       d0 03		      BNE	ATAKBNOR
    142  8a50		       4c 3d 8e 	      JMP	ATAKRED
    143  8a53
    144  8a53		       c9 05	   ATAKBNOR   CMP	#5	;		       ;SEE IF IN BOSS ATTACK MODE1
    145  8a55		       d0 06		      BNE	ATKBOSS1
    146  8a57		       20 ac cd 	      JSR	BOSSATK1
    147  8a5a		       4c 85 8a 	      JMP	END1
    148  8a5d
    149  8a5d		       c9 06	   ATKBOSS1   CMP	#6	;		       ;SEE IF IN BOSS ATTACK MODE2
    150  8a5f		       d0 06		      BNE	ATKBOSS2
    151  8a61		       20 02 ce 	      JSR	BOSSATK2
    152  8a64		       4c 85 8a 	      JMP	END1
    153  8a67
    154  8a67		       c9 07	   ATKBOSS2   CMP	#7	;		       ;SEE IF IN BOSS ATTACK MODE3
    155  8a69		       d0 06		      BNE	ATKBOSS3
    156  8a6b		       20 3d ce 	      JSR	BOSSATK3
    157  8a6e		       4c 85 8a 	      JMP	END1
    158  8a71
    159  8a71		       c9 08	   ATKBOSS3   CMP	#8	;		       ;SEE IF IN BOSS ATTACK MODE4
    160  8a73		       d0 06		      BNE	CHALTYPE
    161  8a75		       20 93 ce 	      JSR	BOSSATK4
    162  8a78		       4c 85 8a 	      JMP	END1
    163  8a7b
    164  8a7b		       c9 09	   CHALTYPE   CMP	#9	;		       ;SEE IF IN CHALLENGING ATTACK MODE
    165  8a7d		       d0 06		      BNE	END1
    166  8a7f		       20 55 9a 	      JSR	TABLEINC
    167  8a82		       4c 85 8a 	      JMP	END1
    168  8a85
    169  8a85		       88	   END1       DEY		;			      ;UPDATE NEXT SHIP
    170  8a86		       30 03		      BMI	DOMISS
    171  8a88		       4c 6c 89 	      JMP	CHKMODE
    172  8a8b
    173  8a8b		       a0 2e	   DOMISS     LDY	#46	;		      ;UPDATE MISSLE POSITIONS
    174  8a8d		       b9 d3 1d    DOMISS1    LDA	TYPE,Y
    175  8a90		       f0 03		      BEQ	DOMISS0
    176  8a92		       20 c0 99 	      JSR	MOVMIS
    177  8a95		       c8	   DOMISS0    INY
    178  8a96		       c0 3a		      CPY	#58
    179  8a98		       30 f3		      BMI	DOMISS1
    180  8a9a
    181  8a9a
    182  8a9a		       a0 3a	   DOEXPL     LDY	#58	;		      UPDATE EXPLOSIONS
    183  8a9c		       b9 d3 1d    DOEXPL1    LDA	TYPE,Y
    184  8a9f		       f0 03		      BEQ	DOEXPL0
    185  8aa1		       20 84 d3 	      JSR	EXPLO
    186  8aa4		       c8	   DOEXPL0    INY
    187  8aa5		       c0 43		      CPY	#67
    188  8aa7		       30 f3		      BMI	DOEXPL1
    189  8aa9
    190  8aa9				   DOSCROLL
    191  8aa9		       ad 23 27 	      LDA	TWOPLAYR
    192  8aac		       f0 74		      BEQ	DOHEROS
    193  8aae		       a5 ba		      LDA	DECREG
    194  8ab0		       f0 70		      BEQ	DOHEROS
    195  8ab2		       a5 88		      LDA	AIRBORNE
    196  8ab4		       d0 6c		      BNE	DOHEROS	;		  ;DON"T SCROLL IF SHIPS ARE FLYING
    197  8ab6		       a5 46		      LDA	SHIPCNT	;		  ;SEE IF ALL SHIPS ON SCREEN
    198  8ab8		       c9 3e		      CMP	#$3E
    199  8aba		       90 04		      BCC	DOSCROL1	;		 ;NO, CAN SCROLL NOW
    200  8abc		       a5 40		      LDA	ARRIVED	;		  ;YES, WAIT FOR ARRIVED = $FF
    201  8abe		       f0 62		      BEQ	DOHEROS
    202  8ac0		       a9 01	   DOSCROL1   LDA	#1
    203  8ac2		       85 60		      STA	ABORT	;		    ;PREVENT FURTHER ATTACKS/BIRTHS
    204  8ac4		       c6 ba		      DEC	DECREG
    205  8ac6		       a5 ba		      LDA	DECREG
    206  8ac8		       c9 87		      CMP	#135	;		     ;GIVE A LITTLE WAITING TIME FOR
    207  8aca		       b0 56		      BCS	DOHEROS	;		  ;THE CAPTURED HERO TO GO HOME
    208  8acc		       c9 3c		      CMP	#60
    209  8ace		       f0 4c		      BEQ	ENDDEC
    210  8ad0		       10 27		      BPL	SCROLLUP
    211  8ad2		       a5 8e		      LDA	PUNTSCRL	;		 ;SEE IF SHOULD SCROLL
    212  8ad4		       d0 03		      BNE	SCRLLOOP
    213  8ad6		       4c ee 8a 	      JMP	RESTRT
    214  8ad9		       a2 28	   SCRLLOOP   LDX	#40
    215  8adb		       fe 63 1e    SCROLDWN   INC	YCORD,X
    216  8ade		       ca		      DEX
    217  8adf		       10 fa		      BPL	SCROLDWN
    218  8ae1		       c6 ba	   PNTSCRL    DEC	DECREG
    219  8ae3		       30 09		      BMI	RESTRT
    220  8ae5		       c6 74		      DEC	FRAME
    221  8ae7		       a5 74	   SCRLWT     LDA	FRAME
    222  8ae9		       30 fc		      BMI	SCRLWT
    223  8aeb		       4c d9 8a 	      JMP	SCRLLOOP
    224  8aee				   RESTRT
    225  8aee		       a9 00		      LDA	#0
    226  8af0		       85 ba		      STA	DECREG
    227  8af2		       85 74		      STA	FRAME
    228  8af4		       85 8e		      STA	PUNTSCRL
    229  8af6		       4c fe 82 	      JMP	BLOOP
    230  8af9		       a5 ae	   SCROLLUP   LDA	PLAYER	;		   ;GET CURRENT PLAYER
    231  8afb		       18		      CLC
    232  8afc		       69 01		      ADC	#1
    233  8afe		       29 01		      AND	#$01	;		     ;CLEAR ALL BUT LSBIT
    234  8b00		       aa		      TAX
    235  8b01		       b5 b1		      LDA	LIVES,X	;		  ;SEE IF OTHER PLAYER IS ALIVE
    236  8b03		       f0 14		      BEQ	PNTSCRL1
    237  8b05		       85 8e		      STA	PUNTSCRL	;		 ;SAVE VALUE FOR SCROLL BACK DOWN
    238  8b07		       a5 ba		      LDA	DECREG	;		   SEE IF SHOULD SCROLL CAPTD HERO
    239  8b09		       c9 5a		      CMP	#90	;		      IF LESS THAN 90, DONT SCROLL HERO
    240  8b0b		       b0 04		      BCS	DO40
    241  8b0d		       a2 27		      LDX	#39
    242  8b0f		       d0 02		      BNE	SCROLUP1
    243  8b11		       a2 28	   DO40       LDX	#40
    244  8b13		       de 63 1e    SCROLUP1   DEC	YCORD,X
    245  8b16		       ca		      DEX
    246  8b17		       10 fa		      BPL	SCROLUP1
    247  8b19		       4c 22 8b    PNTSCRL1   JMP	DOHEROS
    248  8b1c		       20 d2 94    ENDDEC     JSR	DECLIVE1	;		 ;SWITCHES TO OTHER PLAYER
    249  8b1f		       4c a9 8a 	      JMP	DOSCROLL
    250  8b22
    251  8b22		       a0 3e	   DOHEROS    LDY	#62
    252  8b24		       b9 d3 1d 	      LDA	TYPE,Y	;		   ;UPDATE HERO SHIPS
    253  8b27		       f0 0d		      BEQ	NEXTH
    254  8b29		       ad 5a 1e 	      LDA	HEROX
    255  8b2c		       18		      CLC
    256  8b2d		       69 07		      ADC	#7
    257  8b2f		       99 1b 1e 	      STA	XCORD,Y	;		  ;UPDATE 62 IF ALIVE
    258  8b32		       c8		      INY
    259  8b33		       4c 82 8b 	      JMP	DOHER21
    260  8b36		       a0 3f	   NEXTH      LDY	#63
    261  8b38		       b9 d3 1d 	      LDA	TYPE,Y
    262  8b3b		       d0 3b		      BNE	DOHER2
    263  8b3d		       a5 88		      LDA	AIRBORNE	;		 ;MAKE SURE NOBODY IS FLYING
    264  8b3f		       f0 03		      BEQ	NEXTH2
    265  8b41		       4c 58 8c    NEXTH3     JMP	END0
    266  8b44		       ad 9f 1f    NEXTH2     LDA	MODE+40
    267  8b47		       c9 08		      CMP	#8	;		       ;SEE IF IN SPIN MODE
    268  8b49		       f0 f6		      BEQ	NEXTH3
    269  8b4b		       c9 09		      CMP	#9	;		       ;SEE IF IN UNITE MODE
    270  8b4d		       f0 f2		      BEQ	NEXTH3
    271  8b4f		       c9 0b		      CMP	#11	;		      ;SEE IF IN PUT BACK DOWN MODE
    272  8b51		       f0 ee		      BEQ	NEXTH3
    273  8b53
    274  8b53		       a5 89	   REVIVE     LDA	NOSWITCH
    275  8b55		       f0 09		      BEQ	REVIVE1
    276  8b57		       20 d2 94 	      JSR	DECLIVE1
    277  8b5a		       a9 00		      LDA	#0
    278  8b5c		       85 89		      STA	NOSWITCH
    279  8b5e		       f0 18		      BEQ	DOHER2
    280  8b60		       a5 ba	   REVIVE1    LDA	DECREG
    281  8b62		       d0 14		      BNE	DOHER2
    282  8b64		       ad 23 27 	      LDA	TWOPLAYR
    283  8b67		       d0 08		      BNE	REVIVE3
    284  8b69		       e6 93		      INC	DECDELAY
    285  8b6b		       a5 93		      LDA	DECDELAY	;		 ;THIS IS FOR SINGLE PLAYER DELAY
    286  8b6d		       c9 3c		      CMP	#60
    287  8b6f		       30 07		      BMI	DOHER2	;		   ;  BETWEEN REVIVALS OF HERO SHIP
    288  8b71		       20 c8 94    REVIVE3    JSR	DECLIVES
    289  8b74		       a9 00		      LDA	#0
    290  8b76		       85 93		      STA	DECDELAY
    291  8b78
    292  8b78		       ad 9f 1f    DOHER2     LDA	MODE+40
    293  8b7b		       c9 09		      CMP	#9
    294  8b7d		       d0 03		      BNE	DOHER21
    295  8b7f		       4c 82 8b 	      JMP	UNTOUCH
    296  8b82				   DOHER21		;LDA	  HEROX
    297  8b82							;	   STA	   XCORD,Y
    298  8b82
    299  8b82				   UNTOUCH
    300  8b82		       ad 12 1e 	      LDA	TYPE+63	;		  ;SEE IF HERO ALIVE
    301  8b85		       f0 16		      BEQ	NOREMIST	;		 ;IE. JMP END0
    302  8b87		       a5 b0		      LDA	AUTOPLAY	;		 ;NONZERO IF AUTOPLAY ACTIVE
    303  8b89		       d0 19		      BNE	GOFIRE
    304  8b8b		       a5 ae		      LDA	PLAYER	;		   ;SEE WHICH PLAYER ACTIVE
    305  8b8d		       f0 11		      BEQ	FIREPLY1
    306  8b8f		       24 0d		      BIT	INPT5
    307  8b91		       10 11		      BPL	GOFIRE
    308  8b93		       a5 a9	   REMIST1    LDA	MISTIMER
    309  8b95		       c9 05		      CMP	#5	;		      ;SEE IF LESS THAN 5 ALREADY
    310  8b97		       30 04		      BMI	NOREMIST	;		 ;DON"T RESET MISTIMER
    311  8b99		       a9 05		      LDA	#5	;		      ;SET TO 5
    312  8b9b		       85 a9		      STA	MISTIMER
    313  8b9d		       4c 58 8c    NOREMIST   JMP	END0
    314  8ba0		       24 0c	   FIREPLY1   BIT	INPT4	;		    ;SEE IF HERO SHIP IS FIRING
    315  8ba2		       30 ef		      BMI	REMIST1	;		  ;FIRE BUTTON NONACTIVE
    316  8ba4		       a5 a9	   GOFIRE     LDA	MISTIMER
    317  8ba6		       d0 f5		      BNE	NOREMIST	;		 ;IE. END0
    318  8ba8		       ad b6 1f 	      LDA	MODE+63	;		  ;SEE IF DUAL HERO MODE
    319  8bab		       c9 0a		      CMP	#10
    320  8bad		       d0 51		      BNE	GOFIRE1
    321  8baf		       a0 38		      LDY	#56
    322  8bb1		       b9 d3 1d 	      LDA	TYPE,Y
    323  8bb4		       f0 06		      BEQ	DBLFIRE
    324  8bb6		       c8		      INY
    325  8bb7		       b9 d3 1d 	      LDA	TYPE,Y
    326  8bba		       d0 e1		      BNE	NOREMIST
    327  8bbc				   DBLFIRE
    328  8bbc		       a5 ae		      LDA	PLAYER
    329  8bbe		       f0 16		      BEQ	INCPL1M
    330  8bc0		       e6 9a		      INC	MISCNT12	;		 ;INC # OF MISSILES FIRED
    331  8bc2		       d0 09		      BNE	INCMCNT2
    332  8bc4		       a5 9b		      LDA	MISCNT12+1
    333  8bc6		       18		      CLC
    334  8bc7		       69 01		      ADC	#1
    335  8bc9		       70 1e		      BVS	CONTFIRE
    336  8bcb		       85 9b		      STA	MISCNT12+1	;		;DONT INC PAST 32 THOUSAND
    337  8bcd		       e6 9f	   INCMCNT2   INC	MISCNT22
    338  8bcf		       d0 18		      BNE	CONTFIRE	;		 ;CONTINUE W/ FIRING ROUTINE
    339  8bd1		       e6 a0		      INC	MISCNT22+1
    340  8bd3		       4c e9 8b 	      JMP	CONTFIRE
    341  8bd6		       e6 98	   INCPL1M    INC	MISCNT11	;		 ;INC # OF MISSILES FIRED
    342  8bd8		       d0 09		      BNE	INNC1
    343  8bda		       a5 99		      LDA	MISCNT11+1
    344  8bdc		       18		      CLC
    345  8bdd		       69 01		      ADC	#1
    346  8bdf		       70 08		      BVS	CONTFIRE
    347  8be1		       85 99		      STA	MISCNT11+1	;		;DONT INC PAST 32 THOUSAND
    348  8be3		       e6 9c	   INNC1      INC	MISCNT21
    349  8be5		       d0 02		      BNE	CONTFIRE	;		 ;CONTINUE W/ FIRING ROUTINE
    350  8be7		       e6 9d		      INC	MISCNT21+1
    351  8be9		       a9 1b	   CONTFIRE   LDA	#27	;		      ;THIS IS THE DBL MISSILE TYPE
    352  8beb		       99 d3 1d 	      STA	TYPE,Y
    353  8bee		       ad 5a 1e 	      LDA	XCORD+63
    354  8bf1		       99 1b 1e 	      STA	XCORD,Y
    355  8bf4		       a9 00		      LDA	#0
    356  8bf6		       99 ab 1e 	      STA	ANGLE,Y
    357  8bf9		       a9 ab		      LDA	#171
    358  8bfb		       99 63 1e 	      STA	YCORD,Y
    359  8bfe		       d0 4f		      BNE	GOFIRE2
    360  8c00		       a0 38	   GOFIRE1    LDY	#56
    361  8c02		       b9 d3 1d 	      LDA	TYPE,Y
    362  8c05		       f0 06		      BEQ	FOSPA
    363  8c07		       c8		      INY
    364  8c08		       b9 d3 1d 	      LDA	TYPE,Y
    365  8c0b		       d0 4b		      BNE	END0
    366  8c0d				   FOSPA
    367  8c0d		       a5 ae		      LDA	PLAYER
    368  8c0f		       f0 16		      BEQ	INNC3	;		    ;DO PLAYER 1 COUNTERS
    369  8c11		       e6 9a		      INC	MISCNT12	;		 ;INC # OF MISSILES FIRED
    370  8c13		       d0 09		      BNE	INCMCNT3
    371  8c15		       a5 9b		      LDA	MISCNT12+1
    372  8c17		       18		      CLC
    373  8c18		       69 01		      ADC	#1
    374  8c1a		       70 1e		      BVS	CONTFIR2
    375  8c1c		       85 9b		      STA	MISCNT12+1	;		;DONT INC PAST 32 THOUSAND
    376  8c1e		       e6 9f	   INCMCNT3   INC	MISCNT22
    377  8c20		       d0 18		      BNE	CONTFIR2	;		 ;CONTINUE W/ FIRING ROUTINE
    378  8c22		       e6 a0		      INC	MISCNT22+1
    379  8c24		       4c 3a 8c 	      JMP	CONTFIR2
    380  8c27		       e6 98	   INNC3      INC	MISCNT11	;		 ;INC # OF MISSILES FIRED
    381  8c29		       d0 09		      BNE	INNC4
    382  8c2b		       a5 99		      LDA	MISCNT11+1
    383  8c2d		       18		      CLC
    384  8c2e		       69 01		      ADC	#1
    385  8c30		       70 08		      BVS	CONTFIR2
    386  8c32		       85 99		      STA	MISCNT11+1	;		;DONT INC PAST 32 THOUSAND
    387  8c34		       e6 9c	   INNC4      INC	MISCNT21
    388  8c36		       d0 02		      BNE	CONTFIR2	;		 ;CONTINUE W/ FIRING ROUTINE
    389  8c38		       e6 9d		      INC	MISCNT21+1
    390  8c3a		       a9 07	   CONTFIR2   LDA	#<MISTYPE
    391  8c3c		       99 d3 1d 	      STA	TYPE,Y
    392  8c3f		       ad 5a 1e 	      LDA	XCORD+63
    393  8c42		       99 1b 1e 	      STA	XCORD,Y
    394  8c45		       a9 ab		      LDA	#171
    395  8c47		       99 63 1e 	      STA	YCORD,Y
    396  8c4a		       a9 00		      LDA	#0
    397  8c4c		       99 ab 1e 	      STA	ANGLE,Y
    398  8c4f		       a9 0f	   GOFIRE2    LDA	#15
    399  8c51		       85 a9		      STA	MISTIMER
    400  8c53		       a9 07		      LDA	#7
    401  8c55		       20 03 d4 	      JSR	TUNIN	;		    ;HERO MISSILE TUNE
    402  8c58
    403  8c58		       a5 4b	   END0       LDA	EXPANR
    404  8c5a		       30 4b		      BMI	DONTBORN
    405  8c5c		       c6 5f		      DEC	DECCNT
    406  8c5e		       d0 2e		      BNE	BORNER
    407  8c60		       a9 08		      LDA	#8
    408  8c62		       85 5f		      STA	DECCNT
    409  8c64		       a5 4a		      LDA	TOGGLEM0
    410  8c66		       4a		      LSR
    411  8c67		       90 14		      BCC	GOLEFT0C
    412  8c69		       a2 09		      LDX	#9
    413  8c6b		       fe 75 27    ACKHACK    INC	COLPOS,X
    414  8c6e		       ca		      DEX
    415  8c6f		       10 fa		      BPL	ACKHACK
    416  8c71		       ad 7e 27 	      LDA	COLPOS+9
    417  8c74		       c9 87		      CMP	#135
    418  8c76		       d0 16		      BNE	BORNER
    419  8c78		       e6 4a		      INC	TOGGLEM0
    420  8c7a		       4c 8e 8c 	      JMP	BORNER
    421  8c7d		       a2 09	   GOLEFT0C   LDX	#9
    422  8c7f		       de 75 27    ACKHACK1   DEC	COLPOS,X
    423  8c82		       ca		      DEX
    424  8c83		       10 fa		      BPL	ACKHACK1
    425  8c85		       ad 75 27 	      LDA	COLPOS
    426  8c88		       c9 0f		      CMP	#15
    427  8c8a		       d0 02		      BNE	BORNER
    428  8c8c		       e6 4a		      INC	TOGGLEM0
    429  8c8e		       c6 44	   BORNER     DEC	BORNCNT
    430  8c90		       d0 15		      BNE	DONTBORN
    431  8c92		       a5 46		      LDA	SHIPCNT
    432  8c94		       c9 3d		      CMP	#$3D
    433  8c96		       10 0f		      BPL	DONTBORN
    434  8c98		       ad 12 1e 	      LDA	TYPE+63
    435  8c9b		       d0 07		      BNE	CALLB
    436  8c9d		       a5 88		      LDA	AIRBORNE
    437  8c9f		       d0 03		      BNE	CALLB	;		    ;WANT NO SHIPS FLYING
    438  8ca1		       4c 53 8b 	      JMP	REVIVE
    439  8ca4		       20 69 96    CALLB      JSR	BIRTH
    440  8ca7				   DONTBORN		;				 ; DEC	   FRAME
    441  8ca7		       a5 40		      LDA	ARRIVED
    442  8ca9		       d0 03		      BNE	NOTARR
    443  8cab		       20 8e 9b 	      JSR	ARRIVE
    444  8cae		       a5 4b	   NOTARR     LDA	EXPANR
    445  8cb0		       10 0d		      BPL	CONTDON
    446  8cb2		       c6 4c		      DEC	EXPANC
    447  8cb4		       d0 09		      BNE	CONTDON
    448  8cb6		       20 a6 8d 	      JSR	EXLOOP
    449  8cb9		       a9 01		      LDA	#1
    450  8cbb		       85 4c		      STA	EXPANC
    451  8cbd		       e6 4d		      INC	EXPANCC
    452  8cbf
    453  8cbf		       60	   CONTDON    RTS		;			      ;JMP     UPENLIST
    454  8cc0
    455  8cc0
    456  8cc0		       c0 28	   REAPPEAR   CPY	#40
    457  8cc2		       d0 14		      BNE	REAPPP1
    458  8cc4		       a5 40		      LDA	ARRIVED
    459  8cc6		       f0 04		      BEQ	KILHERO
    460  8cc8		       a5 5e		      LDA	HEROREAP	;		 ;THIS WILL BE NONZERO IF HERO
    461  8cca							;				 ;SHOULD NOT REAPPEAR
    462  8cca		       f0 08		      BEQ	NKILHERO
    463  8ccc		       a9 00	   KILHERO    LDA	#0
    464  8cce		       8d fb 1d 	      STA	TYPE+40
    465  8cd1		       4c 85 8a 	      JMP	END1
    466  8cd4		       a6 5d	   NKILHERO   LDX	CHTAB40	;		  ;GET CAPT"D HERO COL NUMBER
    467  8cd6		       10 03		      BPL	REAPPP2
    468  8cd8		       be 7d 93    REAPPP1    LDX	CHTAB,Y
    469  8cdb		       bd 75 27    REAPPP2    LDA	COLPOS,X
    470  8cde		       99 1b 1e 	      STA	XCORD,Y
    471  8ce1		       98		      TYA
    472  8ce2		       aa		      TAX
    473  8ce3		       b9 d3 1d 	      LDA	TYPE,Y
    474  8ce6		       10 03		      BPL	REAP11
    475  8ce8		       4c 81 8d 	      JMP	REAP1
    476  8ceb		       09 80	   REAP11     ORA	#$80
    477  8ced		       99 d3 1d 	      STA	TYPE,Y
    478  8cf0		       a9 fe		      LDA	#$FE
    479  8cf2		       99 63 1e 	      STA	YCORD,Y
    480  8cf5		       a9 04		      LDA	#4
    481  8cf7		       99 ab 1e 	      STA	ANGLE,Y
    482  8cfa		       a5 42		      LDA	RACK	;		     ;SEE IF CAN DO FAST REAPPEAR
    483  8cfc		       c9 02		      CMP	#2
    484  8cfe		       d0 13		      BNE	TSTLEV
    485  8d00		       ad 22 27 	      LDA	LEVELSEL
    486  8d03		       10 79		      BPL	NOACCEL
    487  8d05		       ad 2a 27 	      LDA	FARREN
    488  8d08		       c9 02		      CMP	#2
    489  8d0a		       10 72		      BPL	NOACCEL
    490  8d0c		       a9 01		      LDA	#1
    491  8d0e		       8d 2a 27 	      STA	FARREN
    492  8d11		       d0 09		      BNE	TSTNUM
    493  8d13		       c9 0c	   TSTLEV     CMP	#12
    494  8d15		       90 67		      BCC	NOACCEL
    495  8d17		       ad 22 27 	      LDA	LEVELSEL	;		 ;SEE IF IN NOVICE MODE
    496  8d1a		       30 62		      BMI	NOACCEL
    497  8d1c		       a9 00	   TSTNUM     LDA	#0
    498  8d1e		       85 da		      STA	BOZO0	;		    ;CLEAR THE SHIP COUNTER
    499  8d20		       a2 27		      LDX	#39
    500  8d22		       bd d3 1d    CNTSHPS    LDA	TYPE,X
    501  8d25		       d0 05		      BNE	INCCNT
    502  8d27		       ca	   CNTSHP1    DEX
    503  8d28		       10 f8		      BPL	CNTSHPS
    504  8d2a		       30 18		      BMI	ENOUGH
    505  8d2c		       e6 da	   INCCNT     INC	BOZO0
    506  8d2e		       a5 42		      LDA	RACK
    507  8d30		       c9 20		      CMP	#32
    508  8d32		       10 08		      BPL	TENFAST
    509  8d34		       a5 da		      LDA	BOZO0
    510  8d36		       c9 03		      CMP	#3
    511  8d38		       10 44		      BPL	NOACCEL	;		  ;TOO MANY SHIPS TO ACCELERATE
    512  8d3a		       d0 eb		      BNE	CNTSHP1
    513  8d3c		       a5 da	   TENFAST    LDA	BOZO0
    514  8d3e		       c9 0b		      CMP	#11
    515  8d40		       10 3c		      BPL	NOACCEL
    516  8d42		       d0 e3		      BNE	CNTSHP1
    517  8d44				   ENOUGH
    518  8d44		       ad 2a 27 	      LDA	FARREN
    519  8d47		       c9 01		      CMP	#1
    520  8d49		       d0 1d		      BNE	INCMOM
    521  8d4b		       a5 da		      LDA	BOZO0
    522  8d4d		       c9 01		      CMP	#1
    523  8d4f		       d0 2d		      BNE	NOACCEL
    524  8d51		       ad d3 1d 	      LDA	TYPE
    525  8d54		       f0 28		      BEQ	NOACCEL
    526  8d56		       ad 23 27 	      LDA	TWOPLAYR
    527  8d59		       d0 23		      BNE	NOACCEL
    528  8d5b		       a5 b1		      LDA	LIVES
    529  8d5d		       c9 04		      CMP	#4
    530  8d5f		       d0 1d		      BNE	NOACCEL
    531  8d61		       a9 02		      LDA	#2
    532  8d63		       8d 2a 27 	      STA	FARREN
    533  8d66		       d0 16		      BNE	NOACCEL
    534  8d68		       b9 40 01    INCMOM     LDA	MOMENTUM,Y	;	       ;GET MOMENTUM BYTE
    535  8d6b		       09 80		      ORA	#$80	;		     ;SET FLAG
    536  8d6d		       99 40 01 	      STA	MOMENTUM,Y
    537  8d70		       c0 28		      CPY	#40
    538  8d72		       d0 0a		      BNE	NOACCEL
    539  8d74		       a6 5c		      LDX	CAPBOS1	;		  GET CAPTURING BOSS MOMENTUM
    540  8d76		       bd 40 01 	      LDA	MOMENTUM,X
    541  8d79		       09 80		      ORA	#$80
    542  8d7b		       9d 40 01 	      STA	MOMENTUM,X
    543  8d7e		       4c 85 8a    NOACCEL    JMP	END1
    544  8d81
    545  8d81		       a9 ff	   REAP1      LDA	#$FF
    546  8d83		       85 da		      STA	BOZO0
    547  8d85		       fe 63 1e    ACCELRPR   INC	YCORD,X
    548  8d88		       b9 a6 93 	      LDA	RESTABY,Y
    549  8d8b		       38		      SEC
    550  8d8c		       e9 02		      SBC	#2
    551  8d8e		       d9 63 1e 	      CMP	YCORD,Y
    552  8d91		       f0 0b		      BEQ	DONER
    553  8d93		       b9 40 01 	      LDA	MOMENTUM,Y
    554  8d96		       10 e6		      BPL	NOACCEL	;		  ;DON"T ACCELERATE IF POSITIVE
    555  8d98		       e6 da		      INC	BOZO0
    556  8d9a		       f0 e9		      BEQ	ACCELRPR
    557  8d9c		       d0 05		      BNE	ENDONER
    558  8d9e
    559  8d9e
    560  8d9e				   DONER
    561  8d9e		       a9 05		      LDA	#05
    562  8da0		       99 77 1f 	      STA	MODE,Y
    563  8da3		       4c 85 8a    ENDONER    JMP	END1
    564  8da6
    565  8da6
    566  8da6
    567  8da6
    568  8da6
    569  8da6		       c6 4e	   EXLOOP     DEC	COL0
    570  8da8		       d0 07		      BNE	COLC1
    571  8daa		       20 de 8d 	      JSR	COLS0
    572  8dad		       a9 07		      LDA	#7
    573  8daf		       85 4e		      STA	COL0
    574  8db1		       c6 4f	   COLC1      DEC	COL1
    575  8db3		       d0 07		      BNE	COLC2
    576  8db5		       a9 09		      LDA	#9
    577  8db7		       85 4f		      STA	COL1
    578  8db9		       20 f1 8d 	      JSR	COLS1
    579  8dbc		       c6 50	   COLC2      DEC	COL2
    580  8dbe		       d0 07		      BNE	COLC3
    581  8dc0		       a9 0c		      LDA	#12
    582  8dc2		       85 50		      STA	COL2
    583  8dc4		       20 04 8e 	      JSR	COLS2
    584  8dc7		       c6 51	   COLC3      DEC	COL3
    585  8dc9		       d0 07		      BNE	COLC4
    586  8dcb		       a9 15		      LDA	#21
    587  8dcd		       85 51		      STA	COL3
    588  8dcf		       20 17 8e 	      JSR	COLS3
    589  8dd2		       c6 52	   COLC4      DEC	COL4
    590  8dd4		       d0 07		      BNE	ENDC4
    591  8dd6		       a9 3f		      LDA	#63
    592  8dd8		       85 52		      STA	COL4
    593  8dda		       20 2a 8e 	      JSR	COLS4
    594  8ddd		       60	   ENDC4      RTS
    595  8dde
    596  8dde
    597  8dde		       a5 53	   COLS0      LDA	TOGGLEM
    598  8de0		       4a		      LSR
    599  8de1		       b0 07		      BCS	COL0E
    600  8de3		       ee 75 27 	      INC	COLPOS	;		   ;COL0C
    601  8de6		       ce 7e 27 	      DEC	COLPOS+9
    602  8de9		       60		      RTS
    603  8dea		       ce 75 27    COL0E      DEC	COLPOS
    604  8ded		       ee 7e 27 	      INC	COLPOS+9
    605  8df0		       60		      RTS
    606  8df1
    607  8df1		       a5 53	   COLS1      LDA	TOGGLEM
    608  8df3		       4a		      LSR
    609  8df4		       b0 07		      BCS	COL1E
    610  8df6		       ee 76 27    COL1C      INC	COLPOS+1
    611  8df9		       ce 7d 27 	      DEC	COLPOS+8
    612  8dfc		       60		      RTS
    613  8dfd		       ce 76 27    COL1E      DEC	COLPOS+1
    614  8e00		       ee 7d 27 	      INC	COLPOS+8
    615  8e03		       60		      RTS
    616  8e04
    617  8e04		       a5 53	   COLS2      LDA	TOGGLEM
    618  8e06		       4a		      LSR
    619  8e07		       b0 07		      BCS	COL2E
    620  8e09		       ee 77 27    COL2C      INC	COLPOS+2
    621  8e0c		       ce 7c 27 	      DEC	COLPOS+7
    622  8e0f		       60		      RTS
    623  8e10		       ce 77 27    COL2E      DEC	COLPOS+2
    624  8e13		       ee 7c 27 	      INC	COLPOS+7
    625  8e16		       60		      RTS
    626  8e17
    627  8e17		       a5 53	   COLS3      LDA	TOGGLEM
    628  8e19		       4a		      LSR
    629  8e1a		       b0 07		      BCS	COL3E
    630  8e1c		       ee 78 27    COL3C      INC	COLPOS+3
    631  8e1f		       ce 7b 27 	      DEC	COLPOS+6
    632  8e22		       60		      RTS
    633  8e23		       ce 78 27    COL3E      DEC	COLPOS+3
    634  8e26		       ee 7b 27 	      INC	COLPOS+6
    635  8e29		       60		      RTS
    636  8e2a
    637  8e2a
    638  8e2a		       a5 53	   COLS4      LDA	TOGGLEM
    639  8e2c		       4a		      LSR
    640  8e2d		       b0 07		      BCS	COL4E
    641  8e2f		       ee 79 27    COL4C      INC	COLPOS+4
    642  8e32		       ce 7a 27 	      DEC	COLPOS+5
    643  8e35		       60		      RTS
    644  8e36		       ce 79 27    COL4E      DEC	COLPOS+4
    645  8e39		       ee 7a 27 	      INC	COLPOS+5
    646  8e3c		       60		      RTS
    647  8e3d
    648  8e3d
    649  8e3d
    650  8e3d
    651  8e3d
    652  8e3d
    653  8e3d
    654  8e3d		       b9 d3 1d    ATAKRED    LDA	TYPE,Y
    655  8e40		       10 2a		      BPL	ATAKRED3
    656  8e42		       20 9c 9a 	      JSR	MSHBTBL
    657  8e45		       e0 00		      CPX	#0
    658  8e47		       d0 02		      BNE	ATAKRED1
    659  8e49		       f0 7f		      BEQ	END11
    660  8e4b
    661  8e4b		       b9 77 1f    ATAKRED1   LDA	MODE,Y
    662  8e4e		       49 40		      EOR	#$40
    663  8e50		       99 77 1f 	      STA	MODE,Y
    664  8e53		       b9 d3 1d 	      LDA	TYPE,Y
    665  8e56		       29 7f		      AND	#$7F
    666  8e58		       99 d3 1d 	      STA	TYPE,Y
    667  8e5b		       a9 00		      LDA	#0
    668  8e5d		       99 ba 1f 	      STA	COUNTXY,Y
    669  8e60
    670  8e60
    671  8e60		       a9 11	   ATAKRED2   LDA	#<REDTAB
    672  8e62		       99 f3 1e 	      STA	ML,Y
    673  8e65		       a9 93		      LDA	#>REDTAB
    674  8e67		       99 36 1f 	      STA	MH,Y
    675  8e6a		       d0 5e		      BNE	END11
    676  8e6c
    677  8e6c		       20 9c 9a    ATAKRED3   JSR	MSHBTBL
    678  8e6f		       e0 00		      CPX	#0
    679  8e71		       d0 09		      BNE	ATAKRED4
    680  8e73		       b9 63 1e 	      LDA	YCORD,Y
    681  8e76		       c9 c2		      CMP	#194
    682  8e78		       b0 4b		      BCS	GORREAP
    683  8e7a		       90 4e		      BCC	END11
    684  8e7c
    685  8e7c		       a9 00	   ATAKRED4   LDA	#0
    686  8e7e		       85 68		      STA	TEMP1
    687  8e80		       b9 1b 1e 	      LDA	XCORD,Y
    688  8e83		       c9 a0		      CMP	#160	;		     SEE IF OFF SCREEN
    689  8e85		       90 02		      BCC	NOTOFF
    690  8e87		       a9 00		      LDA	#0
    691  8e89		       85 67	   NOTOFF     STA	TEMP0
    692  8e8b		       cd 5a 1e 	      CMP	HEROX
    693  8e8e		       b0 24		      BCS	MAKENEG
    694  8e90		       b9 77 1f 	      LDA	MODE,Y
    695  8e93		       29 bf		      AND	#$BF
    696  8e95		       99 77 1f 	      STA	MODE,Y
    697  8e98		       ad 5a 1e 	      LDA	HEROX
    698  8e9b		       38		      SEC
    699  8e9c		       e5 67		      SBC	TEMP0
    700  8e9e
    701  8e9e		       c9 28	   CONTRA     CMP	#40
    702  8ea0		       b0 02		      BCS	RED64
    703  8ea2		       e6 68	   RED32      INC	TEMP1
    704  8ea4		       a5 68	   RED64      LDA	TEMP1
    705  8ea6		       f0 b8		      BEQ	ATAKRED2
    706  8ea8		       a9 56	   ATAKRED5   LDA	#<REDTAB1
    707  8eaa		       99 f3 1e 	      STA	ML,Y
    708  8ead		       a9 93		      LDA	#>REDTAB1
    709  8eaf		       99 36 1f 	      STA	MH,Y
    710  8eb2		       d0 16		      BNE	END11
    711  8eb4		       b9 77 1f    MAKENEG    LDA	MODE,Y
    712  8eb7		       09 40		      ORA	#$40
    713  8eb9		       99 77 1f 	      STA	MODE,Y
    714  8ebc		       a5 67		      LDA	TEMP0
    715  8ebe		       38		      SEC
    716  8ebf		       ed 5a 1e 	      SBC	HEROX
    717  8ec2		       4c 9e 8e 	      JMP	CONTRA
    718  8ec5
    719  8ec5
    720  8ec5				   GORREAP
    721  8ec5		       a9 82		      LDA	#$82
    722  8ec7		       99 77 1f 	      STA	MODE,Y
    723  8eca		       4c 85 8a    END11      JMP	END1
    724  8ecd
    725  8ecd
    726  8ecd
    727  8ecd				   GOHOME
    728  8ecd		       b9 d3 1d 	      LDA	TYPE,Y
    729  8ed0		       30 32		      BMI	GO
    730  8ed2		       09 80		      ORA	#$80
    731  8ed4		       99 d3 1d 	      STA	TYPE,Y
    732  8ed7		       a9 00		      LDA	#0
    733  8ed9		       99 fb 1f 	      STA	DONE,Y
    734  8edc		       20 ac 8f 	      JSR	FINDFING	;		 ;INITS FINPOSX AND FINPOSY
    735  8edf		       b9 1b 1e 	      LDA	XCORD,Y
    736  8ee2		       c5 da		      CMP	BOZO0
    737  8ee4		       b0 0d		      BCS	MINUSG
    738  8ee6		       85 68		      STA	TEMP1
    739  8ee8		       a5 da		      LDA	BOZO0
    740  8eea		       38		      SEC
    741  8eeb		       e5 68		      SBC	TEMP1
    742  8eed		       99 f3 1e 	      STA	ML,Y	;		     ;ML CONTAINS THE X DIFFERENTIAL
    743  8ef0		       4c fb 8e 	      JMP	STOREY
    744  8ef3
    745  8ef3
    746  8ef3		       38	   MINUSG     SEC
    747  8ef4		       e5 da		      SBC	BOZO0
    748  8ef6		       09 80		      ORA	#$80
    749  8ef8		       99 f3 1e 	      STA	ML,Y	;		     ;ML CONTAINS THE X DIFFERENTIAL
    750  8efb
    751  8efb				   STOREY
    752  8efb		       b9 63 1e 	      LDA	YCORD,Y
    753  8efe		       38		      SEC
    754  8eff		       e5 db		      SBC	BOZO1
    755  8f01		       99 36 1f 	      STA	MH,Y	;		     ;MH CONTAINS THE Y DIFFERENTIAL
    756  8f04
    757  8f04				   GO
    758  8f04		       b9 f3 1e 	      LDA	ML,Y
    759  8f07		       29 7f		      AND	#$7F
    760  8f09		       f0 4e		      BEQ	DONEGOX
    761  8f0b		       85 67		      STA	TEMP0
    762  8f0d		       a9 01		      LDA	#1
    763  8f0f		       85 55		      STA	XSTEPY
    764  8f11		       b9 36 1f 	      LDA	MH,Y
    765  8f14		       85 68		      STA	TEMP1
    766  8f16		       c5 67		      CMP	TEMP0
    767  8f18		       b0 11		      BCS	GOGEN
    768  8f1a		       06 55		      ASL	XSTEPY
    769  8f1c		       46 67		      LSR	TEMP0
    770  8f1e		       c5 67		      CMP	TEMP0
    771  8f20		       b0 09		      BCS	GOGEN
    772  8f22		       06 55		      ASL	XSTEPY
    773  8f24		       0a		      ASL
    774  8f25		       c5 67		      CMP	TEMP0
    775  8f27		       b0 02		      BCS	GOGEN
    776  8f29		       06 55		      ASL	XSTEPY
    777  8f2b
    778  8f2b		       98	   GOGEN      TYA
    779  8f2c		       aa		      TAX
    780  8f2d		       de f3 1e 	      DEC	ML,X
    781  8f30		       30 06		      BMI	DECREASE
    782  8f32		       fe 1b 1e 	      INC	XCORD,X
    783  8f35		       4c 3b 8f 	      JMP	DOY
    784  8f38
    785  8f38				   DECREASE
    786  8f38		       de 1b 1e 	      DEC	XCORD,X
    787  8f3b
    788  8f3b				   DOY
    789  8f3b		       b9 36 1f 	      LDA	MH,Y
    790  8f3e		       f0 21		      BEQ	DONEGOY
    791  8f40		       85 67		      STA	TEMP0
    792  8f42		       b9 ba 1f 	      LDA	COUNTXY,Y
    793  8f45		       c5 55		      CMP	XSTEPY
    794  8f47		       b0 04		      BCS	MOVEYONE
    795  8f49		       fe ba 1f 	      INC	COUNTXY,X
    796  8f4c		       60		      RTS
    797  8f4d
    798  8f4d		       a9 01	   MOVEYONE   LDA	#1
    799  8f4f		       99 ba 1f 	      STA	COUNTXY,Y
    800  8f52		       de 36 1f 	      DEC	MH,X
    801  8f55		       de 63 1e 	      DEC	YCORD,X
    802  8f58		       60		      RTS
    803  8f59
    804  8f59
    805  8f59		       a9 ff	   DONEGOX    LDA	#$FF
    806  8f5b		       99 fb 1f 	      STA	DONE,Y
    807  8f5e		       4c f6 8f 	      JMP	DOXY
    808  8f61
    809  8f61				   DONEGOY
    810  8f61		       b9 fb 1f 	      LDA	DONE,Y
    811  8f64		       30 01		      BMI	FINI
    812  8f66		       60		      RTS
    813  8f67
    814  8f67							;WHEN IT GETS INTO EXPANSION DEC NUMFLY
    815  8f67
    816  8f67				   FINI
    817  8f67		       b9 d3 1d 	      LDA	TYPE,Y
    818  8f6a		       29 7f		      AND	#$7F
    819  8f6c		       99 d3 1d 	      STA	TYPE,Y
    820  8f6f		       a9 00		      LDA	#0
    821  8f71		       99 77 1f 	      STA	MODE,Y
    822  8f74		       b9 d3 1d 	      LDA	TYPE,Y	;		   ;SEE IF SCORPION TYPE
    823  8f77		       c9 0d		      CMP	#13
    824  8f79		       d0 05		      BNE	META13
    825  8f7b		       a9 01		      LDA	#1
    826  8f7d		       99 d3 1d 	      STA	TYPE,Y	;		   ;CHANGE BACK TO BLUE SHIP
    827  8f80		       c0 28	   META13     CPY	#40
    828  8f82		       f0 07		      BEQ	FIXBS
    829  8f84							;	   DEC	   NUMFLY
    830  8f84		       c0 29		      CPY	#41
    831  8f86		       b0 02		      BCS	FINI1
    832  8f88		       c6 88		      DEC	AIRBORNE
    833  8f8a		       60	   FINI1      RTS
    834  8f8b		       a6 5c	   FIXBS      LDX	CAPBOS1	;		  ;PUT IN CAPTURING BOSS NUMBER
    835  8f8d		       bd d3 1d 	      LDA	TYPE,X
    836  8f90		       f0 10		      BEQ	CAPATTK	;		  ;MAKE CAPTD HERO ATTACK
    837  8f92		       29 7f		      AND	#$7F	;		     ;BOOT HIGH BIT
    838  8f94		       c9 10		      CMP	#16	;		      ;SEE IF ALREADY KNOWS HE HAS A HERO
    839  8f96		       10 f2		      BPL	FINI1
    840  8f98		       bd d3 1d 	      LDA	TYPE,X
    841  8f9b		       18		      CLC
    842  8f9c		       69 0d		      ADC	#13
    843  8f9e		       9d d3 1d 	      STA	TYPE,X
    844  8fa1		       60		      RTS
    845  8fa2		       a2 28	   CAPATTK    LDX	#40
    846  8fa4		       20 7b cd 	      JSR	COTBOATK	;		 ;MAKE HERO ATTACK
    847  8fa7		       a9 05		      LDA	#5
    848  8fa9		       85 5e		      STA	HEROREAP	;		 ;INDICATE HERO MUST COME BACK NEXT RACK
    849  8fab		       60		      RTS
    850  8fac
    851  8fac
    852  8fac
    853  8fac				   FINDFING
    854  8fac		       c0 28		      CPY	#40
    855  8fae		       d0 38		      BNE	FINDFINH
    856  8fb0		       a6 5c		      LDX	CAPBOS1	;		  ;GET CAPTURING BOSS NUMBER
    857  8fb2		       bd d3 1d 	      LDA	TYPE,X	;		   ;SEE IF ALIVE
    858  8fb5		       d0 2d		      BNE	BOSALIVE
    859  8fb7		       a2 06		      LDX	#6
    860  8fb9		       20 d4 8f 	      JSR	GTNWCOL	;		  ;GET NEW COLUMN
    861  8fbc		       b0 26		      BCS	BOSALIVE
    862  8fbe		       a2 11		      LDX	#17
    863  8fc0		       20 d4 8f 	      JSR	GTNWCOL
    864  8fc3		       b0 1f		      BCS	BOSALIVE
    865  8fc5		       a2 1a		      LDX	#26
    866  8fc7		       20 d4 8f 	      JSR	GTNWCOL
    867  8fca		       b0 18		      BCS	BOSALIVE
    868  8fcc		       a2 23		      LDX	#35
    869  8fce		       20 d4 8f 	      JSR	GTNWCOL
    870  8fd1		       4c e4 8f 	      JMP	BOSALIVE
    871  8fd4							;	   BCC	   BOSALIVE;		   ;NEED TO HANDLE THIS CASE WHEN DONE
    872  8fd4
    873  8fd4		       bd d3 1d    GTNWCOL    LDA	TYPE,X
    874  8fd7		       f0 09		      BEQ	ENDGTCOL
    875  8fd9		       bd 7d 93 	      LDA	CHTAB,X
    876  8fdc		       85 5d		      STA	CHTAB40
    877  8fde		       86 5c		      STX	CAPBOS1	;		  ;INDICATE NEW CAPTURING BOSS
    878  8fe0		       38		      SEC
    879  8fe1		       60		      RTS
    880  8fe2		       18	   ENDGTCOL   CLC
    881  8fe3		       60		      RTS
    882  8fe4
    883  8fe4		       a6 5d	   BOSALIVE   LDX	CHTAB40
    884  8fe6		       10 03		      BPL	FINDFINI
    885  8fe8		       be 7d 93    FINDFINH   LDX	CHTAB,Y
    886  8feb		       bd 75 27    FINDFINI   LDA	COLPOS,X
    887  8fee		       85 da		      STA	BOZO0
    888  8ff0		       b9 a6 93 	      LDA	RESTABY,Y
    889  8ff3		       85 db		      STA	BOZO1
    890  8ff5		       60		      RTS
    891  8ff6
    892  8ff6
    893  8ff6				   DOXY
    894  8ff6		       c0 28		      CPY	#40
    895  8ff8		       d0 04		      BNE	DOXY1
    896  8ffa		       a6 5d		      LDX	CHTAB40
    897  8ffc		       10 03		      BPL	DOXY2
    898  8ffe		       be 7d 93    DOXY1      LDX	CHTAB,Y
    899  9001		       bd 75 27    DOXY2      LDA	COLPOS,X
    900  9004		       85 67		      STA	TEMP0
    901  9006		       98		      TYA
    902  9007		       aa		      TAX
    903  9008		       b9 1b 1e 	      LDA	XCORD,Y
    904  900b		       c5 67		      CMP	TEMP0
    905  900d		       f0 0b		      BEQ	DONTDOX0
    906  900f		       b0 06		      BCS	DECDOX
    907  9011		       fe 1b 1e 	      INC	XCORD,X
    908  9014		       4c 2d 90 	      JMP	DONTDOX1
    909  9017
    910  9017				   DECDOX
    911  9017		       de 1b 1e 	      DEC	XCORD,X
    912  901a
    913  901a				   DONTDOX0
    914  901a		       b9 a6 93 	      LDA	RESTABY,Y
    915  901d		       85 67		      STA	TEMP0
    916  901f		       b9 63 1e 	      LDA	YCORD,Y
    917  9022		       c5 67		      CMP	TEMP0
    918  9024		       d0 03		      BNE	DONTDOX3
    919  9026		       4c 67 8f 	      JMP	FINI
    920  9029		       de 63 1e    DONTDOX3   DEC	YCORD,X
    921  902c		       60		      RTS
    922  902d
    923  902d				   DONTDOX1
    924  902d		       b9 a6 93 	      LDA	RESTABY,Y
    925  9030		       85 67		      STA	TEMP0
    926  9032		       b9 63 1e 	      LDA	YCORD,Y
    927  9035		       c5 67		      CMP	TEMP0
    928  9037		       d0 01		      BNE	CONTDONT
    929  9039		       60		      RTS
    930  903a				   CONTDONT
    931  903a		       de 63 1e 	      DEC	YCORD,X
    932  903d		       60		      RTS
    933  903e
    934  903e
    935  903e
    936  903e							;*THIS SUBROUTINE TAKES THE INITIAL PARTS OF BOSS GALAGA ;*
    937  903e							;*WHOSE INTENTION IS TO CAPTURE THE HERO SHIP;*
    938  903e
    939  903e
    940  903e				   BOSACAP
    941  903e		       b9 d3 1d 	      LDA	TYPE,Y
    942  9041		       10 14		      BPL	CAPBYAR	;		  ;IF TYPE NEG THEN DONT USE TABLES
    943  9043		       20 9c 9a 	      JSR	MSHBTBL
    944  9046		       e0 00		      CPX	#0
    945  9048		       d0 02		      BNE	STOPTBL
    946  904a		       f0 08		      BEQ	END12
    947  904c
    948  904c				   STOPTBL		;				 ;THIS CHANGES THE MODE FROM TABLES
    949  904c		       b9 d3 1d 	      LDA	TYPE,Y
    950  904f		       29 7f		      AND	#$7F	;		     ;INTO GOING BY ALGORITHM
    951  9051		       99 d3 1d 	      STA	TYPE,Y
    952  9054		       4c 85 8a    END12      JMP	END1
    953  9057
    954  9057
    955  9057				   CAPBYAR		;				 ;GO IN A STRAIGHT LINE
    956  9057		       b9 63 1e 	      LDA	YCORD,Y
    957  905a		       c9 78		      CMP	#120	;		     ;IS THE CAPTURE POINT REACHED?
    958  905c		       90 1c		      BCC	NOTWAIT
    959  905e		       a9 03		      LDA	#03	;		      ;YES PUT IN THE WAIT MODE
    960  9060		       99 77 1f 	      STA	MODE,Y
    961  9063		       a9 b4		      LDA	#180
    962  9065		       85 b4		      STA	WAITCNT
    963  9067		       a9 15		      LDA	#21
    964  9069		       20 03 d4 	      JSR	TUNIN	;		   ;START TRACTOR BEAM TUNE
    965  906c		       a9 1a		      LDA	#26
    966  906e		       20 03 d4 	      JSR	TUNIN	;		    ;SECOND TRACTOR BEAM CHANNEL
    967  9071		       b9 1b 1e 	      LDA	XCORD,Y
    968  9074		       85 64		      STA	CAPTUREX
    969  9076		       84 5c		      STY	CAPBOS1	;		   ;KEEP TRACK OF WHICH BOSS HAS HERO
    970  9078		       d0 da		      BNE	END12
    971  907a
    972  907a
    973  907a				   NOTWAIT
    974  907a		       69 02		      ADC	#2
    975  907c		       99 63 1e 	      STA	YCORD,Y
    976  907f		       d0 d3		      BNE	END12
    977  9081
    978  9081
    979  9081		       98	   BOSSWAIT   TYA
    980  9082		       aa		      TAX
    981  9083		       c6 b4		      DEC	WAITCNT
    982  9085		       f0 15		      BEQ	SBCAPTUR
    983  9087		       a5 42		      LDA	RACK	;		     SEE IF FAST BEAM RACK
    984  9089		       c9 12		      CMP	#18
    985  908b		       90 04		      BCC	NOFBEAM
    986  908d		       c6 b4		      DEC	WAITCNT
    987  908f		       f0 0b		      BEQ	SBCAPTUR
    988  9091		       ad fb 1d    NOFBEAM    LDA	TYPE+40	;		  ;CHECK TYPE OF HERO SHIP
    989  9094		       d0 45		      BNE	GONE0END	;		 ;SHIP ALREADY CAPTURED
    990  9096							;				 ;LOWER SHIELDS
    991  9096		       20 de 90 	      JSR	CHECKCAP	;		 ;DOES THE CHECKING IT SHIP GETS
    992  9099							;				 ;IN RANGE OF CAPTURE
    993  9099
    994  9099		       4c 85 8a 	      JMP	END1
    995  909c
    996  909c
    997  909c		       20 d0 d3    SBCAPTUR   JSR	SCRAPALL	;		 ;KILL TRACTOR BEAM
    998  909f		       ad fb 1d 	      LDA	TYPE+40	;		  ;SEE IF HERO WAS CAPTURED
    999  90a2		       f0 0a		      BEQ	SBCAPTR1
   1000  90a4		       a9 17		      LDA	#23
   1001  90a6		       20 03 d4 	      JSR	TUNIN	;		    ;HERO BEING TAKEN TO TOP OF SCREEN
   1002  90a9		       a9 18		      LDA	#24
   1003  90ab		       20 03 d4 	      JSR	TUNIN	;		    ;SECOND CHANNEL OF TUNE
   1004  90ae		       b9 7d 93    SBCAPTR1   LDA	CHTAB,Y
   1005  90b1		       85 5d		      STA	CHTAB40	;		  ;GET PROPER COLUMN FROM BOSS
   1006  90b3		       ad 43 1e 	      LDA	XCORD+40
   1007  90b6		       c9 50		      CMP	#80
   1008  90b8		       b0 04		      BCS	NEGTABM
   1009  90ba		       a9 04		      LDA	#04	;		      ;SET MODE FOR END OF BOSS WAIT
   1010  90bc		       10 02		      BPL	POSTABM	;		  ;UNCONDITIONAL RELATIVE JUMP
   1011  90be		       a9 44	   NEGTABM    LDA	#$44
   1012  90c0		       99 77 1f    POSTABM    STA	MODE,Y
   1013  90c3		       8d 9f 1f 	      STA	MODE+40
   1014  90c6		       b9 d3 1d 	      LDA	TYPE,Y	;		   ;GET TYPE OF BOSS GALAGA
   1015  90c9		       10 10		      BPL	GONE0END	;		 ;BRANCH IF NO CAPTURE
   1016  90cb		       a9 ed		      LDA	#<PEELDOWN
   1017  90cd		       99 f3 1e 	      STA	ML,Y	;		     ;SET BOSS FOR PEELDOWN
   1018  90d0		       8d 1b 1f 	      STA	ML+40	;		    ;SET HERO FOR PEELDOWN
   1019  90d3		       a9 92		      LDA	#>PEELDOWN
   1020  90d5		       99 36 1f 	      STA	MH,Y
   1021  90d8		       8d 5e 1f 	      STA	MH+40
   1022  90db		       4c 85 8a    GONE0END   JMP	END1
   1023  90de
   1024  90de		       ad 12 1e    CHECKCAP   LDA	TYPE+63	;		  ;SEE IF HERO DEAD
   1025  90e1		       f0 79		      BEQ	ENDCAP
   1026  90e3		       a5 b4		      LDA	WAITCNT	;		  ;READ WAIT COUNTER
   1027  90e5		       c9 78		      CMP	#120	;		     ;FINISHED LOWERING SHIELDS?
   1028  90e7		       b0 73		      BCS	ENDCAP
   1029  90e9		       c9 3c		      CMP	#60	;		      ;SHOULD SHIELDS BE RAISED?
   1030  90eb		       30 6f		      BMI	ENDCAP
   1031  90ed		       a5 42		      LDA	RACK
   1032  90ef		       c9 12		      CMP	#18
   1033  90f1		       90 06		      BCC	CONTCAP	;		  LOW RACK, CHECK CAPTURE LONGER
   1034  90f3		       a5 b4		      LDA	WAITCNT
   1035  90f5		       c9 50		      CMP	#80
   1036  90f7		       30 63		      BMI	ENDCAP
   1037  90f9							;NOW CHECK FOR CAPTURE OF HERO SHIP
   1038  90f9		       a5 64	   CONTCAP    LDA	CAPTUREX	;		 ;GET XPOS OF BOSS GALAGA
   1039  90fb		       cd 5a 1e 	      CMP	HEROX
   1040  90fe		       b0 0c		      BCS	TESTPOS	;		  ;CAPTUREX > HEROX
   1041  9100		       ad 5a 1e    TESTNEG    LDA	HEROX	;		    ;CAPTUREX < HEROX
   1042  9103		       38		      SEC
   1043  9104		       e5 64		      SBC	CAPTUREX	;		 ;GET DIFFERENCE
   1044  9106		       c9 0c		      CMP	#12	;		      ;WITHIN RANGE?
   1045  9108		       30 0c		      BMI	CAPTURED
   1046  910a		       10 50		      BPL	ENDCAP
   1047  910c		       38	   TESTPOS    SEC
   1048  910d		       ed 5a 1e 	      SBC	HEROX
   1049  9110		       c9 0c		      CMP	#12
   1050  9112		       30 02		      BMI	CAPTURED
   1051  9114		       10 46		      BPL	ENDCAP
   1052  9116		       a9 85	   CAPTURED   LDA	#$85	;		     ;5 IS HERO SHIP TYPE
   1053  9118		       8d fb 1d 	      STA	TYPE+40	;		  ;STORE NEW TYPE
   1054  911b		       a9 07		      LDA	#7
   1055  911d		       8d 9f 1f 	      STA	MODE+40	;		  ;SET HERO TWIRL MODE
   1056  9120		       a9 ab		      LDA	#171	;		     ;STARTING HERO YCORD
   1057  9122		       8d 8b 1e 	      STA	YCORD+40
   1058  9125		       ad 5a 1e 	      LDA	HEROX	;		    ;STARTING HERO XCORD
   1059  9128		       8d 43 1e 	      STA	XCORD+40
   1060  912b		       a9 00		      LDA	#0
   1061  912d		       8d d3 1e 	      STA	ANGLE+40	;		 ;SET ORIGINAL ANGLE TO 0
   1062  9130		       b9 d3 1d 	      LDA	TYPE,Y	;		   ;GET BOSS GALAGA TYPE
   1063  9133		       18		      CLC
   1064  9134		       69 0d		      ADC	#13	;		      ;CHANGE TYPE TO SIGNIFY CAPTURE
   1065  9136		       09 80		      ORA	#$80	;		     ;SET TYPE TO MINUS
   1066  9138		       99 d3 1d 	      STA	TYPE,Y
   1067  913b		       a9 00		      LDA	#0
   1068  913d		       8d 12 1e 	      STA	TYPE+63	;		  ;KILL TRAPPED HERO SHIP
   1069  9140		       b9 40 01 	      LDA	MOMENTUM,Y	;	       ;GET MOMENTUM OF BOSS
   1070  9143		       29 80		      AND	#$80	;		     ;ONLY KEEP HIGH BIT
   1071  9145		       8d 68 01 	      STA	MOMENTUM+40
   1072  9148		       a6 ae		      LDX	PLAYER	;		   ;GET CURRENT PLAYER
   1073  914a		       b5 b1		      LDA	LIVES,X	;		  ;SEE HOW MANY LIVES LEFT
   1074  914c		       c9 01		      CMP	#1
   1075  914e		       f0 04		      BEQ	SWTCHSCR	;		 ;WILL BE OUT OF LIVES AFTER THIS
   1076  9150		       a9 ff		      LDA	#$FF
   1077  9152		       85 89		      STA	NOSWITCH	;		 ;DON"T SWITCH PLAYERS
   1078  9154		       20 d0 d3    SWTCHSCR   JSR	SCRAPALL
   1079  9157		       a9 16		      LDA	#22
   1080  9159		       20 03 d4 	      JSR	TUNIN	;		    ;START HERO CAPTURE TUNE
   1081  915c		       60	   ENDCAP     RTS
   1082  915d
   1083  915d
   1084  915d				   TWIRL
   1085  915d		       a9 ff		      LDA	#$FF
   1086  915f		       85 de		      STA	BOZO4
   1087  9161		       e6 8b		      INC	STARPTR	;		  MOVE STARS BACKWARDS
   1088  9163		       10 04		      BPL	BACKSTAR
   1089  9165		       a9 00		      LDA	#0
   1090  9167		       85 8b		      STA	STARPTR
   1091  9169				   BACKSTAR
   1092  9169		       ad 8b 1e 	      LDA	YCORD+40	;		 ;GET HERO SHIP YCORD
   1093  916c		       38		      SEC
   1094  916d		       e9 01		      SBC	#1	;		       ;MOVE UP 1 PIXEL
   1095  916f		       8d 8b 1e 	      STA	YCORD+40
   1096  9172		       c9 8b		      CMP	#139
   1097  9174		       90 21		      BCC	ENDCHCK
   1098  9176		       ad 43 1e 	      LDA	XCORD+40	;		 ;GET HERO XCORD
   1099  9179		       c5 64		      CMP	CAPTUREX	;		 ;COMPARE TO BOSS POSITION
   1100  917b		       b0 06		      BCS	MVLFT
   1101  917d		       ee 43 1e    MVRT       INC	XCORD+40	;		 ;INCREMENT XCORD OF HERO SHIP
   1102  9180		       4c 86 91 	      JMP	CHNGANGL
   1103  9183		       ce 43 1e    MVLFT      DEC	XCORD+40	;		 ;DEC XCORD OF HERO SHIP
   1104  9186		       a5 42	   CHNGANGL   LDA	RACK
   1105  9188		       c9 12		      CMP	#18
   1106  918a		       b0 05		      BCS	FASTANGL
   1107  918c		       a5 8c		      LDA	STARINC
   1108  918e		       4a		      LSR
   1109  918f		       90 15		      BCC	ENDTWIRL
   1110  9191		       ee d3 1e    FASTANGL   INC	ANGLE+40
   1111  9194		       4c 85 8a 	      JMP	END1
   1112  9197		       c9 85	   ENDCHCK    CMP	#133
   1113  9199		       d0 0b		      BNE	ENDTWIRL
   1114  919b		       a9 06		      LDA	#6	;		       ;SIGNIFY HERO WAIT MODE
   1115  919d		       8d 9f 1f 	      STA	MODE+40
   1116  91a0		       a9 4f		      LDA	#$4F
   1117  91a2		       85 c0		      STA	CAPTDREG	;		 ;SIGNIFY "FIGHTER CAPTURED"
   1118  91a4		       d0 0a		      BNE	ENDTWIL
   1119  91a6		       a5 42	   ENDTWIRL   LDA	RACK
   1120  91a8		       c9 12		      CMP	#18
   1121  91aa		       90 04		      BCC	ENDTWIL
   1122  91ac		       e6 de		      INC	BOZO4
   1123  91ae		       f0 b9		      BEQ	BACKSTAR
   1124  91b0		       4c 85 8a    ENDTWIL    JMP	END1
   1125  91b3
   1126  91b3				   BCAPTUR		;				 ;DIFFERENTIATE IF THERE IS A CAPTURED
   1127  91b3		       b9 d3 1d 	      LDA	TYPE,Y	;		   ;SHIP TOGETHER
   1128  91b6		       10 03		      BPL	BNCAPTUR
   1129  91b8		       4c d3 91 	      JMP	BCAPTURE
   1130  91bb				   BNCAPTUR
   1131  91bb		       b9 63 1e 	      LDA	YCORD,Y
   1132  91be		       18		      CLC
   1133  91bf		       69 03		      ADC	#3
   1134  91c1		       99 63 1e 	      STA	YCORD,Y
   1135  91c4		       c9 c0		      CMP	#192
   1136  91c6		       b0 03		      BCS	GOINREP	;		  ;OFF THE SCREEN?
   1137  91c8		       4c 85 8a 	      JMP	END1
   1138  91cb
   1139  91cb				   GOINREP
   1140  91cb		       a9 82		      LDA	#$82
   1141  91cd		       99 77 1f 	      STA	MODE,Y
   1142  91d0		       4c 85 8a 	      JMP	END1
   1143  91d3
   1144  91d3
   1145  91d3
   1146  91d3				   BCAPTURE
   1147  91d3		       20 9c 9a 	      JSR	MSHBTBL
   1148  91d6		       e0 00		      CPX	#0
   1149  91d8		       d0 03		      BNE	STOPTBL1
   1150  91da		       4c 85 8a 	      JMP	END1
   1151  91dd				   STOPTBL1
   1152  91dd		       b9 d3 1d 	      LDA	TYPE,Y
   1153  91e0		       29 7f		      AND	#$7F
   1154  91e2		       99 d3 1d 	      STA	TYPE,Y
   1155  91e5		       a9 81		      LDA	#$81
   1156  91e7		       99 77 1f 	      STA	MODE,Y
   1157  91ea		       4c 85 8a 	      JMP	END1
   1158  91ed
   1159  91ed		       b9 d3 1d    ORIENT     LDA	TYPE,Y
   1160  91f0		       10 1e		      BPL	DODANG	;		   ;IF TRUE DO THE ANGLES
   1161  91f2		       b9 63 1e 	      LDA	YCORD,Y
   1162  91f5		       18		      CLC		;			      ;ELSE ADD TO Y COORDINATE
   1163  91f6		       69 01		      ADC	#1
   1164  91f8		       99 63 1e 	      STA	YCORD,Y
   1165  91fb		       d9 a6 93 	      CMP	RESTABY,Y	;		;IS IT AT REST POSITION
   1166  91fe		       d0 0d		      BNE	GOTOEND
   1167  9200		       b9 d3 1d 	      LDA	TYPE,Y	;		   ;YES THEN START ANGLE PROCESSING
   1168  9203		       29 7f		      AND	#$7F
   1169  9205		       99 d3 1d 	      STA	TYPE,Y
   1170  9208		       a9 08		      LDA	#8
   1171  920a		       99 ba 1f 	      STA	COUNTXY,Y
   1172  920d		       4c 85 8a    GOTOEND    JMP	END1
   1173  9210		       c0 28	   DODANG     CPY	#40	;		      ;SEE IF CAPTD HERO
   1174  9212		       d0 04		      BNE	DODANG01
   1175  9214		       a6 5d		      LDX	CHTAB40
   1176  9216		       10 03		      BPL	DODANG02
   1177  9218		       be 7d 93    DODANG01   LDX	CHTAB,Y
   1178  921b		       bd 75 27    DODANG02   LDA	COLPOS,X
   1179  921e		       99 1b 1e 	      STA	XCORD,Y
   1180  9221		       b9 ba 1f 	      LDA	COUNTXY,Y
   1181  9224		       d0 21		      BNE	GOTOEND0
   1182  9226		       a9 08		      LDA	#8
   1183  9228		       99 ba 1f 	      STA	COUNTXY,Y
   1184  922b		       b9 ab 1e 	      LDA	ANGLE,Y	;		  ;DO THE ANGLES
   1185  922e		       38		      SEC
   1186  922f		       e9 01		      SBC	#1
   1187  9231		       99 ab 1e 	      STA	ANGLE,Y
   1188  9234		       f0 03		      BEQ	DONEANG
   1189  9236		       4c 85 8a 	      JMP	END1
   1190  9239		       a9 00	   DONEANG    LDA	#0
   1191  923b		       99 77 1f 	      STA	MODE,Y
   1192  923e							;	   LDA	   TYPE+63;		   ;SEE IF HERO DEAD
   1193  923e							;	   BNE	   DONEANG1;		   ;DEC IF HERO DEAD
   1194  923e		       c0 28		      CPY	#40	;		      ;SEE IF CAPTD HERO
   1195  9240		       10 02		      BPL	DONEANG1	;		 ;DONT DEC IF SO
   1196  9242		       c6 88		      DEC	AIRBORNE	;		 ;ALWAYS DEC WHEN DONE WITH ORIENT
   1197  9244		       4c 85 8a    DONEANG1   JMP	END1
   1198  9247		       38	   GOTOEND0   SEC
   1199  9248		       e9 01		      SBC	#1
   1200  924a		       99 ba 1f 	      STA	COUNTXY,Y
   1201  924d		       4c 85 8a 	      JMP	END1
   1202  9250
   1203  9250		       ad 9f 1f    HEROSPIN   LDA	MODE+40	;		  ;GET CAPTURED HERO MODE
   1204  9253		       c9 09		      CMP	#9	;		       ;SEE IF IN REUNITE MODE
   1205  9255		       f0 1c		      BEQ	REUNITE
   1206  9257		       c9 08		      CMP	#8	;		       ;SEE IF IN SPIN MODE
   1207  9259		       d0 17		      BNE	ENDHSPIN
   1208  925b		       a5 88		      LDA	AIRBORNE	;		 ;CHECK IF SHIPS ARE ATTACKING
   1209  925d		       d0 10		      BNE	HSPIN1
   1210  925f		       ad d3 1e 	      LDA	ANGLE+40	;		 ;STOP SPINNING, SET PROPER ANGLE
   1211  9262		       c9 00		      CMP	#0	;		       ;IS IT POINTING UP?
   1212  9264		       f0 02		      BEQ	HSPIN2	;		   ;YES, CHANGE HERO MODE
   1213  9266		       d0 07		      BNE	HSPIN1
   1214  9268		       a9 09	   HSPIN2     LDA	#9
   1215  926a		       8d 9f 1f 	      STA	MODE+40	;		  ;CHANGE TO REUNITE MODE
   1216  926d							;				 ;IN THE CAPTURE ATTEMPT
   1217  926d		       d0 03		      BNE	ENDHSPIN
   1218  926f				   HSPIN1
   1219  926f		       ee d3 1e 	      INC	ANGLE+40
   1220  9272		       60	   ENDHSPIN   RTS
   1221  9273
   1222  9273		       ad 43 1e    REUNITE    LDA	XCORD+40	;		 ;GET CAPTURED HERO XCORD
   1223  9276		       c9 50		      CMP	#80	;		      ;SEE IF AT CENTER YET
   1224  9278		       f0 0a		      BEQ	REINCY	;		   ;IF SO, INCREMENT YCORD
   1225  927a		       b0 04		      BCS	REDECX	;		   ;IF GREATER, DECREMENT XCORD
   1226  927c		       ee 43 1e 	      INC	XCORD+40	;		 ;INCREMENT X POSITION
   1227  927f		       60		      RTS
   1228  9280		       ce 43 1e    REDECX     DEC	XCORD+40	;		 ;DECREMENT X POSITION
   1229  9283		       60		      RTS
   1230  9284		       ad 8b 1e    REINCY     LDA	YCORD+40	;		 ;GET CAPTURED HERO YCORD
   1231  9287		       c9 ab		      CMP	#171	;		     ;SEE IF AT REST POSITION
   1232  9289		       f0 1a		      BEQ	UNITESHP
   1233  928b		       ee 8b 1e 	      INC	YCORD+40	;		 ;LOWER SHIP ONE PIXEL
   1234  928e		       ad 5a 1e    RNT1       LDA	XCORD+63	;		 ;GET BASE XCORD
   1235  9291		       c9 49		      CMP	#73	;		      ;SEE IF AT CENTER YET
   1236  9293		       f0 0b		      BEQ	ENDRNT
   1237  9295		       b0 06		      BCS	RNT2
   1238  9297		       ee 5a 1e 	      INC	XCORD+63	;		 ;MOVE HERO RIGHT
   1239  929a		       4c a0 92 	      JMP	ENDRNT
   1240  929d		       ce 5a 1e    RNT2       DEC	XCORD+63	;		 ;MOVE HERO LEFT
   1241  92a0		       a9 0a	   ENDRNT     LDA	#10	;		      ;PREVENT FURTHER FIRING
   1242  92a2		       85 a9		      STA	MISTIMER
   1243  92a4		       60		      RTS
   1244  92a5
   1245  92a5		       ad 12 1e    UNITESHP   LDA	TYPE+63	;		  ;SEE IF HERO WAS KILLED
   1246  92a8		       f0 31		      BEQ	UNITESH2
   1247  92aa		       ad 5a 1e 	      LDA	XCORD+63	;		 ;SEE IF BASE HERO HAS ARRIVED
   1248  92ad		       c9 49		      CMP	#73
   1249  92af		       d0 dd		      BNE	RNT1	;		     ;NO, WAIT LONGER
   1250  92b1							;	   LDA	   #73
   1251  92b1							;	  STA	  HEROX;		  ;INITIALIZE HEROX
   1252  92b1		       a9 05		      LDA	#5
   1253  92b3		       8d 11 1e 	      STA	TYPE+62	;		  ;INITIALIZE 2ND HERO SHIP
   1254  92b6		       a9 0a		      LDA	#10
   1255  92b8		       8d b6 1f 	      STA	MODE+63	;		  ;SET HERO DUAL MODE
   1256  92bb		       a9 00	   UNITESH1   LDA	#0
   1257  92bd		       8d 9f 1f 	      STA	MODE+40	;		  ;RESET MODE
   1258  92c0		       8d fb 1d 	      STA	TYPE+40	;		  ;KILL CAPTURED HERO SHIP
   1259  92c3		       8d e9 1e 	      STA	ANGLE+62	;		 ;SET NEW HERO ANGLE
   1260  92c6		       a9 50		      LDA	#80
   1261  92c8		       8d 59 1e 	      STA	XCORD+62	;		 ;SET NEW HERO XCORD
   1262  92cb		       a9 ab		      LDA	#171	;		     ;INIT 2ND HERO YCORD
   1263  92cd		       8d a1 1e 	      STA	YCORD+62
   1264  92d0		       a9 05		      LDA	#5
   1265  92d2		       20 e6 d3 	      JSR	SCRAPONE
   1266  92d5		       a9 06		      LDA	#6
   1267  92d7		       20 e6 d3 	      JSR	SCRAPONE	;		 ;KILL RELEASE TUNE
   1268  92da		       60	   ENDUNITE   RTS
   1269  92db
   1270  92db		       ad 43 1e    UNITESH2   LDA	XCORD+40
   1271  92de		       c9 50		      CMP	#80	;		      ;SEE IF AT CENTER YET
   1272  92e0		       d0 f8		      BNE	ENDUNITE	;		 ;WAIT LONGER
   1273  92e2							;	   STA	   XCORD+63
   1274  92e2		       8d 5a 1e 	      STA	HEROX
   1275  92e5		       a9 05		      LDA	#5
   1276  92e7		       8d 12 1e 	      STA	TYPE+63
   1277  92ea		       4c bb 92 	      JMP	UNITESH1
   1278  92ed
   1279  92ed
   1280  92ed		       04 04 24 07*PEELDOWN   DC.B	$04,$04,$24,$07,$24,$24
   1281  92f3		       27 40 44 43*	      DC.B	$27,$40,$44,$43,$5C,$3C
   1282  92f9		       3c 3f 1c 3c*	      DC.B	$3C,$3F,$1C,$3C,$1C,$1C
   1283  92ff		       02 02 02 02*	      DC.B	2,2,2,2,2	;		       ;2 INDICATES END OF TABLE
   1284  9304
   1285  9304		       38 59 5c 21*PEELOFF    DC.B	$38,$59,$5C,$21,$45
   1286  9309		       48 29		      DC.B	$48,$29
   1287  930b		       02 02 02 02*	      DC.B	2,2,2,2,2,2	;		      ;HERE COMES THE PEELOFF  TABLE
   1288  9311		       04 04	   REDTAB     DC.B	$04,$04
   1289  9313		       04 24 04 04*	      DC.B	$04,$24,$04,$04,$04
   1290  9318		       24 04 04 24	      DC.B	$24,$04,$04,$24
   1291  931c		       04 04		      DC.B	$04,$04
   1292  931e		       24 04 20 24	      DC.B	$24,$04,$20,$24
   1293  9322		       04 23 04 20	      DC.B	$04,$23,$04,$20
   1294  9326		       04 24 24 20	      DC.B	$04,$24,$24,$20
   1295  932a		       24 24 24 24	      DC.B	$24,$24,$24,$24
   1296  932e		       20 24 24 24	      DC.B	$20,$24,$24,$24
   1297  9332		       24 24 20 04	      DC.B	$24,$24,$20,$04
   1298  9336		       24 24 24 20	      DC.B	$24,$24,$24,$20
   1299  933a		       04 24 24 20	      DC.B	$04,$24,$24,$20
   1300  933e		       04 24 20 04	      DC.B	$04,$24,$20,$04
   1301  9342		       24 24 04 20	      DC.B	$24,$24,$04,$20
   1302  9346		       24 04 20 05	      DC.B	$24,$04,$20,$05
   1303  934a		       04 24 04 04	      DC.B	$04,$24,$04,$04
   1304  934e		       24 04 04 04	      DC.B	$24,$04,$04,$04
   1305  9352		       24 04 02 02	      DC.B	$24,$04,2,2
   1306  9356
   1307  9356		       04 04 04 04 REDTAB1    DC.B	$04,$04,$04,$04
   1308  935a		       04 20 04 07	      DC.B	$04,$20,$04,$07
   1309  935e		       20 24 24 20	      DC.B	$20,$24,$24,$20
   1310  9362		       24 04 24 04	      DC.B	$24,$04,$24,$04
   1311  9366		       20 24 24 20	      DC.B	$20,$24,$24,$20
   1312  936a		       24 04 24 04	      DC.B	$24,$04,$24,$04
   1313  936e		       20 04 05 20	      DC.B	$20,$04,$05,$20
   1314  9372		       04 04 04 04	      DC.B	$04,$04,$04,$04
   1315  9376		       04 04 04 04	      DC.B	$04,$04,$04,$04
   1316  937a		       04 02 02 	      DC.B	$04,2,2
   1317  937d
   1318  937d		       00 09 00 09*CHTAB      DC.B	0,9,0,9,1,8,3,1,8,1
   1319  9387		       08 01 08 02*	      DC.B	8,1,8,2,7,2,7,6,2,7
   1320  9391		       02 07 03 06*	      DC.B	2,7,3,6,3,6,4,3,6,3
   1321  939b		       06 04 05 04*	      DC.B	6,4,5,4,5,5,4,5,4,5
   1322  93a5		       00		      DC.B	0
   1323  93a6
   1324  93a6
   1325  93a6		       3d 3d 31 31*RESTABY    DC.B	61,61,49,49,37,37,13,61,61,49
   1326  93b0		       31 19 19 3d*	      DC.B	49,25,25,61,61,37,37,13,49,49
   1327  93ba		       19 19 3d 3d*	      DC.B	25,25,61,61,37,37,13,49,49,25
   1328  93c4		       19 3d 3d 25*	      DC.B	25,61,61,37,37,13,49,49,25,25
   1329  93ce		       01		      DC.B	1
------- FILE GLOAD.ASM
------- FILE GSCORE.ASM LEVEL 2 PASS 2
      0  93cf					      include	"GSCORE.ASM"
      1  93cf					      processor	6502
      2  93cf							;*GSCORE.S
      3  93cf
      4  93cf							;* THIS ADDSCORE SUBROUTINE ADDS THE SCORE IN TEMP4 AND TEMP5 ;*
      5  93cf
      6  93cf
      7  93cf
      8  93cf		       a6 ae	   ADDSCORE   LDX	PLAYER
      9  93d1		       b5 b1		      LDA	LIVES,X	;		  ;LIVES IS THE NO OF LIVES OF PLAYER X
     10  93d3		       30 6e		      BMI	ZADSOUT	;		  ;IF MINUS THEN YOU ARE OUT
     11  93d5		       a5 b0		      LDA	AUTOPLAY	;		 ;CHECK IF IN AUTO PLAY
     12  93d7		       d0 6a		      BNE	ZADSOUT	;		  ;IF ZERO THEN NOT IN AUTO
     13  93d9		       85 6c		      STA	TEMP3	;		    ;STORE ZERO IN HERE
     14  93db		       8a		      TXA
     15  93dc		       d0 34		      BNE	ZADSP2	;		   ;BRANCH IF IN PLAYER TWO
     16  93de		       a0 02		      LDY	#2
     17  93e0		       f8		      SED		;			      ;SET DECIMAL MODE ON
     18  93e1		       18		      CLC
     19  93e2
     20  93e2		       b9 6c 00    ZDS1LOOP   LDA	TEMP3,Y	;		  ;GET ADDRESS AFTER TEMP3 LOCATION
     21  93e5		       79 24 27 	      ADC	P1SCORE,Y	;		;ADD IT TO SCORE
     22  93e8		       99 24 27 	      STA	P1SCORE,Y	;		;STORE
     23  93eb		       88		      DEY		;			      ;GO TO NEXT DIGITS
     24  93ec		       10 f4		      BPL	ZDS1LOOP
     25  93ee		       90 1b		      BCC	NOMILLS	;		  ;NO MILLION INCREASE
     26  93f0		       ad 62 27 	      LDA	SCORE+6	;		  ;GET MILLIONS DIGIT
     27  93f3		       69 00		      ADC	#0	;		       ;INC DIGIT
     28  93f5		       8d 62 27 	      STA	SCORE+6
     29  93f8		       c9 0a		      CMP	#10
     30  93fa		       30 0f		      BMI	NOMILLS
     31  93fc		       38		      SEC
     32  93fd		       e9 0a		      SBC	#10
     33  93ff		       8d 62 27 	      STA	SCORE+6
     34  9402		       ad 63 27 	      LDA	SCORE+7
     35  9405		       18		      CLC
     36  9406		       69 01		      ADC	#1
     37  9408		       8d 63 27 	      STA	SCORE+7
     38  940b		       8a	   NOMILLS    TXA		;			      ;PUT PLAYER NO IN ACCUMULATOR
     39  940c		       20 4d 94 	      JSR	CHKSCOR1	;		 ;CLEARS DECIMAL MODE
     40  940f		       4c 43 94 	      JMP	ZADSOUT	;		  ;GO TO END
     41  9412
     42  9412		       a0 02	   ZADSP2     LDY	#$2
     43  9414		       f8		      SED
     44  9415		       18		      CLC
     45  9416		       b9 6c 00    ZDS2LOOP   LDA	TEMP3,Y
     46  9419		       79 27 27 	      ADC	P2SCORE,Y
     47  941c		       99 27 27 	      STA	P2SCORE,Y
     48  941f		       88		      DEY
     49  9420		       10 f4		      BPL	ZDS2LOOP
     50  9422		       90 1b		      BCC	NOP2MILL
     51  9424		       ad 6a 27 	      LDA	SCORE+14	;		 ;GET MILLIONS DIGIT
     52  9427		       69 00		      ADC	#0
     53  9429		       8d 6a 27 	      STA	SCORE+14
     54  942c		       c9 0a		      CMP	#10	;		      ;SEE IF 10 YET
     55  942e		       30 0f		      BMI	NOP2MILL
     56  9430		       38		      SEC
     57  9431		       e9 0a		      SBC	#10
     58  9433		       8d 6a 27 	      STA	SCORE+14
     59  9436		       ad 6b 27 	      LDA	SCORE+15
     60  9439		       18		      CLC
     61  943a		       69 01		      ADC	#1
     62  943c		       8d 6b 27 	      STA	SCORE+15
     63  943f		       8a	   NOP2MILL   TXA
     64  9440		       20 87 94 	      JSR	CHKSCOR2
     65  9443
     66  9443		       20 d5 95    ZADSOUT    JSR	WRTSCORE
     67  9446		       a9 00		      LDA	#0
     68  9448		       85 6e		      STA	TEMP5
     69  944a		       85 6d		      STA	TEMP4
     70  944c		       60		      RTS
     71  944d
     72  944d
     73  944d
     74  944d							;* THIS SUBROUTINE CHECKS FOR BONUS LIFE ;*
     75  944d
     76  944d		       a0 01	   CHKSCOR1   LDY	#1	;		       ;DO NOT CARE ABOUT MOST SIG,
     77  944f		       18		      CLC
     78  9450		       b9 6d 00    ZKS1LOOP   LDA	TEMP4,Y	;		  ;TAKE THE THOUSANDS
     79  9453		       79 aa 00 	      ADC	P1BONUS,Y	;		;ADD TO BONUS  COUNTER
     80  9456		       99 aa 00 	      STA	P1BONUS,Y
     81  9459		       88		      DEY
     82  945a		       10 f4		      BPL	ZKS1LOOP
     83  945c		       d8		      CLD		;			      ;TURN DECIMAL MODE OFF
     84  945d		       a5 aa		      LDA	P1BONUS	;		  ;CHECK TO SEE IF ENOUGH BONUS
     85  945f		       c9 30		      CMP	#<BONUSPT
     86  9461		       90 23		      BCC	ZKS1OUT
     87  9463		       a5 aa		      LDA	P1BONUS
     88  9465		       38		      SEC
     89  9466		       e9 30		      SBC	#<BONUSPT	;		  ;TAKE THAT AMOUNT OFF
     90  9468		       85 aa		      STA	P1BONUS
     91  946a		       a5 95		      LDA	P1TOG	;		    ;SEE IF HAVE GIVEN BONUS YET
     92  946c		       f0 11		      BEQ	NP1BONYT	;		;NO PLAYER 1 BONUS YET
     93  946e		       e6 95		      INC	P1TOG	;		    ;INCREMENT TOGGLE COUNTER
     94  9470		       a5 95		      LDA	P1TOG
     95  9472		       c9 05		      CMP	#5	;		       ;SEE IF AT 4;*BONUSPT YET
     96  9474		       f0 01		      BEQ	NEXTBON1	;		 ;YES, NEXT BONUS REACHED
     97  9476		       60		      RTS
     98  9477		       20 c2 95    NEXTBON1   JSR	INCLIVES
     99  947a		       a9 01		      LDA	#1
    100  947c		       85 95		      STA	P1TOG
    101  947e		       60		      RTS
    102  947f				   NP1BONYT
    103  947f		       e6 95		      INC	P1TOG
    104  9481		       e6 95		      INC	P1TOG
    105  9483		       20 c2 95 	      JSR	INCLIVES	;		 ;INCREMENT THE LIVES
    106  9486		       60	   ZKS1OUT    RTS
    107  9487
    108  9487		       a0 01	   CHKSCOR2   LDY	#1
    109  9489		       18		      CLC
    110  948a		       b9 6d 00    ZKS2LOOP   LDA	TEMP4,Y
    111  948d		       79 ac 00 	      ADC	P2BONUS,Y
    112  9490		       99 ac 00 	      STA	P2BONUS,Y
    113  9493		       88		      DEY
    114  9494		       10 f4		      BPL	ZKS2LOOP
    115  9496		       d8		      CLD
    116  9497		       a5 ac		      LDA	P2BONUS
    117  9499		       c9 30		      CMP	#<BONUSPT
    118  949b		       90 2a		      BCC	ZKS2OUT
    119  949d		       a5 96		      LDA	P2TOG	;		    ;SEE IF HAVE GIVEN BONUS YET
    120  949f		       f0 18		      BEQ	NP2BONYT	;		;NO PLAYER 2 BONUS YET
    121  94a1		       a5 ac		      LDA	P2BONUS
    122  94a3		       38		      SEC
    123  94a4		       e9 30		      SBC	#<BONUSPT	;		  ;TAKE THAT AMOUNT OFF
    124  94a6		       85 ac		      STA	P2BONUS
    125  94a8		       e6 96		      INC	P2TOG	;		    ;INCREMENT TOGGLE COUNTER
    126  94aa		       a5 96		      LDA	P2TOG
    127  94ac		       c9 05		      CMP	#5	;		       ;SEE IF AT 4;*BONUSPT YET
    128  94ae		       f0 01		      BEQ	NEXTBON2	;		 ;YES, NEXT BONUS REACHED
    129  94b0		       60		      RTS
    130  94b1		       20 c2 95    NEXTBON2   JSR	INCLIVES
    131  94b4		       a9 01		      LDA	#1
    132  94b6		       85 96		      STA	P2TOG
    133  94b8		       60		      RTS
    134  94b9		       a5 ac	   NP2BONYT   LDA	P2BONUS
    135  94bb		       38		      SEC
    136  94bc		       e9 30		      SBC	#<BONUSPT	;		  ;TAKE THAT AMOUNT OFF
    137  94be		       85 ac		      STA	P2BONUS
    138  94c0		       e6 96		      INC	P2TOG
    139  94c2		       e6 96		      INC	P2TOG
    140  94c4		       20 c2 95 	      JSR	INCLIVES	;		 ;INCREMENT THE LIVES
    141  94c7		       60	   ZKS2OUT    RTS
    142  94c8
    143  94c8
    144  94c8
    145  94c8
    146  94c8
    147  94c8							;*DECREMENT THE LIVES OF THE GUY INDICATED IN REGISTER X;*
    148  94c8		       ad 23 27    DECLIVES   LDA	TWOPLAYR
    149  94cb		       f0 05		      BEQ	DECLIVE1
    150  94cd		       a9 a0		      LDA	#$A0
    151  94cf		       85 ba		      STA	DECREG
    152  94d1		       60		      RTS
    153  94d2		       a6 ae	   DECLIVE1   LDX	PLAYER
    154  94d4		       d6 b1		      DEC	LIVES,X	;		  ;DEC LIVES OF CURRENT PLAYER
    155  94d6		       d0 1f		      BNE	ZDLOUT
    156  94d8		       a5 b1		      LDA	LIVES	;		    ;GET LIVES OF PLAYER 1
    157  94da		       05 b2		      ORA	LIVES+1	;		  ;SEE IF BOTH ARE OVER
    158  94dc		       f0 16		      BEQ	ZZLOVER	;		  ;RESTART GAME PLAY
    159  94de		       8c 50 27 	      STY	TTEMP	;		    ;SAVE Y VALUE
    160  94e1		       a9 4f		      LDA	#$4F
    161  94e3		       85 be		      STA	PLAYRREG	;		 ;"PLAYER X"
    162  94e5		       85 bf		      STA	GMOVEREG	;		 ;"GAME OVER"
    163  94e7		       a9 05		      LDA	#5
    164  94e9		       8d 12 1e 	      STA	TYPE+63
    165  94ec		       a9 49		      LDA	#73
    166  94ee		       8d 5a 1e 	      STA	XCORD+63
    167  94f1		       4c 1d 95 	      JMP	ZDLOUT3
    168  94f4		       4c b6 95    ZZLOVER    JMP	ZDLOVER
    169  94f7
    170  94f7							;* PUT READY MESSAGE
    171  94f7				   ZDLOUT
    172  94f7		       ad b6 1f 	      LDA	MODE+63	;		  ;SEE IF IN HERO DUAL MODE
    173  94fa		       f0 01		      BEQ	ZDLLUT
    174  94fc		       60		      RTS
    175  94fd		       a9 4f	   ZDLLUT     LDA	#$4F
    176  94ff		       85 bb		      STA	RDYREG	;		   ;STORE COUNTER FOR READY
    177  9501		       a9 05		      LDA	#5
    178  9503		       8d 12 1e 	      STA	TYPE+63
    179  9506		       a9 49		      LDA	#73
    180  9508		       8d 5a 1e 	      STA	HEROX
    181  950b							;	   STA	   XCORD+63
    182  950b		       a5 89		      LDA	NOSWITCH	;		 ;SEE IF SHOULDN"T SWITCH PLAYERS
    183  950d		       d0 09		      BNE	ZSWITCH	;		  ;EQUAL TO ZERO MEANS SWITCH
    184  950f		       ad 23 27 	      LDA	TWOPLAYR
    185  9512		       d0 05		      BNE	ZDLOUT0
    186  9514		       a9 28		      LDA	#40
    187  9516		       85 a9		      STA	MISTIMER	;		 ;PREVENT CHEAP SHOTS DURING "READY"
    188  9518		       60	   ZSWITCH    RTS
    189  9519
    190  9519							;  THIS ROUTINE MUST SAVE THE CURRENT DATA, SWITCH TO THE NEW PLAYER, AND
    191  9519							;	   SWITCH TO THE PREVIOUS SCREEN OF THE NEW PLAYER
    192  9519							;	   THE X REGISTER HAS THE OLD PLAYER
    193  9519		       a9 4f	   ZDLOUT0    LDA	#$4F
    194  951b		       85 be		      STA	PLAYRREG	;		 ;"PLAYER X"
    195  951d
    196  951d				   ZDLOUT3
    197  951d		       a9 48		      LDA	#72
    198  951f		       85 57		      STA	BULLSHT	;		  ;RESET STALL REGISTER
    199  9521		       a5 ae		      LDA	PLAYER
    200  9523		       49 01		      EOR	#1	;		       ;INC TO NEXT PLAYER
    201  9525		       aa		      TAX
    202  9526		       b5 b1		      LDA	LIVES,X
    203  9528		       d0 03		      BNE	NOTDEAD
    204  952a		       4c b2 95 	      JMP	ZDEND	;		    ;DON"T SWITCH PLAYERS
    205  952d		       8a	   NOTDEAD    TXA
    206  952e		       85 ae		      STA	PLAYER	;		   ;STORE NEW PLAYER
    207  9530		       a0 28		      LDY	#40	;		      ;INIT TO LAST ENEMY IN ENMYLIST
    208  9532		       be aa 1d    ZDLOUT1    LDX	NEWTYPE,Y	;		;GET SAVED TYPE VALUE
    209  9535		       b9 d3 1d 	      LDA	TYPE,Y	;		   ;GET CURRENT TYPE INFO
    210  9538		       99 aa 1d 	      STA	NEWTYPE,Y	;		;STORE CURRENT TYPE INFO
    211  953b		       8a		      TXA
    212  953c		       99 d3 1d 	      STA	TYPE,Y	;		   ;RESTORE OLD TYPE INFO
    213  953f		       88		      DEY
    214  9540		       10 f0		      BPL	ZDLOUT1	;		  ;LOOP UNTIL ALL ARE SAVED
    215  9542		       a0 09		      LDY	#9	;		       ;INIT Y TO LAST COLPOS
    216  9544		       be a0 1d    ZDLOUT2    LDX	NEWCOLS,Y	;		;GET SAVED COLUMN VALUE
    217  9547		       b9 75 27 	      LDA	COLPOS,Y	;		 ;GET CURRENT COLPOS INFO
    218  954a		       99 a0 1d 	      STA	NEWCOLS,Y	;		;STORE CURRENT COLPOS INFO
    219  954d		       8a		      TXA
    220  954e		       99 75 27 	      STA	COLPOS,Y	;		 ;RESTORE OLD COLPOS INFO
    221  9551		       88		      DEY
    222  9552		       10 f0		      BPL	ZDLOUT2
    223  9554		       a0 23		      LDY	#35	;		      ;THIS SAVES FIRST 36 ZERO PAGE REGS.
    224  9556		       be 2b 27    XAVESLP    LDX	SAVES,Y
    225  9559		       b9 40 00 	      LDA	ARRIVED,Y
    226  955c		       99 2b 27 	      STA	SAVES,Y
    227  955f		       8a		      TXA
    228  9560		       99 40 00 	      STA	ARRIVED,Y
    229  9563		       88		      DEY
    230  9564		       10 f0		      BPL	XAVESLP
    231  9566		       a2 28		      LDX	#40	;		      ;PUT OFF SCREEN Y COORDINATES
    232  9568		       bd a6 93    XXAVE      LDA	RESTABY,X
    233  956b		       38		      SEC
    234  956c		       e9 3c		      SBC	#60
    235  956e		       9d 63 1e 	      STA	YCORD,X
    236  9571		       ca		      DEX
    237  9572		       10 f4		      BPL	XXAVE
    238  9574		       a9 00		      LDA	#0
    239  9576		       a0 2d		      LDY	#45
    240  9578		       99 77 1f    AEROMODE   STA	MODE,Y
    241  957b		       99 ab 1e 	      STA	ANGLE,Y
    242  957e		       99 40 01 	      STA	MOMENTUM,Y
    243  9581		       88		      DEY
    244  9582		       10 f4		      BPL	AEROMODE
    245  9584		       a0 27		      LDY	#39
    246  9586		       b9 d3 1d    SETCOLS    LDA	TYPE,Y
    247  9589		       f0 09		      BEQ	SETCOLS1
    248  958b		       be 7d 93 	      LDX	CHTAB,Y	;		  ;SET ALL XCORDS
    249  958e		       bd 75 27 	      LDA	COLPOS,X
    250  9591		       99 1b 1e 	      STA	XCORD,Y
    251  9594		       88	   SETCOLS1   DEY
    252  9595		       10 ef		      BPL	SETCOLS
    253  9597		       ad fb 1d 	      LDA	TYPE+40	;		  ;SEE IF CAPTD HERO ACTIVE
    254  959a		       f0 16		      BEQ	ZDEND
    255  959c		       a0 27		      LDY	#39
    256  959e		       b9 d3 1d    SETCAPY    LDA	TYPE,Y	;		   ;GET TYPE OF SHIP
    257  95a1		       c9 10		      CMP	#16	;		      ;BOSS WOULD BE 16 OR 17
    258  95a3		       10 03		      BPL	FNDBOSS
    259  95a5		       88		      DEY
    260  95a6		       10 f6		      BPL	SETCAPY
    261  95a8		       b9 1b 1e    FNDBOSS    LDA	XCORD,Y	;		  ;GET BOSS XCORD
    262  95ab		       8d 43 1e 	      STA	XCORD+40	;		 ;SET CAPT HERO XCORD
    263  95ae		       a9 80		      LDA	#$80
    264  95b0		       85 a9		      STA	MISTIMER	;		 ;PREVENT SHOTS DURING SCROLL IN
    265  95b2		       ac 50 27    ZDEND      LDY	TTEMP
    266  95b5		       60		      RTS
    267  95b6
    268  95b6
    269  95b6							; THIS ROUTINE RESTARTS THE GAME PLAY
    270  95b6		       a9 01	   ZDLOVER    LDA	#1
    271  95b8		       85 af		      STA	GAMEOVER
    272  95ba		       a9 4f		      LDA	#$4F
    273  95bc		       85 bf		      STA	GMOVEREG
    274  95be		       4c 79 85 	      JMP	WORDS4
    275  95c1		       60		      RTS
    276  95c2
    277  95c2
    278  95c2
    279  95c2
    280  95c2
    281  95c2							;* INCREMENTING THE LIVES OF THE PLAYER INDICATED BY REG X ;*
    282  95c2
    283  95c2		       b5 b1	   INCLIVES   LDA	LIVES,X
    284  95c4		       c9 0a		      CMP	#$A
    285  95c6		       f0 02		      BEQ	ZICLOUT
    286  95c8		       f6 b1		      INC	LIVES,X
    287  95ca							;	   JSR	   WRTLIVES
    288  95ca		       a9 03	   ZICLOUT    LDA	#3
    289  95cc		       20 03 d4 	      JSR	TUNIN	;		    ;TUNE FOR GETTING EXTRA GUY
    290  95cf		       a9 04		      LDA	#4
    291  95d1		       20 03 d4 	      JSR	TUNIN
    292  95d4		       60		      RTS
    293  95d5
    294  95d5
    295  95d5							;* WRITE SCORE OF BOTH PLAYERS IN SCORE ;*
    296  95d5
    297  95d5
    298  95d5		       a9 01	   WRTSCORE   LDA	#1
    299  95d7		       85 67		      STA	TEMP0
    300  95d9		       a2 00		      LDX	#0
    301  95db
    302  95db		       bd 24 27    ZWSALOOP   LDA	P1SCORE,X	;		;ELIMINATE LEADING ZEROES
    303  95de		       4a		      LSR
    304  95df		       4a		      LSR
    305  95e0		       4a		      LSR
    306  95e1		       4a		      LSR
    307  95e2		       d0 1c		      BNE	ZWS1JMP0
    308  95e4		       20 5b 96 	      JSR	WRTBLANK
    309  95e7		       bd 24 27 	      LDA	P1SCORE,X
    310  95ea		       29 0f		      AND	#$F
    311  95ec		       d0 1a		      BNE	ZWS1JMP1
    312  95ee		       20 5b 96 	      JSR	WRTBLANK
    313  95f1		       e8		      INX
    314  95f2		       e0 03		      CPX	#3
    315  95f4		       30 e5		      BMI	ZWSALOOP
    316  95f6		       4c 10 96 	      JMP	ZWS1OUT
    317  95f9
    318  95f9		       bd 24 27    ZWS1LOOP   LDA	P1SCORE,X	;		;WRITE SIGNIFICANT DIGITS
    319  95fc		       4a		      LSR
    320  95fd		       4a		      LSR
    321  95fe		       4a		      LSR
    322  95ff		       4a		      LSR
    323  9600				   ZWS1JMP0		;				 ;THIS PART WRITES PLAYER 1
    324  9600		       20 5d 96 	      JSR	DOWRITE
    325  9603		       bd 24 27 	      LDA	P1SCORE,X
    326  9606		       29 0f		      AND	#$F
    327  9608
    328  9608				   ZWS1JMP1
    329  9608		       20 5d 96 	      JSR	DOWRITE
    330  960b		       e8		      INX
    331  960c		       e0 03		      CPX	#3
    332  960e		       30 e9		      BMI	ZWS1LOOP
    333  9610
    334  9610		       a9 00	   ZWS1OUT    LDA	#0
    335  9612		       20 5d 96 	      JSR	DOWRITE
    336  9615		       ad 23 27 	      LDA	TWOPLAYR	;		 ;CHECK TO SEE IF TWO PLAYERS
    337  9618		       d0 01		      BNE	ZWS2
    338  961a		       60		      RTS
    339  961b
    340  961b		       a9 09	   ZWS2       LDA	#9	;		       ;USED TO BE A 7
    341  961d		       85 67		      STA	TEMP0
    342  961f
    343  961f		       a2 00		      LDX	#0
    344  9621		       bd 27 27    ZWSBLOOP   LDA	P2SCORE,X
    345  9624		       4a		      LSR
    346  9625		       4a		      LSR
    347  9626		       4a		      LSR
    348  9627		       4a		      LSR
    349  9628		       d0 1c		      BNE	ZWS2JMP0
    350  962a		       20 5b 96 	      JSR	WRTBLANK
    351  962d		       bd 27 27 	      LDA	P2SCORE,X
    352  9630		       29 0f		      AND	#$F
    353  9632		       d0 1a		      BNE	ZWS2JMP1
    354  9634		       20 5b 96 	      JSR	WRTBLANK
    355  9637		       e8		      INX
    356  9638		       e0 03		      CPX	#3
    357  963a		       30 e5		      BMI	ZWSBLOOP
    358  963c		       4c 56 96 	      JMP	ZWS2OUT
    359  963f
    360  963f		       bd 27 27    ZWS2LOOP   LDA	P2SCORE,X
    361  9642		       4a		      LSR
    362  9643		       4a		      LSR
    363  9644		       4a		      LSR
    364  9645		       4a		      LSR
    365  9646				   ZWS2JMP0
    366  9646		       20 5d 96 	      JSR	DOWRITE
    367  9649		       bd 27 27 	      LDA	P2SCORE,X
    368  964c		       29 0f		      AND	#$F
    369  964e
    370  964e				   ZWS2JMP1
    371  964e		       20 5d 96 	      JSR	DOWRITE
    372  9651		       e8		      INX
    373  9652		       e0 03		      CPX	#3
    374  9654		       30 e9		      BMI	ZWS2LOOP
    375  9656
    376  9656		       a9 00	   ZWS2OUT    LDA	#0
    377  9658		       4c 5d 96 	      JMP	DOWRITE
    378  965b
    379  965b
    380  965b
    381  965b
    382  965b							;* THIS SUBROUTINE PUTS LIFE INDICATORS FOR BOTH PLAYERS ;*
    383  965b
    384  965b
    385  965b
    386  965b							;WRTLIVES  RTS
    387  965b							;	  TYA
    388  965b							;	 PHA
    389  965b							;	TXA
    390  965b							;     PHA
    391  965b							;    LDA     AUTOPLAY
    392  965b							;   BNE     ZWLOUT;		     ; 0 IF IN AUTO PLAY
    393  965b							;  LDX     #1; 		    ;START WITH PLAYER 1
    394  965b
    395  965b							;ZWLLOOP   LDA     LIFEX,X
    396  965b							;	  STA	  TEMP0;		  ;DOWRITE USES THIS
    397  965b							;	 LDY	 #3
    398  965b							;ZWLINDLP  TYA
    399  965b							;	  CMP	  LIVES,X
    400  965b							;	 BPL	 ZWLBLANK
    401  965b							;	LDA	LIFEIND,X
    402  965b							;     JSR     DOWRITE
    403  965b							;    JMP     ZWLNEXT
    404  965b							;ZWLBLANK  JSR     WRTBLANK
    405  965b							;ZWLNEXT   DEY
    406  965b							;	  BPL	  ZWLINDLP
    407  965b							;	 DEX
    408  965b							;	BPL	ZWLLOOP
    409  965b
    410  965b							;ZWLOUT
    411  965b							;	  PLA
    412  965b							;	 TAX
    413  965b							;	PLA
    414  965b							;     TAY
    415  965b							;    RTS
    416  965b
    417  965b							;LIFEIND   DC.B      0,0;		      ;WHERE LIFE INDICATORS ARE KEPT
    418  965b							;LIFEX     DC.B      0,0;		      ;WHERE THE LIFE INDICATORS GO IN STR.
    419  965b
    420  965b		       a9 0a	   WRTBLANK   LDA	#$A	;		      ;FIRST  CHARACTER IN FONT IS BLANK
    421  965d
    422  965d							;*  ACCUMULATOR NOW HAS THE DIGIT TO BE DISPLAYED ;*
    423  965d							;*  Y HAS THE POSITION OF THE DIGIT TO GO ;*
    424  965d
    425  965d
    426  965d		       84 68	   DOWRITE    STY	TEMP1
    427  965f		       a4 67		      LDY	TEMP0
    428  9661		       99 5c 27 	      STA	SCORE,Y	;		  ;PUT INTO STRING, AND IT IS DISPLAYED
    429  9664		       a4 68		      LDY	TEMP1
    430  9666		       e6 67		      INC	TEMP0
    431  9668		       60		      RTS
------- FILE GLOAD.ASM
------- FILE GDAC1_1.ASM LEVEL 2 PASS 2
      0  9669					      include	"GDAC1_1.ASM"
      1  9669							;GDAC1.S
      2  9669							;THIS SUBROUTINE GIVES BIRTH TO A SINGLE SHIP OR PAIR OF SHIPS
      3  9669							;IT GIVES BIRTH ACCORDING TO SHIPCNT AND RACK NUMBER
      4  9669							;IT ALSO RESETS BORNCNT
      5  9669							;IT ALSO INCREMENTS SHIPCNT APPROPRIATELY
      6  9669							;
      7  9669							;THE TEMPORARY VARIBLES IT USES ARE
      8  9669							;TEMP1    DS	   2;			   ;0 PAGE
      9  9669							;TEMP2    DS	   2;			   ;0 PAGE
     10  9669							;LOOPCNT  DS	   1
     11  9669							;
     12  9669							;THE CONSTANTS USED
     13  9669							;TIBTNBIR EQU	   ??;			   ;FRAMES BETWEEN BIRTHS
     14  9669							;TIBTNWAV EQU	   ??;			   ;SIZE OF EACH ENTRY IN ENEMY LIST
     15  9669							;NOTFOSH  EQU	   ??
     16  9669							;
     17  9669		       a5 60	   BIRTH      LDA	ABORT
     18  966b		       f0 01		      BEQ	BIRTH9
     19  966d		       60		      RTS		;			      ;RETURN IF ABORT = 1
     20  966e		       a5 61	   BIRTH9     LDA	CHALSTG	;		  ;SEE IF CHALLENGING STAGE
     21  9670		       f0 0d		      BEQ	BIRTH7	;		   ;IF NOT, GO ON
     22  9672		       a5 62		      LDA	CHALWAVE	;		 ;SEE IF NEW CHALLENGING WAVE
     23  9674		       f0 09		      BEQ	BIRTH7	;		   ;ONLY CARE ABOUT START OF NEW WAVE
     24  9676		       a5 88		      LDA	AIRBORNE	;		 ;SEE IF AIRBORNE = 0
     25  9678		       f0 01		      BEQ	BIRTH10
     26  967a		       60		      RTS
     27  967b		       a9 00	   BIRTH10    LDA	#0
     28  967d		       85 62		      STA	CHALWAVE	;		 ;USED FOR LONG CHALLENGING WAVES
     29  967f		       a5 45	   BIRTH7     LDA	NEWWAVE
     30  9681		       f0 14		      BEQ	BIRTH1
     31  9683		       ad fc 1d 	      LDA	TYPE+41
     32  9686		       18		      CLC
     33  9687		       6d fd 1d 	      ADC	TYPE+42
     34  968a		       6d fe 1d 	      ADC	TYPE+43
     35  968d		       6d ff 1d 	      ADC	TYPE+44
     36  9690		       f0 05		      BEQ	BIRTH1
     37  9692		       a9 04		      LDA	#4
     38  9694		       85 44		      STA	BORNCNT
     39  9696		       60		      RTS
     40  9697		       a5 46	   BIRTH1     LDA	SHIPCNT
     41  9699		       c9 0d		      CMP	#13
     42  969b		       f0 0e		      BEQ	STRTWV
     43  969d		       c9 19		      CMP	#25
     44  969f		       f0 0a		      BEQ	STRTWV
     45  96a1		       c9 25		      CMP	#37
     46  96a3		       f0 06		      BEQ	STRTWV
     47  96a5		       c9 31		      CMP	#49
     48  96a7		       f0 02		      BEQ	STRTWV
     49  96a9		       d0 08		      BNE	BIRTH8
     50  96ab		       a9 00	   STRTWV     LDA	#0
     51  96ad		       85 48		      STA	WAVECNT	;		  ;INDICATE TIME FOR NEW WAVE
     52  96af		       85 63		      STA	WAVESCR	;		  ;RESET SCORE FOR CHALLENGING WAVE
     53  96b1		       85 59		      STA	SHPERWAV	;		 ;RESET # OF SHIPS BORN THIS WAVE
     54  96b3		       a5 48	   BIRTH8     LDA	WAVECNT
     55  96b5		       f0 0e		      BEQ	INCWVREG
     56  96b7		       a5 61		      LDA	CHALSTG
     57  96b9		       f0 05		      BEQ	BIRTH11
     58  96bb		       a5 5b		      LDA	CHALINDX
     59  96bd		       4c f1 96 	      JMP	NOCHNG
     60  96c0		       a5 49	   BIRTH11    LDA	WAVEREG
     61  96c2		       4c f1 96 	      JMP	NOCHNG
     62  96c5		       a9 ff	   INCWVREG   LDA	#$FF
     63  96c7		       85 48		      STA	WAVECNT	;		  ;RESET WAVECNT
     64  96c9		       a5 61		      LDA	CHALSTG
     65  96cb		       f0 13		      BEQ	INCWVRG
     66  96cd		       a5 5b		      LDA	CHALINDX	;		 ;GET INDEX FOR CHALLENGING STAGES
     67  96cf		       c9 27		      CMP	#39	;		      ;SEE IF NEED TO RESET IT
     68  96d1		       d0 06		      BNE	INDXOK
     69  96d3		       a9 00		      LDA	#0
     70  96d5		       85 5b		      STA	CHALINDX
     71  96d7		       f0 18		      BEQ	NOCHNG
     72  96d9		       18	   INDXOK     CLC
     73  96da		       69 01		      ADC	#1
     74  96dc		       85 5b		      STA	CHALINDX
     75  96de		       d0 11		      BNE	NOCHNG
     76  96e0		       a5 49	   INCWVRG    LDA	WAVEREG
     77  96e2		       c9 0e		      CMP	#14	;		      ;SEE IF NEED TO RESET IT
     78  96e4		       d0 06		      BNE	INDXOK1
     79  96e6		       a9 00		      LDA	#0
     80  96e8		       85 49		      STA	WAVEREG
     81  96ea		       f0 05		      BEQ	NOCHNG
     82  96ec		       18	   INDXOK1    CLC
     83  96ed		       69 01		      ADC	#1
     84  96ef		       85 49		      STA	WAVEREG
     85  96f1		       a8	   NOCHNG     TAY
     86  96f2		       a5 42		      LDA	RACK	;		     ;SEE IF LOW RACK
     87  96f4		       c9 03		      CMP	#3
     88  96f6		       b0 05		      BCS	UPPERRK
     89  96f8		       b9 6e da 	      LDA	LOWPAIR,Y
     90  96fb		       d0 0c		      BNE	STRLPCNT
     91  96fd		       a5 61	   UPPERRK    LDA	CHALSTG	;		  ;SEE IF CHALLENGING STAGE
     92  96ff		       f0 05		      BEQ	HIPAIR
     93  9701		       b9 81 da 	      LDA	CHALPAIR,Y	;	       ;GET CHALLENGING PAIR CODE
     94  9704		       d0 03		      BNE	STRLPCNT
     95  9706		       b9 74 da    HIPAIR     LDA	HIGHPAIR,Y
     96  9709		       85 a8	   STRLPCNT   STA	LOOPCNT
     97  970b				   DOSISTER
     98  970b		       a5 61		      LDA	CHALSTG	;		  ;SEE IF CHALLENGING STAGE
     99  970d		       f0 2b		      BEQ	REGSTG
    100  970f		       a5 5a		      LDA	CHALNUM	;		  ;GET # OF THIS CHALLENGING STAGE
    101  9711		       0a		      ASL		;			;MULT BY 2
    102  9712		       a8		      TAY
    103  9713		       b9 23 db 	      LDA	CHALTBL,Y	;		;GET LOW BYTE OF ADDRESS
    104  9716		       85 68		      STA	TEMP1
    105  9718		       c8		      INY
    106  9719		       b9 23 db 	      LDA	CHALTBL,Y
    107  971c		       85 69		      STA	TEMP1+1
    108  971e		       a5 46	   GETINDX    LDA	SHIPCNT
    109  9720		       38		      SEC
    110  9721		       e9 01		      SBC	#1	;		       ;1ST SHIP IS ZEROTH ENTRY
    111  9723		       a8		      TAY
    112  9724		       b9 e6 da 	      LDA	SHIPINDX,Y
    113  9727		       a8		      TAY
    114  9728		       b1 68		      LDA	(TEMP1),Y	;		;GET ADDRESS OF SHIP DATA AND PLACE
    115  972a		       85 6a		      STA	TEMP2	;		    ;IN 0 PAGE, TEMP2
    116  972c		       c8		      INY
    117  972d		       b1 68		      LDA	(TEMP1),Y
    118  972f		       85 6b		      STA	TEMP2+1
    119  9731		       a5 46		      LDA	SHIPCNT	;		  ;LOOKUP THE SHIP NUMBER
    120  9733		       c9 3d		      CMP	#61	;		      ;FIRST, SEE IF IS INVISO SHIP
    121  9735		       d0 31		      BNE	NOTINV
    122  9737		       4c 39 98 	      JMP	FOINVISO
    123  973a		       a5 42	   REGSTG     LDA	RACK
    124  973c		       c9 03		      CMP	#3
    125  973e		       90 16		      BCC	LOWRK
    126  9740		       38	   FIXRK      SEC
    127  9741		       e9 04		      SBC	#4
    128  9743		       c9 03		      CMP	#3
    129  9745		       b0 f9		      BCS	FIXRK	;		    ;GET INDEX OF 0,1, OR 2
    130  9747		       0a		      ASL
    131  9748		       a8		      TAY
    132  9749		       b9 f7 db 	      LDA	HIREGTB,Y
    133  974c		       85 68		      STA	TEMP1
    134  974e		       c8		      INY
    135  974f		       b9 f7 db 	      LDA	HIREGTB,Y
    136  9752		       85 69		      STA	TEMP1+1
    137  9754		       d0 c8		      BNE	GETINDX
    138  9756		       38	   LOWRK      SEC
    139  9757		       e9 01		      SBC	#1
    140  9759		       0a		      ASL
    141  975a		       a8		      TAY
    142  975b		       b9 f3 db 	      LDA	LOWREGTB,Y
    143  975e		       85 68		      STA	TEMP1
    144  9760		       c8		      INY
    145  9761		       b9 f3 db 	      LDA	LOWREGTB,Y
    146  9764		       85 69		      STA	TEMP1+1
    147  9766		       d0 b6		      BNE	GETINDX
    148  9768		       38	   NOTINV     SEC
    149  9769		       e9 01		      SBC	#1
    150  976b		       a8		      TAY
    151  976c		       b9 a9 da 	      LDA	SHPNUTB,Y
    152  976f		       c9 ff		      CMP	#<NOTFOSH	;	      ;SEE IF ENEMY TO BE BORN IS A FORM
    153  9771		       d0 03		      BNE	NFIMPTY	;		  ;SHIP
    154  9773		       4c 42 98 	      JMP	FIEMPTY
    155  9776		       aa	   NFIMPTY    TAX		;			      ;SHIP NUMBER IS INDEX FOR FORM SHIP
    156  9777		       a0 06	   FOEMPTY    LDY	#6
    157  9779		       b1 6a		      LDA	(TEMP2),Y	;		;NEXT LOOKUP AND STORE REST OF DATA
    158  977b		       9d 77 1f 	      STA	MODE,X
    159  977e		       88		      DEY
    160  977f		       b1 6a		      LDA	(TEMP2),Y
    161  9781		       9d 36 1f 	      STA	MH,X
    162  9784		       88		      DEY
    163  9785		       b1 6a		      LDA	(TEMP2),Y
    164  9787		       9d f3 1e 	      STA	ML,X
    165  978a		       88		      DEY
    166  978b		       b1 6a		      LDA	(TEMP2),Y
    167  978d		       9d ab 1e 	      STA	ANGLE,X
    168  9790		       88		      DEY
    169  9791		       b1 6a		      LDA	(TEMP2),Y
    170  9793		       9d 63 1e 	      STA	YCORD,X
    171  9796		       88		      DEY
    172  9797		       b1 6a		      LDA	(TEMP2),Y
    173  9799		       9d 1b 1e 	      STA	XCORD,X
    174  979c		       88		      DEY
    175  979d		       a9 00		      LDA	#0
    176  979f		       9d 40 01 	      STA	MOMENTUM,X	;	       ;GIVE ZERO MOMENTUM TO START
    177  97a2		       b1 6a		      LDA	(TEMP2),Y
    178  97a4		       9d d3 1d 	      STA	TYPE,X
    179  97a7		       f0 52		      BEQ	NOAIR
    180  97a9		       c9 06		      CMP	#6
    181  97ab		       f0 4e		      BEQ	NOAIR
    182  97ad		       a5 61		      LDA	CHALSTG	;		  ;SEE IF CHALLENGING STAGE
    183  97af		       f0 02		      BEQ	CHKEXTRA	;		 ;IF NOT, CHECK NORMALLY
    184  97b1		       d0 31		      BNE	NOEXTRA	;		  ;IF SO, NO EXTRAS
    185  97b3				   CHKEXTRA
    186  97b3		       a5 5e		      LDA	HEROREAP	;		 ;SEE IF HERO MUST REAPPEAR
    187  97b5		       f0 27		      BEQ	CHECKRAK
    188  97b7		       10 06		      BPL	CHKCPHER
    189  97b9		       a9 00		      LDA	#0
    190  97bb		       85 5e		      STA	HEROREAP	;		 ;RESET REGISTER
    191  97bd		       f0 3c		      BEQ	NOAIR	;		    ;DONT CHANGE NUMFLY
    192  97bf		       a5 59	   CHKCPHER   LDA	SHPERWAV	;		 ;SEE IF READY FOR EXTRA
    193  97c1		       c9 08		      CMP	#8
    194  97c3		       d0 19		      BNE	CHECKRAK	;		 ;DO NORMAL PROCESSING
    195  97c5		       c6 5e		      DEC	HEROREAP
    196  97c7		       d0 15		      BNE	CHECKRAK
    197  97c9		       a9 00		      LDA	#0
    198  97cb		       9d d3 1d 	      STA	TYPE,X	;		   ;BOOT EXTRA MAN JUST CREATED
    199  97ce		       a9 ab		      LDA	#<SHTY52
    200  97d0		       85 6a		      STA	TEMP2
    201  97d2		       a9 dd		      LDA	#>SHTY52
    202  97d4		       85 6b		      STA	TEMP2+1
    203  97d6		       a9 ff		      LDA	#$FF
    204  97d8		       85 5e		      STA	HEROREAP
    205  97da		       a2 28		      LDX	#40
    206  97dc		       d0 99		      BNE	FOEMPTY
    207  97de
    208  97de		       a5 42	   CHECKRAK   LDA	RACK
    209  97e0		       c9 03		      CMP	#3	;		       ;SEE IF EXTRA MAN RACK
    210  97e2		       b0 0d		      BCS	CHECKFST
    211  97e4		       a5 59	   NOEXTRA    LDA	SHPERWAV
    212  97e6		       c9 08		      CMP	#8
    213  97e8		       30 0f		      BMI	GIVEXTRA
    214  97ea		       a9 00		      LDA	#0
    215  97ec		       9d d3 1d 	      STA	TYPE,X
    216  97ef		       f0 0a		      BEQ	NOAIR
    217  97f1		       c9 0a	   CHECKFST   CMP	#10
    218  97f3		       30 04		      BMI	GIVEXTRA	;		 ;3<X<10=GIVE EXTRA MEN
    219  97f5		       c9 10		      CMP	#16
    220  97f7		       30 eb		      BMI	NOEXTRA	;		  ;10<X<16=NO EXTRA
    221  97f9		       e6 88	   GIVEXTRA   INC	AIRBORNE
    222  97fb		       e6 46	   NOAIR      INC	SHIPCNT
    223  97fd		       e6 59		      INC	SHPERWAV
    224  97ff		       a5 46		      LDA	SHIPCNT	;		  ;SEE IF JUST DID LAST SHIP TO ENTER
    225  9801		       c9 3d		      CMP	#61	;		      ;AND SHOULD DO INVISO SHIP
    226  9803		       d0 03		      BNE	NODO
    227  9805		       4c 0b 97 	      JMP	DOSISTER
    228  9808		       c6 a8	   NODO       DEC	LOOPCNT
    229  980a		       f0 03		      BEQ	NOJMP
    230  980c		       4c 0b 97 	      JMP	DOSISTER	;		 ;SEE IF FINISHED WITH THE PAIR
    231  980f		       a5 46	   NOJMP      LDA	SHIPCNT
    232  9811		       c9 0d		      CMP	#13
    233  9813		       f0 3d		      BEQ	ENDWAV
    234  9815		       c9 19		      CMP	#25
    235  9817		       f0 39		      BEQ	ENDWAV
    236  9819		       c9 25		      CMP	#37
    237  981b		       f0 35		      BEQ	ENDWAV
    238  981d		       c9 31		      CMP	#49
    239  981f		       f0 31		      BEQ	ENDWAV
    240  9821		       a9 00		      LDA	#0
    241  9823		       85 45		      STA	NEWWAVE
    242  9825		       a5 42		      LDA	RACK
    243  9827		       c9 0a		      CMP	#10	;		      ;GO FASTER AT RACK 10
    244  9829		       90 22		      BCC	STCNT1
    245  982b		       a5 61		      LDA	CHALSTG	;		  ;SEE IF CHALLENGING STAGE
    246  982d		       d0 1e		      BNE	STCNT1	;		   ;KEEP NORMAL BIRTH IF SO
    247  982f		       ad 22 27 	      LDA	LEVELSEL	;		 ;SEE IF IN BONZO MODE
    248  9832		       30 19		      BMI	STCNT1	;		   ;IF SO, LEAVE BORNCNT ALONE
    249  9834		       a9 09		      LDA	#9
    250  9836		       85 44		      STA	BORNCNT
    251  9838		       60		      RTS
    252  9839
    253  9839		       a9 00	   FOINVISO   LDA	#0
    254  983b		       85 48		      STA	WAVECNT
    255  983d		       a2 2d		      LDX	#45	;		      ;GIVING BIRTH TO INVISO SHIP, SO SET
    256  983f							;				 ;PTR TO INVISO SHIP LOCATION, AND SHIP
    257  983f		       4c 77 97 	      JMP	FOEMPTY	;		  ;TO PROPER NUMBER
    258  9842
    259  9842		       a2 28	   FIEMPTY    LDX	#40	;		      ;FIND 1ST EMPTY SPOT FOR NON-FORM SHIP
    260  9844		       e8	   KEEPLOOK   INX		;			      ;INC PTR
    261  9845		       bd d3 1d 	      LDA	TYPE,X	;		   ;NOW SEE IF SPOT IS EMPTY
    262  9848		       d0 fa		      BNE	KEEPLOOK
    263  984a		       4c 77 97 	      JMP	FOEMPTY
    264  984d
    265  984d		       a9 0e	   STCNT1     LDA	#<TIBTNBIR	;	     ;THESE ARE REARRANGED TO HANDLE
    266  984f		       85 44		      STA	BORNCNT	;		  ;A BRANCH OUT OF RANGE
    267  9851		       60		      RTS
    268  9852		       a9 ff	   ENDWAV     LDA	#$FF
    269  9854		       85 45		      STA	NEWWAVE
    270  9856		       85 62		      STA	CHALWAVE	;		 ;INDICATE START OF CHALLENGING WAVE
    271  9858		       ad 22 27 	      LDA	LEVELSEL	;		 ;SEE IF IN BONZO MODE
    272  985b		       30 0e		      BMI	BONZO4
    273  985d		       a5 42		      LDA	RACK
    274  985f		       c9 0a		      CMP	#10
    275  9861		       90 08		      BCC	BONZO4	;		   ;IF LESS THAN 5,DONT INCREASE SPEED
    276  9863		       a5 61		      LDA	CHALSTG	;		  ;SEE IF CHALLENGING STAGE
    277  9865		       d0 04		      BNE	BONZO4	;		   ;IF SO,  DONT INCREASE SPEED
    278  9867		       a9 80		      LDA	#<TIBTNFWV
    279  9869		       d0 02		      BNE	BONZO5
    280  986b		       a9 f0	   BONZO4     LDA	#<TIBTNWAV
    281  986d		       85 44	   BONZO5     STA	BORNCNT
    282  986f		       60		      RTS
    283  9870
    284  9870
    285  9870							;
    286  9870							;THIS SUBROUTINE SEES IF IT IS TIME TO FIRE A MISSLE
    287  9870							;
    288  9870		       ad 9f 1f    TOFIRE     LDA	MODE+40	;		  ;SEE IF CAPTD HERO IS RELEASED
    289  9873		       c9 08		      CMP	#8	;		       ;SEE IF IN SPIN MODE
    290  9875		       f0 75		      BEQ	ENDFIRE6	;		 ;RETURN
    291  9877		       c9 09		      CMP	#9	;		       ;SEE IF IN REUNITE MODE
    292  9879		       f0 71		      BEQ	ENDFIRE6	;		 ;RETURN
    293  987b		       a0 00		      LDY	#0	;		       ;SET ELISTPTR TO BEGINNING OF ENMYLSTF
    294  987d		       b9 d3 1d    NXFIRE     LDA	TYPE,Y	;		   ;SEE IF ENEMY EXISTS
    295  9880		       29 7f		      AND	#$7F
    296  9882		       f0 63		      BEQ	NXPOSI
    297  9884		       a5 40		      LDA	ARRIVED
    298  9886		       d0 0e		      BNE	FIRE1	;		    ;IF ALREADY ARRIVED, GO ON
    299  9888		       a5 42		      LDA	RACK	;		     ;SEE IF NON FIRING RACK
    300  988a		       c9 01		      CMP	#1
    301  988c		       f0 5e		      BEQ	ENDFIRE6
    302  988e		       c9 0a		      CMP	#10
    303  9890		       f0 5a		      BEQ	ENDFIRE6
    304  9892		       c9 12		      CMP	#18
    305  9894		       f0 56		      BEQ	ENDFIRE6
    306  9896				   FIRE1
    307  9896		       b9 ab 1e 	      LDA	ANGLE,Y
    308  9899		       c9 03		      CMP	#3
    309  989b		       30 4a		      BMI	NXPOSI
    310  989d		       c9 06		      CMP	#6
    311  989f		       10 46		      BPL	NXPOSI	;		   ;ONLY FIRE IF ANGLE=3,4,OR 5
    312  98a1		       a5 40		      LDA	ARRIVED	;		  ;SEE IF HAVE ARRIVED YET
    313  98a3		       f0 1a		      BEQ	BLUEFIRE	;		 ;NOT ARRIVED, SO FIRE LOWER
    314  98a5		       b9 d3 1d 	      LDA	TYPE,Y	;		   ;CHECK OUT TYPE
    315  98a8		       29 7f		      AND	#$7F	;		     ;BOOT HIGH BIT
    316  98aa		       c9 01		      CMP	#1
    317  98ac		       f0 11		      BEQ	BLUEFIRE
    318  98ae		       b9 63 1e 	      LDA	YCORD,Y
    319  98b1		       c9 34		      CMP	#52
    320  98b3		       f0 23		      BEQ	FIREIT
    321  98b5		       c9 39		      CMP	#57
    322  98b7		       f0 1f		      BEQ	FIREIT
    323  98b9		       a5 57		      LDA	BULLSHT	;		  ;SEE IF SHOULD GET TOUGH
    324  98bb		       30 02		      BMI	BLUEFIRE
    325  98bd		       10 28		      BPL	NXPOSI
    326  98bf		       b9 63 1e    BLUEFIRE   LDA	YCORD,Y
    327  98c2		       c9 48		      CMP	#72	;		      ;SEE IF ENEMY IS AT Y=72
    328  98c4		       f0 12		      BEQ	FIREIT
    329  98c6		       c9 4d		      CMP	#77
    330  98c8		       f0 0e		      BEQ	FIREIT
    331  98ca		       24 57		      BIT	BULLSHT
    332  98cc		       10 19		      BPL	NXPOSI
    333  98ce		       c9 08		      CMP	#8
    334  98d0		       f0 06		      BEQ	FIREIT
    335  98d2		       c9 25		      CMP	#37
    336  98d4		       f0 02		      BEQ	FIREIT
    337  98d6		       d0 0f		      BNE	NXPOSI
    338  98d8		       b9 77 1f    FIREIT     LDA	MODE,Y	;		   ;MAKE SURE NOT IN CAPTURE MODE
    339  98db		       10 0a		      BPL	NXPOSI
    340  98dd		       29 0f		      AND	#$F	;		      ;OR IN GO HOME MODE
    341  98df		       c9 01		      CMP	#1
    342  98e1		       f0 04		      BEQ	NXPOSI
    343  98e3		       20 ed 98 	      JSR	BIRMIS
    344  98e6		       60		      RTS
    345  98e7		       c8	   NXPOSI     INY		;			      ;INC ELISTPTR TO NEXT ENEMY
    346  98e8		       c0 28		      CPY	#40
    347  98ea		       d0 91		      BNE	NXFIRE
    348  98ec		       60	   ENDFIRE6   RTS
    349  98ed
    350  98ed
    351  98ed							;
    352  98ed							;THIS SUBROUTINE GIVES BIRTH TO A MISSLE AT THE LOCATION OF THE ENEMY POINTED
    353  98ed							;TO BY THE Y REG.  THE MISSLE IS PLACED IN THE FIRST EMPTY LOCATION IN THE
    354  98ed							;MISSLE LIST.	EACH MISSLE LIST ENTRY TAKES 5 BYTES: TYPE, XPOS, YPOS, XTOGO,
    355  98ed							;YTOGO.  XTOGO AND YTOGO ARE INITIALLY SET AS (HERO POS AT CONCEPTION)-(BIRTH
    356  98ed							;POSITION).
    357  98ed							;THE FOLLOWING REGISTERS AND CONSTANTS ARE USED
    358  98ed							;MISTYPE  EQU	   ?;			   ;MISSLE TYPE
    359  98ed							;TEMP1    DS	   1;			   ;TEMPORARY ZERO PAGE REGISTER
    360  98ed							;
    361  98ed		       a5 42	   BIRMIS     LDA	RACK	;		     ;FIGURE MAX NUMBER OF MISSLES THAT
    362  98ef		       29 1f		      AND	#$1F	;		     ;CAN EXIST
    363  98f1		       aa		      TAX
    364  98f2		       bd 11 df 	      LDA	NUMMIS,X
    365  98f5		       85 68		      STA	TEMP1
    366  98f7		       a5 57		      LDA	BULLSHT	;		  SEE IF IN BULLSHIT MODE
    367  98f9		       10 04		      BPL	NORMBIR
    368  98fb		       e6 68		      INC	TEMP1
    369  98fd		       e6 68		      INC	TEMP1
    370  98ff		       a5 61	   NORMBIR    LDA	CHALSTG	;		  ;SEE IF CHALLENGING STAGE
    371  9901		       d0 09		      BNE	NOTBONZ1	;		 ;DONT BONZ IF SO
    372  9903		       ad 22 27 	      LDA	LEVELSEL	;		 ;CHECK IF IN BONZO MODE
    373  9906		       10 04		      BPL	NOTBONZ1
    374  9908		       a9 2f		      LDA	#47
    375  990a		       85 68		      STA	TEMP1	;		    ;ALLOW ONE MISSILE ON SCREEN
    376  990c		       a2 2e	   NOTBONZ1   LDX	#46	;		      ;MAKE PTR POINT TO FIRST MISSLE SPOT
    377  990e		       e4 68	   NOSP       CPX	TEMP1
    378  9910		       d0 01		      BNE	FINSPA
    379  9912		       60		      RTS		;			      ;NO SPACE, SO RETURN
    380  9913		       bd d3 1d    FINSPA     LDA	TYPE,X	;		   ;SEE IF POSITION IS EMPTY
    381  9916		       f0 04		      BEQ	FOSP
    382  9918		       e8		      INX
    383  9919		       4c 0e 99 	      JMP	NOSP
    384  991c		       a9 07	   FOSP       LDA	#<MISTYPE	;	      ;FOUND SPACE, SO GIVE BIRTH TO MISSLE
    385  991e		       9d d3 1d 	      STA	TYPE,X	;		   ;BY STORING MISSLE-TYPE, AND X AND Y
    386  9921		       b9 1b 1e 	      LDA	XCORD,Y	;		  ;POSITION INTO MISSLE LIST
    387  9924		       9d 1b 1e 	      STA	XCORD,X
    388  9927		       b9 63 1e 	      LDA	YCORD,Y
    389  992a		       9d 63 1e 	      STA	YCORD,X
    390  992d		       a9 04		      LDA	#4	;		       ;ORIENTATION OF ENEMY MISSLES
    391  992f		       9d ab 1e 	      STA	ANGLE,X
    392  9932		       e6 57		      INC	BULLSHT	;		  ;INC MISSILE COUNTER
    393  9934		       ad 5a 1e 	      LDA	XCORD+63	;		 ;NOW CALCULATE TRAJECTORY
    394  9937		       dd 1b 1e 	      CMP	XCORD,X	;		  ;SEE WHO IS BIGGER
    395  993a		       90 49		      BCC	HEROLESS
    396  993c		       38		      SEC
    397  993d		       fd 1b 1e 	      SBC	XCORD,X
    398  9940		       24 57		      BIT	BULLSHT	;		  ;SEE IF HE"S WASTING TIME
    399  9942		       10 10		      BPL	XLT78
    400  9944		       c9 64		      CMP	#100
    401  9946		       90 04		      BCC	XLT88
    402  9948		       a9 0a		      LDA	#10
    403  994a		       d0 2a		      BNE	YGOMIS
    404  994c		       c9 46	   XLT88      CMP	#70
    405  994e		       90 04		      BCC	XLT78
    406  9950		       a9 08		      LDA	#8
    407  9952		       d0 22		      BNE	YGOMIS
    408  9954		       c9 2d	   XLT78      CMP	#45
    409  9956		       90 04		      BCC	XLT56
    410  9958		       a9 04		      LDA	#4
    411  995a		       d0 1a		      BNE	YGOMIS
    412  995c		       c9 1b	   XLT56      CMP	#27
    413  995e		       90 04		      BCC	XLT33
    414  9960		       a9 03		      LDA	#3
    415  9962		       d0 12		      BNE	YGOMIS
    416  9964		       c9 0b	   XLT33      CMP	#11
    417  9966		       90 04		      BCC	XLT11
    418  9968		       a9 02		      LDA	#2
    419  996a		       d0 0a		      BNE	YGOMIS
    420  996c		       c9 05	   XLT11      CMP	#5
    421  996e		       90 04		      BCC	XLT5
    422  9970		       a9 01		      LDA	#1
    423  9972		       d0 02		      BNE	YGOMIS
    424  9974		       a9 00	   XLT5       LDA	#0
    425  9976		       9d 77 1f    YGOMIS     STA	MODE,X	;		   ;STORE XTOGO
    426  9979		       9d f3 1e 	      STA	ML,X
    427  997c		       a9 04		      LDA	#4	;		       ;STORE YTOGO
    428  997e		       9d ba 1f 	      STA	COUNTXY,X
    429  9981		       9d 36 1f 	      STA	MH,X
    430  9984		       60		      RTS
    431  9985
    432  9985		       bd 1b 1e    HEROLESS   LDA	XCORD,X
    433  9988		       38		      SEC
    434  9989		       ed 5a 1e 	      SBC	XCORD+63
    435  998c		       24 57		      BIT	BULLSHT
    436  998e		       10 10		      BPL	XLTN78
    437  9990		       c9 64		      CMP	#100
    438  9992		       90 04		      BCC	XLTN88
    439  9994		       a9 f6		      LDA	#$F6
    440  9996		       d0 de		      BNE	YGOMIS
    441  9998		       c9 46	   XLTN88     CMP	#70
    442  999a		       90 04		      BCC	XLTN78
    443  999c		       a9 f8		      LDA	#$F8
    444  999e		       d0 d6		      BNE	YGOMIS
    445  99a0		       c9 2d	   XLTN78     CMP	#45
    446  99a2		       90 04		      BCC	XLTN56
    447  99a4		       a9 fc		      LDA	#$FC
    448  99a6		       d0 ce		      BNE	YGOMIS
    449  99a8		       c9 1b	   XLTN56     CMP	#27
    450  99aa		       90 04		      BCC	XLTN33
    451  99ac		       a9 fd		      LDA	#$FD
    452  99ae		       d0 c6		      BNE	YGOMIS
    453  99b0		       c9 0b	   XLTN33     CMP	#11
    454  99b2		       90 04		      BCC	XLTN11
    455  99b4		       a9 fe		      LDA	#$FE
    456  99b6		       d0 be		      BNE	YGOMIS
    457  99b8		       c9 05	   XLTN11     CMP	#5
    458  99ba		       90 b8		      BCC	XLT5
    459  99bc		       a9 ff		      LDA	#$FF
    460  99be		       d0 b6		      BNE	YGOMIS
    461  99c0
    462  99c0
    463  99c0							;
    464  99c0							;THE FOLLOWING SUBROUTINE MOVES A MISSLE ONE "STEP".  THE SIZE OF THE "STEP"
    465  99c0							;DEPENDS ON THE RATIO OF XTOGO TO YTOGO:
    466  99c0							;THE MISSLE MOVED IS POINTED TO BY Y REG
    467  99c0							;IF THE MISSLE IS THE HERO"S, THEN THE YPOS IS JUST DECREMENTED
    468  99c0							;Y REG IS SAVED
    469  99c0							;
    470  99c0		       b9 ab 1e    MOVMIS     LDA	ANGLE,Y	;		  ;SEE IF HERO MISSLE
    471  99c3		       d0 3f		      BNE	ENMIS
    472  99c5		       a5 42		      LDA	RACK	;		     ;SEE IF FASTER
    473  99c7		       c9 0a		      CMP	#10
    474  99c9		       90 04		      BCC	SLOWER
    475  99cb		       a9 fb		      LDA	#$FB
    476  99cd		       d0 02		      BNE	SLOWER1
    477  99cf		       a9 fc	   SLOWER     LDA	#$FC	;		     ;IS HERO MISSLE, SO ONLY MOVEMENT IS
    478  99d1		       18	   SLOWER1    CLC		;			      ;TO DECREMENT YPOS
    479  99d2		       79 63 1e 	      ADC	YCORD,Y
    480  99d5		       c9 c0		      CMP	#192	;		     ;NOW SEE IF OFF SCREEN
    481  99d7		       90 27		      BCC	DOMOV	;		    ;YES, SO ERASE MISSLE
    482  99d9		       a5 ae		      LDA	PLAYER
    483  99db		       f0 10		      BEQ	INNC5	;		    ;DO PLAYER 1
    484  99dd		       a5 9f		      LDA	MISCNT22
    485  99df		       38		      SEC
    486  99e0		       e9 01		      SBC	#1	;		       ;MISSILE WAS NOT A HIT
    487  99e2		       85 9f		      STA	MISCNT22
    488  99e4		       a5 a0		      LDA	MISCNT22+1
    489  99e6		       e9 00		      SBC	#0
    490  99e8		       85 a0		      STA	MISCNT22+1
    491  99ea		       4c fa 99 	      JMP	INNC6
    492  99ed				   INNC5
    493  99ed		       a5 9c		      LDA	MISCNT21
    494  99ef		       38		      SEC
    495  99f0		       e9 01		      SBC	#1	;		       ;MISSILE WAS NOT A HIT
    496  99f2		       85 9c		      STA	MISCNT21
    497  99f4		       a5 9d		      LDA	MISCNT21+1
    498  99f6		       e9 00		      SBC	#0
    499  99f8		       85 9d		      STA	MISCNT21+1
    500  99fa		       a9 00	   INNC6      LDA	#0
    501  99fc		       99 d3 1d 	      STA	TYPE,Y
    502  99ff		       60		      RTS
    503  9a00		       99 63 1e    DOMOV      STA	YCORD,Y
    504  9a03		       60		      RTS
    505  9a04
    506  9a04		       98	   ENMIS      TYA		;			      ;TRANSFER POINTER FROM Y REG TO X REG
    507  9a05		       aa		      TAX
    508  9a06		       bd f3 1e 	      LDA	ML,X	;		     ;GET XTOGOING
    509  9a09		       f0 24		      BEQ	MOVMISY	;		  ;SEE IF ZERO
    510  9a0b		       30 12		      BMI	MISMINX	;		  ;SEE IF NEGATIVE
    511  9a0d		       de f3 1e 	      DEC	ML,X	;		     ;XTOGOING IS POSITIVE
    512  9a10		       fe 1b 1e 	      INC	XCORD,X
    513  9a13		       bd 77 1f 	      LDA	MODE,X	;		   ;GET XTOGO
    514  9a16		       c9 0a		      CMP	#$A	;		      ;SEE IF BULLSHT SET
    515  9a18		       d0 15		      BNE	MOVMISY
    516  9a1a		       fe 1b 1e 	      INC	XCORD,X
    517  9a1d		       d0 10		      BNE	MOVMISY
    518  9a1f		       fe f3 1e    MISMINX    INC	ML,X	;		     ;XTOGOING IS NEGATIVE
    519  9a22		       de 1b 1e 	      DEC	XCORD,X
    520  9a25		       bd 77 1f 	      LDA	MODE,X	;		   ;GET XTOGO
    521  9a28		       c9 f6		      CMP	#$F6
    522  9a2a		       d0 03		      BNE	MOVMISY
    523  9a2c		       de 1b 1e 	      DEC	XCORD,X
    524  9a2f		       bd 63 1e    MOVMISY    LDA	YCORD,X
    525  9a32		       18		      CLC
    526  9a33		       69 02		      ADC	#2
    527  9a35		       9d 63 1e 	      STA	YCORD,X
    528  9a38		       c9 c0		      CMP	#192
    529  9a3a		       b0 13		      BCS	ERAMIS
    530  9a3c		       de 36 1f 	      DEC	MH,X	;		     ;DEC YTOGOING
    531  9a3f		       f0 01		      BEQ	REMISXY	;		  ;SEE IF NEC. TO RESET X AND Y-TOGOING
    532  9a41		       60		      RTS
    533  9a42		       bd 77 1f    REMISXY    LDA	MODE,X	;		   ;RESET X AND Y-TOGOING
    534  9a45		       9d f3 1e 	      STA	ML,X
    535  9a48		       bd ba 1f 	      LDA	COUNTXY,X
    536  9a4b		       9d 36 1f 	      STA	MH,X
    537  9a4e		       60		      RTS
    538  9a4f		       a9 00	   ERAMIS     LDA	#0	;		       ;MISSLE OFF THE SCREEN, SO ERASE
    539  9a51		       9d d3 1d 	      STA	TYPE,X
    540  9a54		       60		      RTS
    541  9a55
    542  9a55
    543  9a55							;
    544  9a55							;THIS SUBROUTINE MOVES A ENEMY SHIP POINTED TO BY Y REG ONE STEP BY CALLING
    545  9a55							;A SUBROUTINE THAT USES A MOTION TABLE
    546  9a55							;
    547  9a55							;IT HAS NO PERMANENT LOCAL VARIBLES
    548  9a55							;ITS TEMPORARY VARIBLES ARE:
    549  9a55							;TEMP1    DS	   2;			   ;0 PAGE
    550  9a55							;
    551  9a55							;CONSTANTS ARE
    552  9a55							;NOTFOSH  EQU	   ?;			   ;SHIP NUMBER FOR NON-FORMATION SHIPS
    553  9a55							;Y REGISTER IS SAVED, ALL OTHER
    554  9a55							;REGISTERS ARE DESTROYED
    555  9a55							;
    556  9a55		       20 9c 9a    TABLEINC   JSR	MSHBTBL	;		  ;CALL SUBROUTINE TO MOVE SHIP BY TABLE
    557  9a58		       8a		      TXA		;			      ;SEE IF END OF TABLE
    558  9a59		       d0 01		      BNE	ENDTBL
    559  9a5b		       60		      RTS
    560  9a5c		       b9 77 1f    ENDTBL     LDA	MODE,Y
    561  9a5f		       29 0f		      AND	#$F
    562  9a61		       c9 09		      CMP	#9
    563  9a63		       d0 12		      BNE	NOTCHAL
    564  9a65		       a9 00		      LDA	#0	;		       ;YES, END OF TABLE, SO GET RID OF
    565  9a67		       99 d3 1d 	      STA	TYPE,Y
    566  9a6a		       c0 28		      CPY	#40
    567  9a6c		       10 08		      BPL	INVSHIP
    568  9a6e		       c6 88		      DEC	AIRBORNE
    569  9a70		       d0 04		      BNE	INVSHIP	;		  SEE IF ALL SHIPS ARE OFF
    570  9a72		       a9 50		      LDA	#80
    571  9a74		       85 44		      STA	BORNCNT	;		  DELAY NEXT WAVE
    572  9a76		       60	   INVSHIP    RTS
    573  9a77				   NOTCHAL
    574  9a77		       b9 d3 1d 	      LDA	TYPE,Y
    575  9a7a		       29 7f		      AND	#$7F
    576  9a7c		       c9 0d		      CMP	#13	;		      ;SEE IF EXTRA SCORPION SHIPS
    577  9a7e		       d0 08		      BNE	NOTSCORP
    578  9a80		       a9 00		      LDA	#0
    579  9a82		       99 d3 1d 	      STA	TYPE,Y
    580  9a85		       c6 88		      DEC	AIRBORNE
    581  9a87		       60		      RTS
    582  9a88		       c0 29	   NOTSCORP   CPY	#41	;		      ;IS END, SO FIRST SEE IF FORMATION SHIP
    583  9a8a		       30 04		      BMI	FORMSH
    584  9a8c		       c0 2d		      CPY	#45
    585  9a8e		       d0 06		      BNE	NFORMSH
    586  9a90		       a9 81	   FORMSH     LDA	#$81	;		     ;IS FORMATION SHIP, SO CHANGE MODE TO
    587  9a92		       99 77 1f 	      STA	MODE,Y	;		   ;"GO HOME"
    588  9a95		       60		      RTS
    589  9a96		       20 1a 9e    NFORMSH    JSR	ATTKBL	;		   ;NOT FORM. SHIP AND COMING SO CHANGE
    590  9a99		       c6 88		      DEC	AIRBORNE	;		 ;THIS CANCELS THE INC AIRBORNE DONE
    591  9a9b							;				 ;IN ATTKBL
    592  9a9b		       60		      RTS		;			      ;MTBLPTR AND MODE TO BE BLUE ATTACK
    593  9a9c
    594  9a9c
    595  9a9c							;
    596  9a9c							;THIS SUBROUTINE ACTUALLY MOVES A SHIP POINTED TO BY Y REG VIA A MOTION TABLE
    597  9a9c							;IT ALSO INCREMENTS THE MOTION TABLE POINTER
    598  9a9c							;
    599  9a9c							;THE TEMPORARY VARIBLES ARE:
    600  9a9c							;TEMP1    DS	   2;			   ;0 PAGE
    601  9a9c							;
    602  9a9c		       a9 ff	   MSHBTBL    LDA	#$FF
    603  9a9e		       85 84		      STA	MSHCNT
    604  9aa0		       a2 00	   CNTMSHIP   LDX	#0	;		       ;INITIALIZATION
    605  9aa2		       b9 40 01 	      LDA	MOMENTUM,Y	;	       ;SEE IF SHIP HAS MOMENTUM
    606  9aa5		       f0 17		      BEQ	NORMTN
    607  9aa7		       c9 80		      CMP	#$80
    608  9aa9		       f0 13		      BEQ	NORMTN	;		   ;ONLY HAS FAST REAPPEAR SET
    609  9aab		       38		      SEC
    610  9aac		       e9 01		      SBC	#1
    611  9aae		       99 40 01 	      STA	MOMENTUM,Y	;	       ;DECREASE MOMENTUM
    612  9ab1		       b9 f3 1e 	      LDA	ML,Y
    613  9ab4		       85 68		      STA	TEMP1
    614  9ab6		       b9 36 1f 	      LDA	MH,Y
    615  9ab9		       85 69		      STA	TEMP1+1
    616  9abb		       4c f7 9a 	      JMP	CONTMSH	;		  ;CONTINUE WITH PROCESSING
    617  9abe		       b9 f3 1e    NORMTN     LDA	ML,Y	;		     ;GET ML
    618  9ac1		       85 68		      STA	TEMP1	;		    ;AND STORE IT IN 0 PAGE
    619  9ac3		       18		      CLC		;			      ;INC BY 1
    620  9ac4		       69 01		      ADC	#1
    621  9ac6		       99 f3 1e 	      STA	ML,Y	;		     ;AND UPDATE INTO ENEMY LIST
    622  9ac9		       b9 36 1f 	      LDA	MH,Y	;		     ;GET MH
    623  9acc		       85 69		      STA	TEMP1+1	;		  ;AND STORE IT IN 0 PAGE
    624  9ace		       69 00		      ADC	#0	;		       ;INC MH
    625  9ad0		       99 36 1f 	      STA	MH,Y	;		     ;AND UPDATE
    626  9ad3		       a1 68		      LDA	(TEMP1,X)	;		;SEE IF END OF TABLE AND SHOULD DO
    627  9ad5		       aa		      TAX		;			      ;STORE TEMP1 VALUE
    628  9ad6		       29 03		      AND	#3	;		       ;NOTHING BUT RETURN
    629  9ad8		       c9 02		      CMP	#2
    630  9ada		       d0 1b		      BNE	CONTMSH
    631  9adc		       8a		      TXA		;			      ;GET TEMP1 AGAIN
    632  9add		       29 0f		      AND	#$0F	;		     ;BOOT HIGH NIBBLE
    633  9adf		       c9 06		      CMP	#6	;		       ;SEE IF IS SETTING MOMENTUM
    634  9ae1		       d0 11		      BNE	NOTMMTM
    635  9ae3		       8a		      TXA
    636  9ae4		       4a		      LSR
    637  9ae5		       4a		      LSR
    638  9ae6		       4a		      LSR
    639  9ae7		       4a		      LSR		;			;NOW HAVE HIGH NIBBLE ONLY
    640  9ae8		       f0 0a		      BEQ	NOTMMTM	;		  ;IF MOMENTUM IS ZERO, MUST BE BLUATK
    641  9aea		       18		      CLC
    642  9aeb		       79 40 01 	      ADC	MOMENTUM,Y	;	       ;IN CASE FAST REAPPEAR IS SET
    643  9aee		       99 40 01 	      STA	MOMENTUM,Y	;	       ;STORE NEW MOMENTUM
    644  9af1		       4c 9c 9a 	      JMP	MSHBTBL
    645  9af4		       a2 ff	   NOTMMTM    LDX	#$FF
    646  9af6		       60		      RTS
    647  9af7
    648  9af7		       a2 00	   CONTMSH    LDX	#0
    649  9af9		       b9 77 1f 	      LDA	MODE,Y	;		   ;GET MODE BYTE
    650  9afc		       29 40		      AND	#$40	;		     ;SEE IF IN NEGATE MODE
    651  9afe		       f0 0a		      BEQ	NONEG1A
    652  9b00		       a1 68		      LDA	(TEMP1,X)	;		;GET DELTAS
    653  9b02		       49 03		      EOR	#3	;		       ;NEGATE DELTA ANGLE
    654  9b04		       18		      CLC
    655  9b05		       69 01		      ADC	#1
    656  9b07		       4c 0c 9b 	      JMP	NONEG1
    657  9b0a		       a1 68	   NONEG1A    LDA	(TEMP1,X)	;		;GET DELTAS
    658  9b0c		       aa	   NONEG1     TAX		;			      ;ISOLATE ANGLE
    659  9b0d		       29 02		      AND	#2
    660  9b0f		       f0 06		      BEQ	APLS	;		     ;ATTACH LEADING ONES IF DELTA ANGLE
    661  9b11		       8a		      TXA
    662  9b12		       09 fc		      ORA	#$FC	;		     ;IS NEG
    663  9b14		       4c 1a 9b 	      JMP	ANEG
    664  9b17		       8a	   APLS       TXA
    665  9b18		       29 03		      AND	#3
    666  9b1a		       18	   ANEG       CLC
    667  9b1b		       79 ab 1e 	      ADC	ANGLE,Y	;		  ;AND UPDATE ANGLE
    668  9b1e		       29 07		      AND	#07
    669  9b20		       99 ab 1e 	      STA	ANGLE,Y
    670  9b23		       a2 00		      LDX	#0
    671  9b25		       a1 68		      LDA	(TEMP1,X)	;		;GET DELTA Y
    672  9b27		       4a		      LSR
    673  9b28		       4a		      LSR
    674  9b29		       aa		      TAX		;			      ;ATTACH LEADING ONES IF DELTA Y
    675  9b2a		       29 04		      AND	#4
    676  9b2c		       f0 06		      BEQ	YPLS	;		     ;IS NEG
    677  9b2e		       8a		      TXA
    678  9b2f		       09 f8		      ORA	#$F8
    679  9b31		       4c 37 9b 	      JMP	YNEG
    680  9b34		       8a	   YPLS       TXA
    681  9b35		       29 07		      AND	#7
    682  9b37		       18	   YNEG       CLC
    683  9b38		       79 63 1e 	      ADC	YCORD,Y	;		  ;AND UPDATE Y
    684  9b3b		       99 63 1e 	      STA	YCORD,Y
    685  9b3e		       a2 00		      LDX	#0
    686  9b40		       b9 77 1f 	      LDA	MODE,Y	;		   ;GET MODE BYTE
    687  9b43		       29 40		      AND	#$40	;		     ;SEE IF IN NEGATE MODE
    688  9b45		       f0 0a		      BEQ	NONEG2A
    689  9b47		       a1 68		      LDA	(TEMP1,X)	;		;GET DELTAS
    690  9b49		       49 e0		      EOR	#$E0	;		     ;NEGATE DELTA X
    691  9b4b		       18		      CLC
    692  9b4c		       69 20		      ADC	#$20
    693  9b4e		       4c 53 9b 	      JMP	NONEG2
    694  9b51		       a1 68	   NONEG2A    LDA	(TEMP1,X)	;		;GET DELTAS
    695  9b53		       2a	   NONEG2     ROL		;			;ISOLATE DELTA X
    696  9b54		       2a		      ROL
    697  9b55		       2a		      ROL
    698  9b56		       2a		      ROL
    699  9b57		       aa		      TAX		;			      ;ATTACH LEADING ONES IF DELTA X
    700  9b58		       29 04		      AND	#4
    701  9b5a		       f0 06		      BEQ	XPLS	;		     ;IS NEG
    702  9b5c		       8a		      TXA
    703  9b5d		       09 f8		      ORA	#$F8
    704  9b5f		       4c 65 9b 	      JMP	XNEG
    705  9b62		       8a	   XPLS       TXA
    706  9b63		       29 07		      AND	#7
    707  9b65		       18	   XNEG       CLC
    708  9b66		       79 1b 1e 	      ADC	XCORD,Y	;		  ;AND UPDATE X
    709  9b69		       99 1b 1e 	      STA	XCORD,Y
    710  9b6c		       a5 42		      LDA	RACK
    711  9b6e		       c9 0a		      CMP	#10	;		      ;DON"T GO FASTER IF LOW RACK
    712  9b70		       90 16		      BCC	ENDMSHIP
    713  9b72		       b9 40 01 	      LDA	MOMENTUM,Y
    714  9b75		       30 0d		      BMI	MOVAGAIN
    715  9b77		       ad 22 27 	      LDA	LEVELSEL	;		 ;CHECK IF BONZO MODE
    716  9b7a		       30 0c		      BMI	ENDMSHIP	;		 ;DONT SPEED UP IF SO
    717  9b7c		       a5 61		      LDA	CHALSTG	;		  ;SEE IF CHALLENGING STAGE
    718  9b7e		       d0 08		      BNE	ENDMSHIP	;		 ;DONT SPEED UP IF SO
    719  9b80		       a5 40		      LDA	ARRIVED
    720  9b82		       d0 04		      BNE	ENDMSHIP
    721  9b84		       e6 84	   MOVAGAIN   INC	MSHCNT
    722  9b86		       f0 03		      BEQ	CNTMSHP1
    723  9b88		       a2 00	   ENDMSHIP   LDX	#0
    724  9b8a		       60		      RTS
    725  9b8b		       4c a0 9a    CNTMSHP1   JMP	CNTMSHIP
    726  9b8e
    727  9b8e							;
    728  9b8e							;THIS SUBROUTINE DETERMINES IF THE INVISO SHIP HAS ARRIVED.
    729  9b8e							;IF IT HAS ALL FORMATION SHIPS ARE CHANGED TO EXPANSION MODE
    730  9b8e							;
    731  9b8e		       ad 00 1e    ARRIVE     LDA	TYPE+45	;		  ;SET PTR TO INVISO SHIP
    732  9b91		       c9 06		      CMP	#6	;		       ;AND SEE IF PRESENT
    733  9b93		       f0 01		      BEQ	CHANGE2
    734  9b95		       60		      RTS
    735  9b96		       ad a4 1f    CHANGE2    LDA	MODE+45	;		  ;GET INVISO SHIP MODE
    736  9b99		       f0 01		      BEQ	CHANGE	;		   ;SEE IF IN SHIFTING MODE YET
    737  9b9b		       60		      RTS
    738  9b9c		       ad 7a 27    CHANGE     LDA	COLPOS+5
    739  9b9f		       c9 4e		      CMP	#78
    740  9ba1		       f0 05		      BEQ	CHANGE3
    741  9ba3		       a5 61		      LDA	CHALSTG	;		  SEE IF CHALLENGING STAGE
    742  9ba5		       d0 11		      BNE	CHANGE1	;		  IF SO, END THE STAGE
    743  9ba7		       60		      RTS
    744  9ba8		       ad fc 1d    CHANGE3    LDA	TYPE+41	;		  ;SEE IF ALL EXTRA SHIPS GONE
    745  9bab		       18		      CLC
    746  9bac		       6d fd 1d 	      ADC	TYPE+42
    747  9baf		       6d fe 1d 	      ADC	TYPE+43
    748  9bb2		       6d ff 1d 	      ADC	TYPE+44
    749  9bb5		       f0 01		      BEQ	CHANGE1
    750  9bb7		       60		      RTS
    751  9bb8				   CHANGE1		;				 ;FINAL SHIP ARRIVED AND FORMATION IS
    752  9bb8							;				 ;CENTERED
    753  9bb8		       a9 00		      LDA	#0	;		       ;INVISO SHIP WORK DONE, SO GET RID OF
    754  9bba		       85 4d		      STA	EXPANCC
    755  9bbc		       8d 00 1e 	      STA	TYPE+45
    756  9bbf							;	   STA	   NUMFLY;		   ;SET NUMBER FLYING TO ZERO
    757  9bbf		       a9 ff		      LDA	#$FF
    758  9bc1		       85 40		      STA	ARRIVED
    759  9bc3		       85 4b		      STA	EXPANR
    760  9bc5		       60		      RTS
    761  9bc6
    762  9bc6
    763  9bc6							;
    764  9bc6							;THIS SUBROUTINE CAUSES SHIPS TO PEELOFF AND ATTACK.
    765  9bc6							;
    766  9bc6		       a5 bb	   ATTACK     LDA	RDYREG	;		   ;SEE IF READY IS BEING DISPLAYED
    767  9bc8		       f0 01		      BEQ	ATAC1
    768  9bca		       60		      RTS
    769  9bcb		       a5 60	   ATAC1      LDA	ABORT
    770  9bcd		       f0 01		      BEQ	ATTACK7
    771  9bcf		       60		      RTS		;			      ;RETURN IF ABORT = 1
    772  9bd0		       a5 40	   ATTACK7    LDA	ARRIVED	;		  ;SEE IF ALL SHIPS ARRIVED
    773  9bd2		       d0 01		      BNE	CONTAT
    774  9bd4		       60		      RTS
    775  9bd5
    776  9bd5		       ad 12 1e    CONTAT     LDA	TYPE+63
    777  9bd8		       d0 01		      BNE	ATT00
    778  9bda		       60		      RTS
    779  9bdb		       ad 9f 1f    ATT00      LDA	MODE+40	;		  ;GET MODE OF CAPTURED HERO
    780  9bde		       c9 08		      CMP	#8
    781  9be0		       f0 04		      BEQ	ATT01
    782  9be2		       c9 09		      CMP	#9
    783  9be4		       d0 01		      BNE	ATT0
    784  9be6		       60	   ATT01      RTS		;			      ;IF IN SPIN OR REUNITE MODE, RETURN
    785  9be7		       ad 22 27    ATT0       LDA	LEVELSEL	;		 ;CHECK IF IN BONZO MODE
    786  9bea		       10 05		      BPL	NOTBONZ2
    787  9bec		       a5 88		      LDA	AIRBORNE	;		 ;WAS NUMFLY
    788  9bee		       f0 01		      BEQ	NOTBONZ2
    789  9bf0		       60		      RTS		;			      ;RETURN IF ONE SHIP ATTACKING
    790  9bf1		       a5 42	   NOTBONZ2   LDA	RACK	;		     ;SEE IF ANY MORE SHIPS NEEDED TO
    791  9bf3		       29 1f		      AND	#$1F	;		     ;ATTACK
    792  9bf5		       a8		      TAY
    793  9bf6		       be 99 b9 	      LDX	NUMATTK,Y
    794  9bf9		       e4 88		      CPX	AIRBORNE
    795  9bfb		       10 0e		      BPL	ATT1
    796  9bfd		       a5 42		      LDA	RACK
    797  9bff		       c9 20		      CMP	#32
    798  9c01		       b0 01		      BCS	MASSATTK
    799  9c03		       60		      RTS
    800  9c04		       e8	   MASSATTK   INX		;			      TWO MORE ATTACKING THAN BEFORE
    801  9c05		       e8		      INX
    802  9c06		       e4 88		      CPX	AIRBORNE
    803  9c08		       10 01		      BPL	ATT1
    804  9c0a		       60		      RTS
    805  9c0b		       a9 00	   ATT1       LDA	#0	;		       ;SET ELISTPTR TO FIRST SHIP OF FORM
    806  9c0d		       85 47		      STA	SHIPLEFT	;		 ;RESET SHIPLEFT FLAG
    807  9c0f		       aa		      TAX		;			      THIS COUNTS THE NO. OF ATTACK ATTEMPS
    808  9c10		       a4 ef		      LDY	ATTEMPT
    809  9c12		       c0 27		      CPY	#39	;		      INC ATTEMPT TO NEXT ENTRY IN LIST
    810  9c14		       30 02		      BMI	NXATT
    811  9c16		       a0 ff		      LDY	#$FF
    812  9c18		       c8	   NXATT      INY
    813  9c19		       b9 d3 1d 	      LDA	TYPE,Y	;		   ;SEE IF SHIP IS PRESENT
    814  9c1c		       f0 19		      BEQ	NOGOT
    815  9c1e		       85 47		      STA	SHIPLEFT	;		 ;A SHIP PRESENT, SO SET SHIPLEFT FLAG
    816  9c20		       10 10		      BPL	NOGOT1	;		   ;1ST TEST TO SEE IF SHIP JUST ARRIVED
    817  9c22		       b9 77 1f 	      LDA	MODE,Y	;		   ;2ND TEST TO SEE IF SHIP JUST ARRIVED
    818  9c25		       c9 05		      CMP	#5
    819  9c27		       d0 09		      BNE	NOGOT1
    820  9c29		       a5 4d		      LDA	EXPANCC	;		  ;RANDOM FACTOR IF SHIP JUST ARRIVED
    821  9c2b		       29 01		      AND	#1
    822  9c2d		       d0 03		      BNE	NOGOT1
    823  9c2f		       4c b4 9c 	      JMP	GOTONE1
    824  9c32		       b9 77 1f    NOGOT1     LDA	MODE,Y	;		   ;SEE IF SHIP IS IN EXPANSION MODE
    825  9c35		       f0 15		      BEQ	GOTONE
    826  9c37		       e8	   NOGOT      INX		;			      INC COUNTER OF ATTACK ATTEMPTS
    827  9c38		       e0 28		      CPX	#40
    828  9c3a		       f0 08		      BEQ	NONELEFT	;		 NO SHIPS LEFT
    829  9c3c		       c0 27		      CPY	#39	;		      ;IF CAPTD HERO IS ALONE, SET ATTACK
    830  9c3e		       d0 d8		      BNE	NXATT
    831  9c40		       a0 ff		      LDY	#$FF	;		     GO TO BEGINNING OF LIST AGAIN
    832  9c42		       d0 d4		      BNE	NXATT
    833  9c44		       a5 47	   NONELEFT   LDA	SHIPLEFT	;		 ;NO MORE SHIPS TO PEELOFF, SO SEE IF
    834  9c46		       d0 6b		      BNE	NOATT	;		    ;IF ANY SHIPS FLYING AROUND
    835  9c48		       20 87 9d 	      JSR	NEWRACK	;		  ;NO SHIPS LEFT, SO START NEW RACK
    836  9c4b		       60		      RTS
    837  9c4c		       84 ef	   GOTONE     STY	ATTEMPT
    838  9c4e		       ad 54 27 	      LDA	TUNNUM
    839  9c51		       29 7f		      AND	#$7F	;		     ;BOOT HIGH BIT
    840  9c53		       c9 19		      CMP	#25
    841  9c55		       f0 0e		      BEQ	HASBACK	;		  ;ALREADY HAS BACKGROUND MUSIC
    842  9c57		       ad 55 27 	      LDA	TUNNUM1
    843  9c5a		       29 7f		      AND	#$7F	;		     ;BOOT HIGH BIT
    844  9c5c		       c9 19		      CMP	#25
    845  9c5e		       f0 05		      BEQ	HASBACK
    846  9c60		       a9 19		      LDA	#25	;		      ;DIDN"T HAVE IT, SO START IT
    847  9c62		       20 03 d4 	      JSR	TUNIN	;		    ;TEMPORARILY OUT OF ACTION
    848  9c65		       b9 d3 1d    HASBACK    LDA	TYPE,Y
    849  9c68		       29 7f		      AND	#$7F
    850  9c6a		       c9 01		      CMP	#1	;		       ;SEE IF BLUE SHIP
    851  9c6c		       d0 06		      BNE	NOTBLUE
    852  9c6e		       20 1a 9e 	      JSR	ATTKBL	;		   ;IS BLUE, MAKE BLUE ATTACK
    853  9c71		       4c ae 9c 	      JMP	YATT1
    854  9c74		       c9 02	   NOTBLUE    CMP	#2	;		       ;SEE IF RED SHIP
    855  9c76		       d0 2d		      BNE	NOTRED
    856  9c78		       b9 d3 1d 	      LDA	TYPE,Y	;		   ;IS RED, MAKE RED ATTACK
    857  9c7b		       09 80		      ORA	#$80
    858  9c7d		       99 d3 1d 	      STA	TYPE,Y
    859  9c80							;	   INC	   NUMFLY
    860  9c80		       e6 88		      INC	AIRBORNE
    861  9c82		       a9 04		      LDA	#<PEELOFF
    862  9c84		       99 f3 1e 	      STA	ML,Y
    863  9c87		       a9 93		      LDA	#>PEELOFF
    864  9c89		       99 36 1f 	      STA	MH,Y
    865  9c8c		       c0 28		      CPY	#40	;		      ;SEE IF CAPTD HERO
    866  9c8e		       d0 04		      BNE	GOMIN1
    867  9c90		       a5 5d		      LDA	CHTAB40
    868  9c92		       10 03		      BPL	GOMIN2
    869  9c94		       b9 7d 93    GOMIN1     LDA	CHTAB,Y
    870  9c97		       c9 05	   GOMIN2     CMP	#5
    871  9c99		       30 05		      BMI	GOMINUS
    872  9c9b		       a9 84		      LDA	#$84
    873  9c9d		       4c ab 9c 	      JMP	YATT
    874  9ca0		       a9 c4	   GOMINUS    LDA	#$C4
    875  9ca2		       4c ab 9c 	      JMP	YATT
    876  9ca5		       20 ff cb    NOTRED     JSR	ATTKBO	;		   ;MUST BE BOSS, MAKE BOSS ATTACK
    877  9ca8		       4c ae 9c 	      JMP	YATT1
    878  9cab		       99 77 1f    YATT       STA	MODE,Y	;		   ;CHANGE TO ATTACK MODE
    879  9cae		       a9 08	   YATT1      LDA	#8	;		       ;BIRD SWOOP SOUND
    880  9cb0		       20 03 d4 	      JSR	TUNIN
    881  9cb3		       60	   NOATT      RTS
    882  9cb4
    883  9cb4		       84 ef	   GOTONE1    STY	ATTEMPT
    884  9cb6		       b9 d3 1d 	      LDA	TYPE,Y
    885  9cb9		       29 7f		      AND	#$7F
    886  9cbb		       c9 01		      CMP	#1	;		       ;SEE IF BLUE SHIP
    887  9cbd		       d0 1c		      BNE	NOTBLUE1
    888  9cbf		       a9 de		      LDA	#<BATBL1B	;	      ;MAKE MTBLPTR AND MODE TO BE A
    889  9cc1		       99 f3 1e 	      STA	ML,Y	;		     ;CONTINUED BLUE ATTACK
    890  9cc4		       a9 de		      LDA	#>BATBL1B
    891  9cc6		       99 36 1f 	      STA	MH,Y
    892  9cc9		       b9 1b 1e 	      LDA	XCORD,Y	;		  ;SEE IF ON LEFT OR RIGHT SIDE OF
    893  9ccc		       c9 50		      CMP	#80	;		      ;SCREEN AND THUS WHICH WAY TO ATTACK
    894  9cce		       b0 05		      BCS	NEGATK1
    895  9cd0		       a9 83		      LDA	#$83
    896  9cd2		       4c d7 9c 	      JMP	CHMODE1
    897  9cd5		       a9 c3	   NEGATK1    LDA	#$C3
    898  9cd7		       99 77 1f    CHMODE1    STA	MODE,Y
    899  9cda							;	   INC	   AIRBORNE;		   ;DONT INC IF CONTINUED ATTACK
    900  9cda							;	   INC	   NUMFLY
    901  9cda		       60		      RTS
    902  9cdb		       c9 02	   NOTBLUE1   CMP	#2	;		       ;SEE IF RED SHIP
    903  9cdd		       d0 2c		      BNE	NOTRED1
    904  9cdf		       b9 d3 1d 	      LDA	TYPE,Y	;		   ;IS RED, MAKE CONTINUED RED ATTACK
    905  9ce2		       29 7f		      AND	#$7F
    906  9ce4		       99 d3 1d 	      STA	TYPE,Y
    907  9ce7							;	   INC	   AIRBORNE;		   ;DONT INC IF CONTINUED ATTACK
    908  9ce7							;	   INC	   NUMFLY
    909  9ce7		       a9 11		      LDA	#<REDTAB
    910  9ce9		       99 f3 1e 	      STA	ML,Y
    911  9cec		       a9 93		      LDA	#>REDTAB
    912  9cee		       99 36 1f 	      STA	MH,Y
    913  9cf1		       c0 28		      CPY	#40	;		      ;SEE IF CAPTD HERO
    914  9cf3		       d0 04		      BNE	GOMIN3
    915  9cf5		       a5 5d		      LDA	CHTAB40
    916  9cf7		       10 03		      BPL	GOMIN4
    917  9cf9		       b9 7d 93    GOMIN3     LDA	CHTAB,Y
    918  9cfc		       c9 05	   GOMIN4     CMP	#5
    919  9cfe		       10 05		      BPL	GOMINUS1
    920  9d00		       a9 84		      LDA	#$84
    921  9d02		       4c 07 9d 	      JMP	XATT
    922  9d05		       a9 c4	   GOMINUS1   LDA	#$C4
    923  9d07		       99 77 1f    XATT       STA	MODE,Y	;		   ;CHANGE TO ATTACK MODE
    924  9d0a		       60		      RTS
    925  9d0b		       20 54 cd    NOTRED1    JSR	ATTKBO1	;		  ;MUST BE BOSS, MAKE CONT. BOSS ATTACK
    926  9d0e		       60		      RTS
    927  9d0f
    928  9d0f
    929  9d0f				   INITCOLS
    930  9d0f		       a9 01		      LDA	#1
    931  9d11		       85 53		      STA	TOGGLEM
    932  9d13		       85 46		      STA	SHIPCNT
    933  9d15		       85 44		      STA	BORNCNT
    934  9d17		       85 4e		      STA	COL0
    935  9d19		       85 4f		      STA	COL1
    936  9d1b		       85 50		      STA	COL2
    937  9d1d		       85 51		      STA	COL3
    938  9d1f		       85 52		      STA	COL4
    939  9d21		       85 4c		      STA	EXPANC
    940  9d23		       a9 19		      LDA	#25
    941  9d25		       85 56		      STA	COUNT
    942  9d27		       a9 08		      LDA	#8
    943  9d29		       85 5f		      STA	DECCNT
    944  9d2b		       a0 00		      LDY	#0
    945  9d2d		       a9 1c		      LDA	#28
    946  9d2f		       99 75 27 	      STA	COLPOS,Y
    947  9d32		       99 a0 1d 	      STA	NEWCOLS,Y
    948  9d35		       c8		      INY
    949  9d36		       a9 26		      LDA	#38
    950  9d38		       99 75 27 	      STA	COLPOS,Y
    951  9d3b		       99 a0 1d 	      STA	NEWCOLS,Y
    952  9d3e		       c8		      INY
    953  9d3f		       a9 30		      LDA	#48
    954  9d41		       99 75 27 	      STA	COLPOS,Y
    955  9d44		       99 a0 1d 	      STA	NEWCOLS,Y
    956  9d47		       c8		      INY
    957  9d48		       a9 3a		      LDA	#58
    958  9d4a		       99 75 27 	      STA	COLPOS,Y
    959  9d4d		       99 a0 1d 	      STA	NEWCOLS,Y
    960  9d50		       c8		      INY
    961  9d51		       a9 44		      LDA	#68
    962  9d53		       99 75 27 	      STA	COLPOS,Y
    963  9d56		       99 a0 1d 	      STA	NEWCOLS,Y
    964  9d59		       c8		      INY
    965  9d5a		       a9 4d		      LDA	#77
    966  9d5c		       99 75 27 	      STA	COLPOS,Y
    967  9d5f		       99 a0 1d 	      STA	NEWCOLS,Y
    968  9d62		       c8		      INY
    969  9d63		       a9 57		      LDA	#87
    970  9d65		       99 75 27 	      STA	COLPOS,Y
    971  9d68		       99 a0 1d 	      STA	NEWCOLS,Y
    972  9d6b		       c8		      INY
    973  9d6c		       a9 61		      LDA	#97
    974  9d6e		       99 75 27 	      STA	COLPOS,Y
    975  9d71		       99 a0 1d 	      STA	NEWCOLS,Y
    976  9d74		       c8		      INY
    977  9d75		       a9 6b		      LDA	#107
    978  9d77		       99 75 27 	      STA	COLPOS,Y
    979  9d7a		       99 a0 1d 	      STA	NEWCOLS,Y
    980  9d7d		       c8		      INY
    981  9d7e		       a9 75		      LDA	#117
    982  9d80		       99 75 27 	      STA	COLPOS,Y
    983  9d83		       99 a0 1d 	      STA	NEWCOLS,Y
    984  9d86		       60		      RTS
    985  9d87							;
    986  9d87							;THIS SUBROUTINE IS CALLED TO START A NEW RACK
    987  9d87							;
    988  9d87		       ad fb 1d    NEWRACK    LDA	TYPE+40	;		  ;SEE IF CAPTD HERO ACTIVE
    989  9d8a		       f0 01		      BEQ	NWRCK1
    990  9d8c		       60		      RTS
    991  9d8d		       c6 bd	   NWRCK1     DEC	RACKREG
    992  9d8f		       d0 47		      BNE	NEWRACK1
    993  9d91		       a9 00		      LDA	#0
    994  9d93		       85 63		      STA	WAVESCR	;		  CLEAR CHAL WAVE SCORE COUNTER
    995  9d95		       85 59		      STA	SHPERWAV	;		 ;RESET NUMBER OF SHIPS PER WAVE
    996  9d97		       85 4b		      STA	EXPANR
    997  9d99		       85 4a		      STA	TOGGLEM0
    998  9d9b		       85 40		      STA	ARRIVED
    999  9d9d		       85 88		      STA	AIRBORNE	;		 ;WILL BE 0 ANYWAY EXCEPT FOR CH. STG
   1000  9d9f		       85 a5		      STA	METAREG	;		  ;RESET ABILITY TO METAMORPHOSIZE
   1001  9da1		       85 e3		      STA	SCORPCNT	;		 ;INDICATES 3 SCORPIONS HIT
   1002  9da3		       85 a7		      STA	CAPQUAN	;		  RESET BOSS CAPTURING REGISTER
   1003  9da5		       20 0f 9d 	      JSR	INITCOLS
   1004  9da8		       a9 19		      LDA	#25	;		      ;KILL BACKGROUND MUSIC
   1005  9daa		       20 e6 d3 	      JSR	SCRAPONE
   1006  9dad		       a9 02		      LDA	#2	;		       ;SOUND FOR NEW RACK
   1007  9daf		       20 03 d4 	      JSR	TUNIN
   1008  9db2		       a9 80		      LDA	#$80	;		     ;RESET RACKREG
   1009  9db4		       85 bd		      STA	RACKREG
   1010  9db6		       a9 46		      LDA	#70	;		      ;INIT ANTI-STALLING DEVICE
   1011  9db8		       85 57		      STA	BULLSHT
   1012  9dba		       e6 42		      INC	RACK
   1013  9dbc		       a5 43		      LDA	GASTONHK
   1014  9dbe		       f8		      SED
   1015  9dbf		       18		      CLC
   1016  9dc0		       69 01		      ADC	#1
   1017  9dc2		       85 43		      STA	GASTONHK
   1018  9dc4		       d8		      CLD
   1019  9dc5		       90 10		      BCC	RACKOK
   1020  9dc7		       a9 01		      LDA	#1
   1021  9dc9		       85 42		      STA	RACK
   1022  9dcb		       85 43		      STA	GASTONHK	;		 ;RACK WRAPS AROUND AT 100
   1023  9dcd							;MUST RESET VARIOUS STARTUP REGISTERS HERE
   1024  9dcd		       a9 00		      LDA	#0
   1025  9dcf		       85 58		      STA	STRSPEED	;		 ;SLOW DOWN STARS AGAIN
   1026  9dd1		       85 5a		      STA	CHALNUM
   1027  9dd3		       85 49		      STA	WAVEREG
   1028  9dd5		       85 5b		      STA	CHALINDX	;		 ;RESET ALL BIRTH PARAMETERS
   1029  9dd7				   RACKOK
   1030  9dd7		       60		      RTS
   1031  9dd8		       a5 bd	   NEWRACK1   LDA	RACKREG
   1032  9dda		       c9 60		      CMP	#$60	;		      ;SEE IF HALF WAY DONE WITH WAIT
   1033  9ddc		       d0 1e		      BNE	ENDRACK
   1034  9dde		       a5 42		      LDA	RACK
   1035  9de0		       18		      CLC
   1036  9de1		       69 02		      ADC	#2
   1037  9de3		       38		      SEC
   1038  9de4		       e9 04	   NEWRACK2   SBC	#4
   1039  9de6		       f0 04		      BEQ	CHALRACK
   1040  9de8		       b0 fa		      BCS	NEWRACK2
   1041  9dea		       90 11		      BCC	CLRCHSTG
   1042  9dec		       a9 4f	   CHALRACK   LDA	#$4F
   1043  9dee		       85 bc		      STA	CHLNGREG
   1044  9df0		       85 61		      STA	CHALSTG
   1045  9df2		       a9 0f		      LDA	#15
   1046  9df4		       20 03 d4 	      JSR	TUNIN	;		    ;SET UP CHALLENGING STAGE TUNE
   1047  9df7		       a9 10		      LDA	#16
   1048  9df9		       20 03 d4 	      JSR	TUNIN
   1049  9dfc		       60	   ENDRACK    RTS
   1050  9dfd		       a5 61	   CLRCHSTG   LDA	CHALSTG
   1051  9dff		       f0 fb		      BEQ	ENDRACK
   1052  9e01		       a9 00		      LDA	#0
   1053  9e03		       85 61		      STA	CHALSTG
   1054  9e05		       a9 01		      LDA	#1	;		       SHORTEN DELAY FOR STATS MUSIC
   1055  9e07		       85 bd		      STA	RACKREG
   1056  9e09		       a9 ff		      LDA	#$FF
   1057  9e0b		       85 8d		      STA	SCRTIME	;		  ;TIME TO DISPLAY SCORE
   1058  9e0d		       e6 5a		      INC	CHALNUM	;		  ;NEXT CHALLENGING STAGE WILL BE HIGHER
   1059  9e0f		       a5 5a		      LDA	CHALNUM
   1060  9e11		       c9 08		      CMP	#8
   1061  9e13		       30 e7		      BMI	ENDRACK	;		  ;LEAVE ALONE
   1062  9e15		       a9 00		      LDA	#0	;		       ;ONLY 8 DIFFERENT CHALLENGING STAGES
   1063  9e17		       85 5a		      STA	CHALNUM
   1064  9e19		       60		      RTS
   1065  9e1a
   1066  9e1a
   1067  9e1a							;
   1068  9e1a							;THIS SUBROUTINE INITIATES A SHIP POINTED TO BY Y REG ON BLUE ATTACK
   1069  9e1a							;
   1070  9e1a				   ATTKBL
   1071  9e1a		       a5 a5		      LDA	METAREG	;		  ;INCREMENT METAMORPHOSIS REGISTER
   1072  9e1c		       30 53		      BMI	META2	;		    ;NEGATIVE INDICATES DISABLED
   1073  9e1e		       18		      CLC
   1074  9e1f		       69 01		      ADC	#1
   1075  9e21		       85 a5		      STA	METAREG
   1076  9e23		       c9 0e		      CMP	#14	;		      ;SEE IF ALREADY HAVE MADE 20 ATTACKS
   1077  9e25		       30 4a		      BMI	META2
   1078  9e27		       a9 ff		      LDA	#$FF
   1079  9e29		       85 a5		      STA	METAREG	;		  ;DISABLE FURTHER METAS
   1080  9e2b		       a5 42		      LDA	RACK
   1081  9e2d		       c9 04		      CMP	#4	;		       ;NO METAMORF ON LOWEST RACKS
   1082  9e2f		       90 40		      BCC	META2
   1083  9e31							;LOOK FOR AVAILABLE BLUE BUG
   1084  9e31		       a2 00		      LDX	#0
   1085  9e33		       bd d3 1d    META1      LDA	TYPE,X
   1086  9e36		       c9 01		      CMP	#1
   1087  9e38		       f0 07		      BEQ	META14
   1088  9e3a		       e8	   META15     INX
   1089  9e3b		       e0 0f		      CPX	#15
   1090  9e3d		       30 f4		      BMI	META1
   1091  9e3f		       10 30		      BPL	META2	;		    ;NO SHIPS AVAILABLE, ABORT ATTEMPT
   1092  9e41		       bd 77 1f    META14     LDA	MODE,X	;		   ;CHECK THAT IT"S IN EXPANSION MODE
   1093  9e44		       c9 01		      CMP	#1
   1094  9e46		       f0 04		      BEQ	META3
   1095  9e48		       c9 00		      CMP	#0
   1096  9e4a		       d0 ee		      BNE	META15
   1097  9e4c							;STORE NEW SCORPION TYPES
   1098  9e4c		       a9 28	   META3      LDA	#40
   1099  9e4e		       85 a6		      STA	METACNT	;		  ;COUNTER BETWEEN NEW SCORPION BIRTHS
   1100  9e50		       a9 0d		      LDA	#13
   1101  9e52		       9d d3 1d 	      STA	TYPE,X	;		   ;13 IS SCORPION TYPE AND TUNE NUMBER
   1102  9e55		       20 03 d4 	      JSR	TUNIN
   1103  9e58		       a9 00		      LDA	#0
   1104  9e5a		       9d 40 01 	      STA	MOMENTUM,X	;	       BIRTH MUST BE SLOW
   1105  9e5d		       bd 1b 1e 	      LDA	XCORD,X
   1106  9e60		       8d 45 1e 	      STA	XCORD+42
   1107  9e63		       8d 46 1e 	      STA	XCORD+43
   1108  9e66		       bd 63 1e 	      LDA	YCORD,X
   1109  9e69		       8d 8d 1e 	      STA	YCORD+42
   1110  9e6c		       8d 8e 1e 	      STA	YCORD+43
   1111  9e6f		       8a		      TXA
   1112  9e70		       a8		      TAY		;			      SWITCH TO THE NEW SHIP NUMBER
   1113  9e71		       a9 d7	   META2      LDA	#<BATBL1	;	       ;MAKE
   1114  9e73		       99 f3 1e 	      STA	ML,Y	;		     ;MTBLPTR AND MODE TO BE BLUE ATTACK
   1115  9e76		       a9 de		      LDA	#>BATBL1
   1116  9e78		       99 36 1f 	      STA	MH,Y
   1117  9e7b		       b9 1b 1e 	      LDA	XCORD,Y	;		  ;SEE IF ON LEFT OR RIGHT SIDE OF
   1118  9e7e		       c9 50		      CMP	#80	;		      ;SCREEN AND THUS WHICH WAY TO ATTACK
   1119  9e80		       b0 04		      BCS	NEGATK
   1120  9e82		       a9 83		      LDA	#$83
   1121  9e84		       d0 02		      BNE	CHMODE
   1122  9e86		       a9 c3	   NEGATK     LDA	#$C3
   1123  9e88		       99 77 1f    CHMODE     STA	MODE,Y
   1124  9e8b		       e6 88		      INC	AIRBORNE	;		 ;WAS IN SHIFTING OR EXPANSION MODE
   1125  9e8d							;	   INC	   NUMFLY
   1126  9e8d		       60		      RTS
   1127  9e8e
   1128  9e8e
   1129  9e8e							;
   1130  9e8e							;THIS SUBROUTINE MOVES A BLUE SHIP POINTED TO BY Y REG ONE STEP BY CALLING
   1131  9e8e							;A SUBROUTINE THAT USES A MOTION TABLE
   1132  9e8e							;
   1133  9e8e							;IT HAS NO PERMANENT LOCAL VARIBLES
   1134  9e8e							;ITS TEMPORARY VARIBLES ARE:
   1135  9e8e							;TEMP1    DS	   2
   1136  9e8e							;
   1137  9e8e							;CONSTANTS ARE
   1138  9e8e							;
   1139  9e8e							;Y REGISTER IS SAVED, ALL OTHER
   1140  9e8e							;REGISTERS ARE DESTROYED
   1141  9e8e							;
   1142  9e8e		       20 9c 9a    BLUATK     JSR	MSHBTBL	;		  ;CALL SUBROUTINE TO MOVE SHIP BY TABLE
   1143  9e91		       8a		      TXA		;			      ;SEE IF END OF TABLE
   1144  9e92		       d0 01		      BNE	NOEND
   1145  9e94		       60		      RTS
   1146  9e95		       b9 77 1f    NOEND      LDA	MODE,Y	;		   ;IS END
   1147  9e98		       29 20		      AND	#$20	;		     ;SO FIRST SEE IF JUST FINISHED FIRST
   1148  9e9a		       d0 28		      BNE	BAPH2	;		    ;PHASE
   1149  9e9c		       b9 1b 1e 	      LDA	XCORD,Y	;		  ;JUST FINISHED FIRST PHASE, SEE IF
   1150  9e9f		       cd 5a 1e 	      CMP	XCORD+63	;		 ;HERO TO LEFT OR RIGHT
   1151  9ea2		       90 0b		      BCC	NNEGATT
   1152  9ea4		       b9 77 1f 	      LDA	MODE,Y	;		   ;HERO TO THE LEFT, SO DO NEGATE
   1153  9ea7		       09 60		      ORA	#$60	;		     ;AND CHANGE MODE TO START PHASE 2
   1154  9ea9		       99 77 1f 	      STA	MODE,Y
   1155  9eac		       4c b9 9e 	      JMP	PHA1
   1156  9eaf		       b9 77 1f    NNEGATT    LDA	MODE,Y	;		   ;HERO TO THE RIGHT, SO DONT NEGATE
   1157  9eb2		       29 bf		      AND	#$BF
   1158  9eb4		       09 20		      ORA	#$20	;		     ;AND CHANGE MODE TO START PHASE 2
   1159  9eb6		       99 77 1f 	      STA	MODE,Y
   1160  9eb9		       a9 de	   PHA1       LDA	#>BATBL1A	;	      ;NOW CHANGE MOTION TABLE POINTER
   1161  9ebb		       99 36 1f 	      STA	MH,Y	;		     ;TO START PHASE 2
   1162  9ebe		       a9 e2		      LDA	#<BATBL1A
   1163  9ec0		       99 f3 1e 	      STA	ML,Y
   1164  9ec3		       60		      RTS
   1165  9ec4		       a2 00	   BAPH2      LDX	#0
   1166  9ec6		       a1 68		      LDA	(TEMP1,X)	;		;SEE IF JUST FINISHED PHASE 2 OR 3
   1167  9ec8		       29 fc		      AND	#$FC
   1168  9eca		       d0 56		      BNE	BAPH3
   1169  9ecc		       c0 28		      CPY	#40	;		      ;JUST FINISHED PHASE 2, NOW SEE IF
   1170  9ece		       30 07		      BMI	META5	;		    ;ENEMY STARTED ON LEFT OR RIGHT
   1171  9ed0		       b9 d3 1d 	      LDA	TYPE,Y	;		   ;SEE IF SCORPION
   1172  9ed3		       c9 0d		      CMP	#13
   1173  9ed5		       d0 36		      BNE	STRAIGHT	;		 ;IF NOT, MAKE GO STRAIGHT
   1174  9ed7		       b9 d3 1d    META5      LDA	TYPE,Y	;		   ;GET SHIP TYPE
   1175  9eda		       c9 0d		      CMP	#13	;		      ;SEE IF SCORPION
   1176  9edc		       d0 06		      BNE	META12	;		   ;HANDLE NORMALLY
   1177  9ede		       c0 28		      CPY	#40	;		      ;SEE IF EXTRA SCORPS
   1178  9ee0		       30 10		      BMI	CURVE	;		    ;IF ORIGINAL SHIP, GO HOME
   1179  9ee2		       10 29		      BPL	STRAIGHT	;		 ;IF NOT, GO STRAIGHT DOWN
   1180  9ee4		       b9 7d 93    META12     LDA	CHTAB,Y	;		  ;FIRST SEE IF NOT FORM SHIP, IF SO
   1181  9ee7		       c9 05		      CMP	#5	;		       ;JUST GO STRAIGHT DOWN
   1182  9ee9		       10 2d		      BPL	RIGHT
   1183  9eeb		       b9 77 1f 	      LDA	MODE,Y	;		   ;STARTED ON LEFT SIDE, NOW SEE IF
   1184  9eee		       29 40		      AND	#$40	;		     ;IS IN NEGATE MODE SO SHOULD DO A
   1185  9ef0		       f0 10		      BEQ	CIRCLE	;		   ;CURVE, OR NOT NEGATE (CIRCLE)
   1186  9ef2		       b9 40 01    CURVE      LDA	MOMENTUM,Y	;	       ;SEE IF IN FASTER MODE
   1187  9ef5		       30 0b		      BMI	CIRCLE	;		   ;DO A CIRCLE IF SO
   1188  9ef7		       a9 b9		      LDA	#>BATBL2	;	       ;NEGATED SO DO A CURVE (LEFT SIDE)
   1189  9ef9		       99 36 1f 	      STA	MH,Y
   1190  9efc		       a9 90		      LDA	#<BATBL2
   1191  9efe		       99 f3 1e 	      STA	ML,Y
   1192  9f01		       60		      RTS
   1193  9f02		       a9 9f	   CIRCLE     LDA	#>BATBL3	;	       ;NOT NEGATED SO DO A CIRCLE (LEFT SIDE)
   1194  9f04		       99 36 1f 	      STA	MH,Y
   1195  9f07		       a9 46		      LDA	#<BATBL3
   1196  9f09		       99 f3 1e 	      STA	ML,Y
   1197  9f0c		       60		      RTS
   1198  9f0d		       a9 9f	   STRAIGHT   LDA	#>BATBL3A	;	      ;NOT FORM SHIP, AND JUST FINISHED 2ND
   1199  9f0f		       99 36 1f 	      STA	MH,Y	;		     ;PHASE, SO CAUSE TO GO STRAIGHT DOWN
   1200  9f12		       a9 af		      LDA	#<BATBL3A
   1201  9f14		       99 f3 1e 	      STA	ML,Y
   1202  9f17		       60		      RTS
   1203  9f18		       b9 77 1f    RIGHT      LDA	MODE,Y	;		   ;STARTED ON RIGHT SIDE, SO IF NOT
   1204  9f1b		       29 40		      AND	#$40	;		     ;NEGATED DO A CURVE
   1205  9f1d		       f0 d3		      BEQ	CURVE
   1206  9f1f		       4c 02 9f 	      JMP	CIRCLE
   1207  9f22		       c0 28	   BAPH3      CPY	#40	;		      ;JUST FINISHED PHASE 3, NOW SEE IF
   1208  9f24		       30 08		      BMI	REGUL	;		    ;NOT FORM SHIP
   1209  9f26		       a9 00		      LDA	#0	;		       ;NOT FORM SHIP, SO GET RID OF
   1210  9f28		       99 d3 1d 	      STA	TYPE,Y
   1211  9f2b		       c6 88		      DEC	AIRBORNE
   1212  9f2d		       60		      RTS
   1213  9f2e		       c9 04	   REGUL      CMP	#$04	;		     ;REAL BLUE SHIP, SO SEE IF
   1214  9f30		       f0 06		      BEQ	UP	;		       ;SHOULD "GOHOME" OR "REAPPEAR"
   1215  9f32		       a9 82		      LDA	#$82	;		     ;DID A CIRCLE SO SET MODE TO REAPPEAR
   1216  9f34		       99 77 1f 	      STA	MODE,Y
   1217  9f37		       60		      RTS
   1218  9f38		       a9 81	   UP	      LDA	#$81	;		     ;DID A CURVE SO SET MODE TO GOHOME
   1219  9f3a		       99 77 1f 	      STA	MODE,Y
   1220  9f3d		       b9 d3 1d 	      LDA	TYPE,Y
   1221  9f40		       29 7f		      AND	#$7F
   1222  9f42		       99 d3 1d 	      STA	TYPE,Y	;		   ;BOOT THE NEGATIVE SIGN
   1223  9f45		       60		      RTS
   1224  9f46				   END4 		;DC.B	    $00;		    NEXT CODE SECTION GOES HERE
------- FILE GLOAD.ASM
------- FILE GDAC4_3.ASM LEVEL 2 PASS 2
      0  9f46					      include	"GDAC4_3.ASM"
      1  9f46
      2  9f46					      ORG	END4
      3  9f46							;
      4  9f46							;THIS IS THE MOTION TABLE WHICH CAUSES AN ATACKING BLUE SHIP TO CIRCLE AROUND.
      5  9f46							;THERE ARE 110 ENTRIES
      6  9f46		       e4 04 e5 04*BATBL3     DC.B	$E4,$04,$E5,$04,$E4,$04,$E4,$04,$26
      7  9f4f		       e4 e0 e4 e0*	      DC.B	$E4,$E0,$E4,$E0,$E4,$E0,$E4,$E0,$E5,$E0
      8  9f59		       e4 c6		      DC.B	$E4,$C6
      9  9f5b		       e0 fc e0 fd*	      DC.B	$E0,$FC,$E0,$FD,$E0,$FC,$E0
     10  9f62		       fc e0 fc e0*	      DC.B	$FC,$E0,$FC,$E0,$FC,$E0,$46
     11  9f69		       fc 1c fc 1c*	      DC.B	$FC,$1C,$FC,$1C,$FC,$1C,$FC,$1C,$FD,$1C
     12  9f73		       fc c6		      DC.B	$FC,$C6
     13  9f75		       1c 3c 1c 3d*	      DC.B	$1C,$3C,$1C,$3D,$1C,$3C,$1C
     14  9f7c		       3c 1c 3c 1c*	      DC.B	$3C,$1C,$3C,$1C,$3C,$1C,$46
     15  9f83		       3c 20 3c 20*	      DC.B	$3C,$20,$3C,$20,$3C,$20,$3C,$20,$3D,$20
     16  9f8d		       3c c6		      DC.B	$3C,$C6
     17  9f8f		       20 24 20 25*	      DC.B	$20,$24,$20,$25,$20,$24,$20
     18  9f96		       24 20 24 20*	      DC.B	$24,$20,$24,$20,$24,$20,$46
     19  9f9d		       24 04 24 04*	      DC.B	$24,$04,$24,$04,$24,$04,$24,$04,$25,$04
     20  9fa7		       24		      DC.B	$24
     21  9fa8		       f6 04 f6 04	      DC.B	$F6,$04,$F6,$04
     22  9fac		       f6 04 04 	      DC.B	$F6,$04,$04
     23  9faf		       f6 04	   BATBL3A    DC.B	$F6,$04
     24  9fb1		       76 04 0e 	      DC.B	$76,$04,$0E
     25  9fb4
     26  9fb4		       28 3e 47 50*TWINKX     DC.B	$28,$3E,$47,$50,$30,$57,$5B,$72
     27  9fbc
     28  9fbc							;THESE TABLES ARE THE MOTION TABLES FOR BOSS ATTACK
     29  9fbc							;66 ENTRIES
     30  9fbc		       05 e4 04 e4*BOTBL2     DC.B	$05,$E4,$04,$E4,$04,$E4,$04,$26,$E4
     31  9fc5		       e0 e4 e0 e5*	      DC.B	$E0,$E4,$E0,$E5,$A6
     32  9fca		       e0 e1 e0 fc*	      DC.B	$E0,$E1,$E0,$FC,$E0
     33  9fcf		       26 fc 1c fc*	      DC.B	$26,$FC,$1C,$FC,$1C,$FC,$1C,$FC,$1C,$FD
     34  9fd9		       86 1c 3d 	      DC.B	$86,$1C,$3D
     35  9fdc		       1c 3c 1c 3c*	      DC.B	$1C,$3C,$1C,$3C,$1C,$3C,$20,$3C,$20,$3C
     36  9fe6		       20 3c 20 3d*	      DC.B	$20,$3C,$20,$3D,$86
     37  9feb		       20 21 20 24*	      DC.B	$20,$21,$20,$24,$20,$26,$24
     38  9ff2		       04 24 04 24*	      DC.B	$04,$24,$04,$24,$26,$04,$25,$04,$24
     39  9ffb		       56 04		      DC.B	$56,$04
     40  9ffd		       02	   END5       DC.B	$02
     41  9ffe
------- FILE GLOAD.ASM
------- FILE GRAPHA2.ASM LEVEL 2 PASS 2
      0  9ffe					      include	"GRAPHA2.ASM"
      1  9ffe
      2  9ffe							;LINE TWELVE - Bottom row for all sprites in this file
      3  a000					      ORG	$A000
      4  a000				   G2START
      5  a000		       00 0c 00 	      DC.B	0,$0C,0
      6  a003		       00 00		      DC.B	0,0
      7  a005		       00 00		      DC.B	0,0
      8  a007		       00 00		      DC.B	0,0
      9  a009		       00 00		      DC.B	0,0
     10  a00b		       00 00		      DC.B	0,0
     11  a00d		       00 00		      DC.B	0,0
     12  a00f		       00 00		      DC.B	0,0
     13  a011		       00 00		      DC.B	0,0
     14  a013		       00 00		      DC.B	0,0
     15  a015		       00 00		      DC.B	0,0
     16  a017		       00 00 00 	      DC.B	0,0,0
     17  a01a		       00 00 00 	      DC.B	0,0,0
     18  a01d		       00 00 00 	      DC.B	0,0,0
     19  a020		       00 00 00 	      DC.B	0,0,0
     20  a023		       00 0c 00 	      DC.B	$00,$0C,$00
     21  a026		       00 00 00 	      DC.B	0,0,0
     22  a029		       03 00 00 	      DC.B	3,0,0
     23  a02c		       00 00		      DC.B	0,0
     24  a02e		       00 00		      DC.B	0,0
     25  a030		       00 00		      DC.B	0,0
     26  a032		       00 00		      DC.B	0,0
     27  a034		       00 00		      DC.B	0,0
     28  a036		       00 00		      DC.B	0,0
     29  a038		       00 00		      DC.B	0,0
     30  a03a		       00 00		      DC.B	0,0
     31  a03c		       00 00 00 00*	      DC.B	0,0,0,0,0,0,0,0,0
     32  a045		       00 00		      DC.B	0,0
     33  a047		       00 00		      DC.B	0,0
     34  a049		       00 00 00 00*	      DC.B	0,0,0,0,0,0,0,0
     35  a051		       00 00 00 00*	      DC.B	0,0,0,0,0,0,0,0,0,0,0,0
     36  a05d		       00 00 00 00*	      DC.B	0,0,0,0,0,0,0,0,0
     37  a066		       00 00 00 00 MARIA2     DC.B	0,0,0,0
     38  a06a		       00 00 00 00	      DC.B	0,0,0,0
     39  a06e		       00 00 00 00	      DC.B	0,0,0,0
     40  a072		       00 00 00 00	      DC.B	0,0,0,0
     41  a076		       00 00 00 00	      DC.B	0,0,0,0
     42  a07a		       00 00 00 00	      DC.B	0,0,0,0
     43  a07e		       00 03 00 00	      DC.B	0,3,0,0
     44  a082		       0a 8f e8 c0	      DC.B	$0A,$8F,$E8,$C0
     45  a086		       00 00 00 00*	      DC.B	0,0,0,0,0
     46  a08b		       00		      DC.B	0
     47  a08c		       00 00 00 00	      DC.B	0,0,0,0
     48  a090		       00 00 00 00	      DC.B	0,0,0,0
     49  a094		       00 00 00 00	      DC.B	0,0,0,0
     50  a098		       00 00 00 00	      DC.B	0,0,0,0
     51  a09c		       00 00		      DC.B	0,0
     52  a09e		       00 00		      DC.B	0,0
     53  a0a0		       00 00		      DC.B	0,0
     54  a0a2		       00 00		      DC.B	0,0
     55  a0a4		       00 00		      DC.B	0,0
     56  a0a6		       00 00		      DC.B	0,0
     57  a0a8		       00 00		      DC.B	0,0
     58  a0aa		       00 00		      DC.B	0,0
     59  a0ac		       00 00		      DC.B	0,0
     60  a0ae		       00 00		      DC.B	0,0
     61  a0b0		       00 00		      DC.B	0,0
     62  a0b2		       00 00		      DC.B	0,0
     63  a0b4		       00 00		      DC.B	0,0
     64  a0b6		       00 00		      DC.B	0,0
     65  a0b8		       00 00		      DC.B	0,0
     66  a0ba		       00 00 00 00	      DC.B	0,0,0,0
     67  a0be		       00 00		      DC.B	0,0
     68  a0c0		       00 00		      DC.B	0,0
     69  a0c2		       00 00		      DC.B	0,0
     70  a0c4		       00 00		      DC.B	0,0
     71  a0c6		       00 00		      DC.B	0,0
     72  a0c8		       00 00		      DC.B	0,0
     73  a0ca		       00 00		      DC.B	0,0
     74  a0cc		       00 00		      DC.B	0,0
     75  a0ce		       00 00		      DC.B	0,0
     76  a0d0		       00 00		      DC.B	0,0
     77  a0d2		       00 00		      DC.B	0,0
     78  a0d4		       00 00		      DC.B	0,0
     79  a0d6		       00 00		      DC.B	0,0
     80  a0d8		       00 00		      DC.B	0,0
     81  a0da		       00 00		      DC.B	0,0
     82  a0dc		       00 00		      DC.B	0,0
     83  a0de		       00 00		      DC.B	0,0
     84  a0e0		       00 00		      DC.B	0,0
     85  a0e2		       00 00		      DC.B	0,0
     86  a0e4		       00 00		      DC.B	0,0
     87  a0e6		       00 00		      DC.B	0,0
     88  a0e8		       00 00		      DC.B	0,0
     89  a0ea		       00 00		      DC.B	0,0
     90  a0ec		       05 40	   DIGIT      DC.B	$5,$40
     91  a0ee		       05 50		      DC.B	$5,$50
     92  a0f0		       55 50		      DC.B	$55,$50
     93  a0f2		       55 40		      DC.B	$55,$40
     94  a0f4		       00 40		      DC.B	0,$40
     95  a0f6		       55 40		      DC.B	$55,$40
     96  a0f8		       15 40		      DC.B	$15,$40
     97  a0fa		       15 40		      DC.B	$15,$40
     98  a0fc		       15 40		      DC.B	$15,$40
     99  a0fe		       54 00		      DC.B	$54,0
    100  a100
    101  a100
    102  a100
    103  a100
    104  a100							;ELEVENTH LINE
    105  a100					      ORG	$A100
    106  a100		       00 c0 b0 	      DC.B	0,$C0,$B0
    107  a103		       00 00		      DC.B	0,0
    108  a105		       00 00		      DC.B	0,0
    109  a107		       00 00		      DC.B	0,0
    110  a109		       00 00		      DC.B	0,0
    111  a10b		       00 00		      DC.B	0,0
    112  a10d		       00 00		      DC.B	0,0
    113  a10f		       00 00		      DC.B	0,0
    114  a111		       00 00		      DC.B	0,0
    115  a113		       00 00		      DC.B	0,0
    116  a115		       00 00		      DC.B	0,0
    117  a117		       00 00 00 	      DC.B	0,0,0
    118  a11a		       00 00 00 	      DC.B	0,0,0
    119  a11d		       00 00 00 	      DC.B	0,0,0
    120  a120		       00 00 00 	      DC.B	0,0,0
    121  a123		       00 00 00 	      DC.B	0,0,0
    122  a126		       30 c0 00 	      DC.B	$30,$C0,0
    123  a129		       00 00 30 	      DC.B	0,0,$30
    124  a12c		       00 00		      DC.B	0,0
    125  a12e		       00 00		      DC.B	0,0
    126  a130		       00 00		      DC.B	0,0
    127  a132		       00 00		      DC.B	0,0
    128  a134		       00 00		      DC.B	0,0
    129  a136		       00 00		      DC.B	0,0
    130  a138		       00 00		      DC.B	0,0
    131  a13a		       00 00		      DC.B	0,0
    132  a13c		       00 00 00 00*	      DC.B	0,0,0,0,0,0,0,0,0
    133  a145		       00 00		      DC.B	0,0
    134  a147		       00 00		      DC.B	0,0
    135  a149		       00 00 00 00*	      DC.B	0,0,0,0,0,0,0,0
    136  a151		       00 00 00 00*	      DC.B	0,0,0,0,0,0,0,0,0,0,0,0
    137  a15d		       00 00 00 00*	      DC.B	0,0,0,0,0,0,0,0,0
    138  a166		       00 00 00 00	      DC.B	0,0,0,0
    139  a16a		       00 00 00 00	      DC.B	0,0,0,0
    140  a16e		       00 00 00 00	      DC.B	0,0,0,0
    141  a172		       00 00 00 00	      DC.B	0,0,0,0
    142  a176		       00 00 00 00	      DC.B	0,0,0,0
    143  a17a		       00 03 00 00	      DC.B	0,3,0,0
    144  a17e		       00 0f c0 00	      DC.B	0,$0F,$C0,0
    145  a182		       ae af eb e0	      DC.B	$AE,$AF,$EB,$E0
    146  a186		       ff ff ff ff*	      DC.B	$FF,$FF,$FF,$FF,$FF
    147  a18b		       ff		      DC.B	$FF
    148  a18c		       00 00 00 00	      DC.B	0,0,0,0
    149  a190		       00 00 00 00	      DC.B	0,0,0,0
    150  a194		       00 00 00 00	      DC.B	0,0,0,0
    151  a198		       00 00 00 00	      DC.B	0,0,0,0
    152  a19c		       00 00		      DC.B	0,0
    153  a19e		       00 00		      DC.B	0,0
    154  a1a0		       00 00		      DC.B	0,0
    155  a1a2		       00 00		      DC.B	0,0
    156  a1a4		       00 00		      DC.B	0,0
    157  a1a6		       10 10		      DC.B	$10,$10
    158  a1a8		       00 00		      DC.B	0,0
    159  a1aa		       00 00		      DC.B	0,0
    160  a1ac		       00 00		      DC.B	0,0
    161  a1ae		       00 00		      DC.B	0,0
    162  a1b0		       00 00		      DC.B	0,0
    163  a1b2		       00 00		      DC.B	0,0
    164  a1b4		       00 00		      DC.B	0,0
    165  a1b6		       00 00		      DC.B	0,0
    166  a1b8		       00 00		      DC.B	0,0
    167  a1ba		       00 00 00 00	      DC.B	0,0,0,0
    168  a1be		       00 00		      DC.B	0,0
    169  a1c0		       00 00		      DC.B	0,0
    170  a1c2		       00 00		      DC.B	0,0
    171  a1c4		       00 00		      DC.B	0,0
    172  a1c6		       00 00		      DC.B	0,0
    173  a1c8		       00 00		      DC.B	0,0
    174  a1ca		       00 00		      DC.B	0,0
    175  a1cc		       00 00		      DC.B	0,0
    176  a1ce		       00 00		      DC.B	0,0
    177  a1d0		       00 00		      DC.B	0,0
    178  a1d2		       00 00		      DC.B	0,0
    179  a1d4		       00 00		      DC.B	0,0
    180  a1d6		       00 00		      DC.B	0,0
    181  a1d8		       00 00		      DC.B	0,0
    182  a1da		       00 00		      DC.B	0,0
    183  a1dc		       00 00		      DC.B	0,0
    184  a1de		       00 00		      DC.B	0,0
    185  a1e0		       00 00		      DC.B	0,0
    186  a1e2		       00 00		      DC.B	0,0
    187  a1e4		       00 00		      DC.B	0,0
    188  a1e6		       00 00		      DC.B	0,0
    189  a1e8		       00 00		      DC.B	0,0
    190  a1ea		       00 00		      DC.B	0,0
    191  a1ec		       15 50		      DC.B	$15,$50
    192  a1ee		       05 50		      DC.B	$5,$50
    193  a1f0		       15 50		      DC.B	$15,$50
    194  a1f2		       55 50		      DC.B	$55,$50
    195  a1f4		       00 40		      DC.B	0,$40
    196  a1f6		       55 50		      DC.B	$55,$50
    197  a1f8		       55 50		      DC.B	$55,$50
    198  a1fa		       05 00		      DC.B	$5,0
    199  a1fc		       55 50		      DC.B	$55,$50
    200  a1fe		       15 00		      DC.B	$15,0
    201  a200
    202  a200
    203  a200
    204  a200
    205  a200
    206  a200					      ORG	$A200	;		    ; 10 TH LINE
    207  a200		       00 28 80 	      DC.B	0,$28,$80
    208  a203		       00 00		      DC.B	0,0
    209  a205		       28 00		      DC.B	$28,$00
    210  a207		       a0 00		      DC.B	$A0,$00
    211  a209		       00 15		      DC.B	$00,$15
    212  a20b		       02 40		      DC.B	$02,$40
    213  a20d		       cc 33		      DC.B	$CC,$33
    214  a20f		       01 80		      DC.B	$01,$80
    215  a211		       00 00		      DC.B	0,0
    216  a213		       00 08		      DC.B	0,$08
    217  a215		       00 28		      DC.B	$00,$28
    218  a217		       00 00 00 	      DC.B	0,0,0
    219  a21a		       00 00 00 	      DC.B	0,0,0
    220  a21d		       00 00 00 	      DC.B	0,0,0
    221  a220		       00 0c 00 	      DC.B	0,$0C,0
    222  a223		       0c 30 00 	      DC.B	$0C,$30,0
    223  a226		       00 00 c0 	      DC.B	0,0,$C0
    224  a229		       00 00 00 	      DC.B	0,0,0
    225  a22c		       03 00		      DC.B	$03,$00
    226  a22e		       81 00		      DC.B	$81,$00
    227  a230		       15 a0		      DC.B	$15,$A0
    228  a232		       02 30		      DC.B	$02,$30
    229  a234		       1c d0		      DC.B	$1C,$D0
    230  a236		       32 00		      DC.B	$32,$00
    231  a238		       29 50		      DC.B	$29,$50
    232  a23a		       01 08		      DC.B	$01,$08
    233  a23c		       00 00 00 00*	      DC.B	0,0,0,0,0,0,0,0,0
    234  a245		       00 00		      DC.B	0,0
    235  a247		       00 00		      DC.B	0,0
    236  a249		       00 00 00 00*	      DC.B	0,0,0,0,0,0,0,0
    237  a251		       00 00 00 00*	      DC.B	0,0,0,0,0,0,0,0,0,0,0,0
    238  a25d		       00 00 00 00*	      DC.B	0,0,0,0,0,0,0,0,0
    239  a266		       00 00 00 00	      DC.B	0,0,0,0
    240  a26a		       00 00 00 00	      DC.B	0,0,0,0
    241  a26e		       00 00 00 00	      DC.B	0,0,0,0
    242  a272		       00 00 00 00	      DC.B	0,0,0,0
    243  a276		       00 03 00 00	      DC.B	0,3,0,0
    244  a27a		       00 03 00 00	      DC.B	0,3,0,0
    245  a27e		       00 3d f0 00	      DC.B	0,$3D,$F0,0
    246  a282		       af ef ef e8	      DC.B	$AF,$EF,$EF,$E8
    247  a286		       00 00 00 00*	      DC.B	0,0,0,0,0
    248  a28b		       00		      DC.B	0
    249  a28c		       00 00 00 00	      DC.B	0,0,0,0
    250  a290		       00 00 00 00	      DC.B	0,0,0,0
    251  a294		       00 00 00 00	      DC.B	0,0,0,0
    252  a298		       00 00 00 00	      DC.B	0,0,0,0
    253  a29c		       00 00		      DC.B	0,0
    254  a29e		       80 08		      DC.B	$80,$08
    255  a2a0		       20 20		      DC.B	$20,$20
    256  a2a2		       30 30		      DC.B	$30,$30
    257  a2a4		       30 30		      DC.B	$30,$30
    258  a2a6		       60 24		      DC.B	$60,$24
    259  a2a8		       04 40		      DC.B	$04,$40
    260  a2aa		       cb 8c		      DC.B	$CB,$8C
    261  a2ac		       03 00		      DC.B	$3,0
    262  a2ae		       55 00		      DC.B	$55,0
    263  a2b0		       00 00		      DC.B	$0,0
    264  a2b2		       01 00		      DC.B	1,0
    265  a2b4		       00 00		      DC.B	0,0
    266  a2b6		       01 54		      DC.B	1,$54
    267  a2b8		       03 00		      DC.B	3,0
    268  a2ba		       00 00 00 00	      DC.B	0,0,0,0
    269  a2be		       00 00		      DC.B	0,0
    270  a2c0		       00 00		      DC.B	0,0
    271  a2c2		       0a 00		      DC.B	$0A,$00
    272  a2c4		       a8 00		      DC.B	$A8,$00
    273  a2c6		       0a 10		      DC.B	$0A,$10
    274  a2c8		       04 40		      DC.B	$04,$40
    275  a2ca		       12 80		      DC.B	$12,$80
    276  a2cc		       00 a8		      DC.B	$00,$A8
    277  a2ce		       02 80		      DC.B	$02,$80
    278  a2d0		       0f c0		      DC.B	$0F,$C0
    279  a2d2		       0f 30		      DC.B	$0F,$30
    280  a2d4		       0f 50		      DC.B	$0F,$50
    281  a2d6		       14 50		      DC.B	$14,$50
    282  a2d8		       17 c0		      DC.B	$17,$C0
    283  a2da		       33 c0		      DC.B	$33,$C0
    284  a2dc		       0f c0		      DC.B	$0F,$C0
    285  a2de		       06 40		      DC.B	$06,$40
    286  a2e0		       25 10		      DC.B	$25,$10
    287  a2e2		       09 10		      DC.B	$09,$10
    288  a2e4		       05 00		      DC.B	$05,$00
    289  a2e6		       11 80		      DC.B	$11,$80
    290  a2e8		       45 80		      DC.B	$45,$80
    291  a2ea		       06 40		      DC.B	$06,$40
    292  a2ec		       54 54		      DC.B	$54,$54
    293  a2ee		       01 40		      DC.B	$1,$40
    294  a2f0		       05 00		      DC.B	$5,0
    295  a2f2		       40 50		      DC.B	$40,$50
    296  a2f4		       55 50		      DC.B	$55,$50
    297  a2f6		       00 50		      DC.B	0,$50
    298  a2f8		       50 50		      DC.B	$50,$50
    299  a2fa		       05 00		      DC.B	$5,0
    300  a2fc		       50 50		      DC.B	$50,$50
    301  a2fe		       05 40		      DC.B	$5,$40
    302  a300							;   DC.B      0,0
    303  a300							;   DC.B      0,0
    304  a300
    305  a300
    306  a300
    307  a300
    308  a300					      ORG	$A300	;		    ; 9 TH LINE
    309  a300		       00 2a 80 	      DC.B	0,$2A,$80
    310  a303		       00 00		      DC.B	0,0
    311  a305		       82 00		      DC.B	$82,0
    312  a307		       88 10		      DC.B	$88,$10
    313  a309		       00 54		      DC.B	0,$54
    314  a30b		       05 40		      DC.B	5,$40
    315  a30d		       d3 c7		      DC.B	$D3,$C7
    316  a30f		       01 50		      DC.B	$01,$50
    317  a311		       54 00		      DC.B	$54,0
    318  a313		       04 22		      DC.B	4,$22
    319  a315		       00 82		      DC.B	0,$82
    320  a317		       00 00 00 	      DC.B	0,0,0
    321  a31a		       00 00 00 	      DC.B	0,0,0
    322  a31d		       00 0c 00 	      DC.B	0,$0C,0
    323  a320		       03 00 00 	      DC.B	3,0,0
    324  a323		       00 03 04 	      DC.B	0,3,4
    325  a326		       00 00 00 	      DC.B	0,0,0
    326  a329		       00 00 00 	      DC.B	0,0,0
    327  a32c		       03 00		      DC.B	$03,$00
    328  a32e		       a1 40		      DC.B	$A1,$40
    329  a330		       15 a0		      DC.B	$15,$A0
    330  a332		       0a 3c		      DC.B	$0A,$3C
    331  a334		       0e c0		      DC.B	$0E,$C0
    332  a336		       f2 80		      DC.B	$F2,$80
    333  a338		       29 50		      DC.B	$29,$50
    334  a33a		       05 28		      DC.B	$05,$28
    335  a33c		       00 00 00 00*	      DC.B	0,0,0,0,0,0,0,0,0
    336  a345		       00 00		      DC.B	0,0
    337  a347		       00 00		      DC.B	0,0
    338  a349		       00 00 00 00*	      DC.B	0,0,0,0,0,0,0,0
    339  a351		       00 00 00 00*	      DC.B	0,0,0,0,0,0,0,0,0,0,0,0
    340  a35d		       00 00 00 00*	      DC.B	0,0,0,0,0,0,0,0,0
    341  a366		       00 00 00 00	      DC.B	0,0,0,0
    342  a36a		       00 00 00 00	      DC.B	0,0,0,0
    343  a36e		       00 00 00 00	      DC.B	0,0,0,0
    344  a372		       00 03 00 00	      DC.B	0,3,0,0
    345  a376		       00 03 00 00	      DC.B	0,3,0,0
    346  a37a		       00 0f c0 00	      DC.B	0,$0F,$C0,0
    347  a37e		       00 f5 7c 00	      DC.B	$00,$F5,$7C,$00
    348  a382		       ab f7 7f a8	      DC.B	$AB,$F7,$7F,$A8
    349  a386		       aa aa aa aa*	      DC.B	$AA,$AA,$AA,$AA,$AA
    350  a38b		       aa		      DC.B	$AA
    351  a38c		       00 00 00 00	      DC.B	0,0,0,0
    352  a390		       00 00 00 00	      DC.B	0,0,0,0
    353  a394		       00 00 00 00	      DC.B	0,0,0,0
    354  a398		       00 00 00 00	      DC.B	0,0,0,0
    355  a39c		       00 00		      DC.B	0,0
    356  a39e		       a3 28		      DC.B	$A3,$28
    357  a3a0		       23 20		      DC.B	$23,$20
    358  a3a2		       f1 3c		      DC.B	$F1,$3C
    359  a3a4		       31 30		      DC.B	$31,$30
    360  a3a6		       a0 28		      DC.B	$A0,$28
    361  a3a8		       10 10		      DC.B	$10,$10
    362  a3aa		       eb ac		      DC.B	$EB,$AC
    363  a3ac		       33 c0		      DC.B	$33,$C0
    364  a3ae		       ff 00		      DC.B	$FF,0
    365  a3b0		       0f 3c		      DC.B	$0F,$3C
    366  a3b2		       03 00		      DC.B	3,0
    367  a3b4		       f3 c0		      DC.B	$F3,$C0
    368  a3b6		       03 fc		      DC.B	3,$FC
    369  a3b8		       0f 30		      DC.B	$F,$30
    370  a3ba		       02 00 08 00	      DC.B	2,0,8,0
    371  a3be		       00 00		      DC.B	0,0
    372  a3c0		       00 00		      DC.B	0,0
    373  a3c2		       0a 80		      DC.B	$0A,$80
    374  a3c4		       aa 80		      DC.B	$AA,$80
    375  a3c6		       2a b0		      DC.B	$2A,$B0
    376  a3c8		       0d c0		      DC.B	$0D,$C0
    377  a3ca		       3a a0		      DC.B	$3A,$A0
    378  a3cc		       0a a8		      DC.B	$0A,$A8
    379  a3ce		       0a 80		      DC.B	$0A,$80
    380  a3d0		       0f f0		      DC.B	$0F,$F0
    381  a3d2		       3f fc		      DC.B	$3F,$FC
    382  a3d4		       3e c0		      DC.B	$3E,$C0
    383  a3d6		       fd fc		      DC.B	$FD,$FC
    384  a3d8		       0e f0		      DC.B	$0E,$F0
    385  a3da		       ff f0		      DC.B	$FF,$F0
    386  a3dc		       3f c0		      DC.B	$3F,$C0
    387  a3de		       01 50		      DC.B	$01,$50
    388  a3e0		       65 d0		      DC.B	$65,$D0
    389  a3e2		       0d d0		      DC.B	$0D,$D0
    390  a3e4		       5f 50		      DC.B	$5F,$50
    391  a3e6		       1d c0		      DC.B	$1D,$C0
    392  a3e8		       75 90		      DC.B	$75,$90
    393  a3ea		       15 00		      DC.B	$15,$00
    394  a3ec		       50 14		      DC.B	$50,$14
    395  a3ee		       01 40		      DC.B	$1,$40
    396  a3f0		       01 40		      DC.B	$1,$40
    397  a3f2		       00 50		      DC.B	0,$50
    398  a3f4		       55 50		      DC.B	$55,$50
    399  a3f6		       00 50		      DC.B	0,$50
    400  a3f8		       50 50		      DC.B	$50,$50
    401  a3fa		       01 40		      DC.B	$1,$40
    402  a3fc		       50 50		      DC.B	$50,$50
    403  a3fe		       01 40		      DC.B	$1,$40
    404  a400							;   DC.B      0,0
    405  a400							;   DC.B      0,0
    406  a400
    407  a400
    408  a400
    409  a400
    410  a400
    411  a400					      ORG	$A400	;		    ; 8 TH LINE
    412  a400		       00 0a ac 	      DC.B	0,$0A,$AC
    413  a403		       02 80		      DC.B	$02,$80
    414  a405		       02 00		      DC.B	$02,0
    415  a407		       88 54		      DC.B	$88,$54
    416  a409		       00 40		      DC.B	$00,$40
    417  a40b		       15 10		      DC.B	$15,$10
    418  a40d		       d2 87		      DC.B	$D2,$87
    419  a40f		       04 54		      DC.B	$04,$54
    420  a411		       15 00		      DC.B	$15,$00
    421  a413		       15 22		      DC.B	$15,$22
    422  a415		       00 80		      DC.B	$00,$80
    423  a417		       00 00 00 	      DC.B	0,0,0
    424  a41a		       00 0c 00 	      DC.B	0,$0C,0
    425  a41d		       00 c0 00 	      DC.B	0,$C0,0
    426  a420		       00 0c 10 	      DC.B	0,$0C,$10
    427  a423		       02 00 00 	      DC.B	2,0,0
    428  a426		       08 00 00 	      DC.B	8,0,0
    429  a429		       80 00 00 	      DC.B	$80,0,0
    430  a42c		       53 14		      DC.B	$53,$14
    431  a42e		       29 50		      DC.B	$29,$50
    432  a430		       05 a0		      DC.B	$05,$A0
    433  a432		       1a 3c		      DC.B	$1A,$3C
    434  a434		       a2 28		      DC.B	$A2,$28
    435  a436		       f2 90		      DC.B	$F2,$90
    436  a438		       29 40		      DC.B	$29,$40
    437  a43a		       15 a0		      DC.B	$15,$A0
    438  a43c		       a0 82 a0 08*	      DC.B	$A0,$82,$A0,$08,$0A,$A0,$A8,$2A,$A0
    439  a445		       aa 00		      DC.B	$AA,$00
    440  a447		       aa 80		      DC.B	$AA,$80
    441  a449		       aa 8a a8 08*	      DC.B	$AA,$8A,$A8,$08,$0A,$A8,$AA,$80
    442  a451		       a2 8a a0 08*	      DC.B	$A2,$8A,$A0,$08,$0A,$28,$A0,$82,$A0,$AA,$8A,$A0
    443  a45d		       aa 8a 28 a0*	      DC.B	$AA,$8A,$28,$A0,$0A,$A8,$A2,$82,$80
    444  a466		       00 00 00 00	      DC.B	0,0,0,0
    445  a46a		       00 00 00 00	      DC.B	0,0,0,0
    446  a46e		       00 03 00 00	      DC.B	0,3,0,0
    447  a472		       00 01 00 00	      DC.B	0,1,0,0
    448  a476		       00 0d c0 00	      DC.B	0,$0D,$C0,0
    449  a47a		       00 3d f0 00	      DC.B	0,$3D,$F0,0
    450  a47e		       03 dd df 00	      DC.B	$03,$DD,$DF,$00
    451  a482		       8a dd de a8	      DC.B	$8A,$DD,$DE,$A8
    452  a486		       00 00 00 00*	      DC.B	0,0,0,0,0
    453  a48b		       00		      DC.B	0
    454  a48c		       00 00 00 00	      DC.B	0,0,0,0
    455  a490		       00 00 00 00	      DC.B	0,0,0,0
    456  a494		       00 00 00 00	      DC.B	0,0,0,0
    457  a498		       00 00 00 00	      DC.B	0,0,0,0
    458  a49c		       00 00		      DC.B	0,0
    459  a49e		       a3 28		      DC.B	$A3,$28
    460  a4a0		       23 20		      DC.B	$23,$20
    461  a4a2		       f1 3c		      DC.B	$F1,$3C
    462  a4a4		       35 70		      DC.B	$35,$70
    463  a4a6		       52 14		      DC.B	$52,$14
    464  a4a8		       52 14		      DC.B	$52,$14
    465  a4aa		       f7 dc		      DC.B	$F7,$DC
    466  a4ac		       f7 f0		      DC.B	$F7,$F0
    467  a4ae		       3c 00		      DC.B	$3C,0
    468  a4b0		       3c fc		      DC.B	$3C,$FC
    469  a4b2		       03 00		      DC.B	3,0
    470  a4b4		       fc f0		      DC.B	$FC,$F0
    471  a4b6		       00 f0		      DC.B	0,$F0
    472  a4b8		       3f 7c		      DC.B	$3F,$7C
    473  a4ba		       02 00 08 00	      DC.B	2,0,8,0
    474  a4be		       03 00		      DC.B	3,0
    475  a4c0		       00 00		      DC.B	0,0
    476  a4c2		       02 a0		      DC.B	$02,$A0
    477  a4c4		       2a 84		      DC.B	$2A,$84
    478  a4c6		       ae 50		      DC.B	$AE,$50
    479  a4c8		       05 40		      DC.B	$05,$40
    480  a4ca		       16 e8		      DC.B	$16,$E8
    481  a4cc		       4a a0		      DC.B	$4A,$A0
    482  a4ce		       2a 00		      DC.B	$2A,$00
    483  a4d0		       03 f0		      DC.B	$03,$F0
    484  a4d2		       ff f4		      DC.B	$FF,$F4
    485  a4d4		       ff b4		      DC.B	$FF,$B4
    486  a4d6		       fa bc		      DC.B	$FA,$BC
    487  a4d8		       7b fc		      DC.B	$7B,$FC
    488  a4da		       6f fc		      DC.B	$6F,$FC
    489  a4dc		       3f 00		      DC.B	$3F,$00
    490  a4de		       00 50		      DC.B	$00,$50
    491  a4e0		       01 c0		      DC.B	$01,$C0
    492  a4e2		       17 f4		      DC.B	$17,$F4
    493  a4e4		       1f 40		      DC.B	$1F,$40
    494  a4e6		       7f 50		      DC.B	$7F,$50
    495  a4e8		       34 00		      DC.B	$34,$00
    496  a4ea		       14 00		      DC.B	$14,$00
    497  a4ec		       50 14		      DC.B	$50,$14
    498  a4ee		       01 40		      DC.B	$1,$40
    499  a4f0		       00 40		      DC.B	$0,$40
    500  a4f2		       05 50		      DC.B	$5,$50
    501  a4f4		       50 40		      DC.B	$50,$40
    502  a4f6		       55 50		      DC.B	$55,$50
    503  a4f8		       50 50		      DC.B	$50,$50
    504  a4fa		       01 40		      DC.B	$1,$40
    505  a4fc		       55 50		      DC.B	$55,$50
    506  a4fe		       55 50		      DC.B	$55,$50
    507  a500							;   DC.B      0,0
    508  a500							;   DC.B      0,0
    509  a500
    510  a500
    511  a500
    512  a500
    513  a500					      ORG	$A500	;		    ; 7 TH LINE
    514  a500		       03 aa 80 	      DC.B	3,$AA,$80
    515  a503		       82 80		      DC.B	$82,$80
    516  a505		       02 80		      DC.B	$02,$80
    517  a507		       0a 55		      DC.B	$0A,$55
    518  a509		       0a a1		      DC.B	$0A,$A1
    519  a50b		       14 a4		      DC.B	$14,$A4
    520  a50d		       d2 87		      DC.B	$D2,$87
    521  a50f		       1a 14		      DC.B	$1A,$14
    522  a511		       01 00		      DC.B	$01,$00
    523  a513		       55 a0		      DC.B	$55,$A0
    524  a515		       02 80		      DC.B	$02,$80
    525  a517		       00 0f 80 	      DC.B	0,$0F,$80
    526  a51a		       00 30 00 	      DC.B	0,$30,0
    527  a51d		       00 0c 40 	      DC.B	0,$0C,$40
    528  a520		       00 80 00 	      DC.B	0,$80,0
    529  a523		       00 00 00 	      DC.B	0,0,0
    530  a526		       00 00 00 	      DC.B	0,0,0
    531  a529		       00 00 00 	      DC.B	0,0,0
    532  a52c		       56 54		      DC.B	$56,$54
    533  a52e		       0a 68		      DC.B	$0A,$68
    534  a530		       01 8c		      DC.B	$01,$8C
    535  a532		       56 80		      DC.B	$56,$80
    536  a534		       aa a8		      DC.B	$AA,$A8
    537  a536		       0a 54		      DC.B	$0A,$54
    538  a538		       c9 00		      DC.B	$C9,$00
    539  a53a		       a6 80		      DC.B	$A6,$80
    540  a53c		       a2 8a a8 2a*	      DC.B	$A2,$8A,$A8,$2A,$02,$82,$AA,$2A,$A0
    541  a545		       aa 00		      DC.B	$AA,$00
    542  a547		       aa 80		      DC.B	$AA,$80
    543  a549		       aa 8a a8 2a*	      DC.B	$AA,$8A,$A8,$2A,$0A,$A8,$AA,$80
    544  a551		       a2 8a a8 2a*	      DC.B	$A2,$8A,$A8,$2A,$0A,$28,$A2,$8A,$A8,$AA,$8A,$A8
    545  a55d		       aa 8a 28 a0*	      DC.B	$AA,$8A,$28,$A0,$0A,$A8,$A2,$82,$80
    546  a566		       00 01 00 00	      DC.B	0,1,0,0
    547  a56a		       00 03 00 00	      DC.B	0,3,0,0
    548  a56e		       00 0d c0 00	      DC.B	0,$0D,$C0,0
    549  a572		       00 0d c0 00	      DC.B	0,$0D,$C0,0
    550  a576		       00 35 70 00	      DC.B	0,$35,$70,0
    551  a57a		       00 f5 7c 00	      DC.B	$00,$F5,$7C,$00
    552  a57e		       0f 75 77 c0	      DC.B	$0F,$75,$77,$C0
    553  a582		       bf f7 77 f8	      DC.B	$BF,$F7,$77,$F8
    554  a586		       55 55 55 55*	      DC.B	$55,$55,$55,$55,$55
    555  a58b		       55		      DC.B	$55
    556  a58c		       8a 8a 8a 80	      DC.B	$8A,$8A,$8A,$80
    557  a590		       8a 8a 8a 80	      DC.B	$8A,$8A,$8A,$80
    558  a594		       a8 a8 a8 00	      DC.B	$A8,$A8,$A8,$00
    559  a598		       08 a8 a8 00	      DC.B	$08,$A8,$A8,$00
    560  a59c		       f0 fc		      DC.B	$F0,$FC
    561  a59e		       a5 68		      DC.B	$A5,$68
    562  a5a0		       25 e0		      DC.B	$25,$E0
    563  a5a2		       f5 7c		      DC.B	$F5,$7C
    564  a5a4		       35 70		      DC.B	$35,$70
    565  a5a6		       53 14		      DC.B	$53,$14
    566  a5a8		       53 14		      DC.B	$53,$14
    567  a5aa		       f7 dc		      DC.B	$F7,$DC
    568  a5ac		       3d f0		      DC.B	$3D,$F0
    569  a5ae		       af c0		      DC.B	$AF,$C0
    570  a5b0		       f7 f0		      DC.B	$F7,$F0
    571  a5b2		       07 40		      DC.B	$7,$40
    572  a5b4		       3f 7c		      DC.B	$3F,$7C
    573  a5b6		       0f e8		      DC.B	$0F,$E8
    574  a5b8		       3d f0		      DC.B	$3D,$F0
    575  a5ba		       02 00 08 00	      DC.B	2,0,8,0
    576  a5be		       0a 80		      DC.B	$0A,$80
    577  a5c0		       00 00		      DC.B	0,0
    578  a5c2		       21 a0		      DC.B	$21,$A0
    579  a5c4		       07 d8		      DC.B	$07,$D8
    580  a5c6		       a7 5c		      DC.B	$A7,$5C
    581  a5c8		       21 20		      DC.B	$21,$20
    582  a5ca		       d7 68		      DC.B	$D7,$68
    583  a5cc		       9f 40		      DC.B	$9F,$40
    584  a5ce		       29 20		      DC.B	$29,$20
    585  a5d0		       04 f0		      DC.B	$04,$F0
    586  a5d2		       05 f4		      DC.B	$05,$F4
    587  a5d4		       f5 b4		      DC.B	$F5,$B4
    588  a5d6		       3e f0		      DC.B	$3E,$F0
    589  a5d8		       79 7c		      DC.B	$79,$7C
    590  a5da		       6d 40		      DC.B	$6D,$40
    591  a5dc		       3c 40		      DC.B	$3C,$40
    592  a5de		       40 74		      DC.B	$40,$74
    593  a5e0		       0f d0		      DC.B	$0F,$D0
    594  a5e2		       55 f4		      DC.B	$55,$F4
    595  a5e4		       25 80		      DC.B	$25,$80
    596  a5e6		       7d f4		      DC.B	$7D,$F4
    597  a5e8		       7f 00		      DC.B	$7F,$00
    598  a5ea		       74 04		      DC.B	$74,$04
    599  a5ec		       50 14		      DC.B	$50,$14
    600  a5ee		       01 40		      DC.B	$1,$40
    601  a5f0		       00 50		      DC.B	0,$50
    602  a5f2		       05 50		      DC.B	$5,$50
    603  a5f4		       14 40		      DC.B	$14,$40
    604  a5f6		       55 40		      DC.B	$55,$40
    605  a5f8		       55 40		      DC.B	$55,$40
    606  a5fa		       00 40		      DC.B	$0,$40
    607  a5fc		       55 50		      DC.B	$55,$50
    608  a5fe		       50 50		      DC.B	$50,$50
    609  a600							;   DC.B      0,0
    610  a600
    611  a600
    612  a600
    613  a600
    614  a600
    615  a600
    616  a600					      ORG	$A600	;		    ; 6 TH LINE
    617  a600		       00 8a a0 	      DC.B	0,$8A,$A0
    618  a603		       a2 80		      DC.B	$A2,$80
    619  a605		       02 80		      DC.B	$02,$80
    620  a607		       0a 85		      DC.B	$0A,$85
    621  a609		       2a a8		      DC.B	$2A,$A8
    622  a60b		       06 a1		      DC.B	$06,$A1
    623  a60d		       1a 94		      DC.B	$1A,$94
    624  a60f		       4a 90		      DC.B	$4A,$90
    625  a611		       4a a0		      DC.B	$4A,$A0
    626  a613		       52 a0		      DC.B	$52,$A0
    627  a615		       02 80		      DC.B	$02,$80
    628  a617		       00 3f 00 	      DC.B	0,$3F,0
    629  a61a		       00 c1 00 	      DC.B	0,$C1,0
    630  a61d		       03 20 00 	      DC.B	3,$20,0
    631  a620		       00 00 00 	      DC.B	0,0,0
    632  a623		       00 00 80 	      DC.B	0,0,$80
    633  a626		       00 00 20 	      DC.B	0,0,$20
    634  a629		       00 00 00 	      DC.B	0,0,0
    635  a62c		       56 54		      DC.B	$56,$54
    636  a62e		       56 a8		      DC.B	$56,$A8
    637  a630		       aa bc		      DC.B	$AA,$BC
    638  a632		       56 a8		      DC.B	$56,$A8
    639  a634		       56 54		      DC.B	$56,$54
    640  a636		       aa 54		      DC.B	$AA,$54
    641  a638		       fa a8		      DC.B	$FA,$A8
    642  a63a		       aa 54		      DC.B	$AA,$54
    643  a63c		       aa 8a 28 aa*	      DC.B	$AA,$8A,$28,$AA,$82,$82,$8A,$28,$0
    644  a645		       28 00		      DC.B	$28,$00
    645  a647		       2a 00		      DC.B	$2A,$00
    646  a649		       a0 0a 00 aa*	      DC.B	$A0,$0A,$00,$AA,$8A,$00,$A0,$00
    647  a651		       aa 8a 28 aa*	      DC.B	$AA,$8A,$28,$AA,$8A,$A8,$AA,$8A,$28,$A0,$0A,$28
    648  a65d		       a0 0a a8 aa*	      DC.B	$A0,$0A,$A8,$AA,$0A,$00,$AA,$82,$80
    649  a666		       00 00 00 00	      DC.B	0,0,0,0
    650  a66a		       00 0d c0 00	      DC.B	0,$0D,$C0,0
    651  a66e		       00 35 70 00	      DC.B	0,$35,$70,0
    652  a672		       00 d5 5c 00	      DC.B	0,$D5,$5C,0
    653  a676		       03 d5 5f 00	      DC.B	3,$D5,$5F,0
    654  a67a		       0f d5 5f c0	      DC.B	$0F,$D5,$5F,$C0
    655  a67e		       3d 55 55 f0	      DC.B	$3D,$55,$55,$F0
    656  a682		       bf dd df f8	      DC.B	$BF,$DD,$DF,$F8
    657  a686		       00 00 00 00*	      DC.B	0,0,0,0,0
    658  a68b		       00		      DC.B	0
    659  a68c		       88 88 88 80	      DC.B	$88,$88,$88,$80
    660  a690		       88 88 88 80	      DC.B	$88,$88,$88,$80
    661  a694		       88 88 88 00	      DC.B	$88,$88,$88,$00
    662  a698		       08 88 88 00	      DC.B	$08,$88,$88,$00
    663  a69c		       cc c0		      DC.B	$CC,$C0
    664  a69e		       af e8		      DC.B	$AF,$E8
    665  a6a0		       2f e0		      DC.B	$2F,$E0
    666  a6a2		       f5 7c		      DC.B	$F5,$7C
    667  a6a4		       3e f0		      DC.B	$3E,$F0
    668  a6a6		       57 54		      DC.B	$57,$54
    669  a6a8		       57 54		      DC.B	$57,$54
    670  a6aa		       f7 dc		      DC.B	$F7,$DC
    671  a6ac		       0f 70		      DC.B	$0F,$70
    672  a6ae		       55 54		      DC.B	$55,$54
    673  a6b0		       df c0		      DC.B	$DF,$C0
    674  a6b2		       c7 cc		      DC.B	$C7,$CC
    675  a6b4		       0f dc		      DC.B	$0F,$DC
    676  a6b6		       55 54		      DC.B	$55,$54
    677  a6b8		       37 c0		      DC.B	$37,$C0
    678  a6ba		       02 00 08 00	      DC.B	2,0,8,0
    679  a6be		       02 00		      DC.B	2,0
    680  a6c0		       00 00		      DC.B	0,0
    681  a6c2		       29 e0		      DC.B	$29,$E0
    682  a6c4		       a7 54		      DC.B	$A7,$54
    683  a6c6		       81 e4		      DC.B	$81,$E4
    684  a6c8		       2f e0		      DC.B	$2F,$E0
    685  a6ca		       6d 08		      DC.B	$6D,$08
    686  a6cc		       57 68		      DC.B	$57,$68
    687  a6ce		       2d a0		      DC.B	$2D,$A0
    688  a6d0		       c5 7c		      DC.B	$C5,$7C
    689  a6d2		       95 f8		      DC.B	$95,$F8
    690  a6d4		       f5 6c		      DC.B	$F5,$6C
    691  a6d6		       35 70		      DC.B	$35,$70
    692  a6d8		       e5 3c		      DC.B	$E5,$3C
    693  a6da		       ad 58		      DC.B	$AD,$58
    694  a6dc		       f5 4c		      DC.B	$F5,$4C
    695  a6de		       a3 74		      DC.B	$A3,$74
    696  a6e0		       0f d0		      DC.B	$0F,$D0
    697  a6e2		       5b 7c		      DC.B	$5B,$7C
    698  a6e4		       50 50		      DC.B	$50,$50
    699  a6e6		       57 94		      DC.B	$57,$94
    700  a6e8		       7f 00		      DC.B	$7F,$00
    701  a6ea		       77 28		      DC.B	$77,$28
    702  a6ec		       50 14		      DC.B	$50,$14
    703  a6ee		       01 40		      DC.B	$1,$40
    704  a6f0		       50 50		      DC.B	$50,$50
    705  a6f2		       00 50		      DC.B	0,$50
    706  a6f4		       15 40		      DC.B	$15,$40
    707  a6f6		       50 00		      DC.B	$50,0
    708  a6f8		       50 00		      DC.B	$50,0
    709  a6fa		       40 50		      DC.B	$40,$50
    710  a6fc		       50 50		      DC.B	$50,$50
    711  a6fe		       50 50		      DC.B	$50,$50
    712  a700							;   DC.B      0,0
    713  a700
    714  a700
    715  a700
    716  a700
    717  a700
    718  a700					      ORG	$A700	;		    ; 5 TH LINE
    719  a700		       00 0a 80 	      DC.B	0,$0A,$80
    720  a703		       28 00		      DC.B	$28,0
    721  a705		       1a 94		      DC.B	$1A,$94
    722  a707		       06 a1		      DC.B	$06,$A1
    723  a709		       8a a1		      DC.B	$8A,$A1
    724  a70b		       0a 85		      DC.B	$0A,$85
    725  a70d		       02 80		      DC.B	$02,$80
    726  a70f		       52 a0		      DC.B	$52,$A0
    727  a711		       2a a8		      DC.B	$2A,$A8
    728  a713		       4a 90		      DC.B	$4A,$90
    729  a715		       1a 94		      DC.B	$1A,$94
    730  a717		       00 0d c0 	      DC.B	0,$0D,$C0
    731  a71a		       00 0c 00 	      DC.B	0,$0C,0
    732  a71d		       00 03 00 	      DC.B	0,3,0
    733  a720		       0c 00 c0 	      DC.B	$0C,0,$C0
    734  a723		       30 c0 0c 	      DC.B	$30,$C0,$0C
    735  a726		       00 00 00 	      DC.B	0,0,0
    736  a729		       00 00 00 	      DC.B	0,0,0
    737  a72c		       aa a8		      DC.B	$AA,$A8
    738  a72e		       56 80		      DC.B	$56,$80
    739  a730		       0a 8c		      DC.B	$0A,$8C
    740  a732		       0a 68		      DC.B	$0A,$68
    741  a734		       56 54		      DC.B	$56,$54
    742  a736		       a6 80		      DC.B	$A6,$80
    743  a738		       c9 00		      DC.B	$C9,$00
    744  a73a		       0a 54		      DC.B	$0A,$54
    745  a73c		       aa 8a 28 a2*	      DC.B	$AA,$8A,$28,$A2,$82,$82,$80,$2A,$80
    746  a745		       28 00		      DC.B	$28,$00
    747  a747		       0a 80		      DC.B	$0A,$80
    748  a749		       a0 0a a0 a2*	      DC.B	$A0,$0A,$A0,$A2,$8A,$A0,$A0,$00
    749  a751		       aa 8a 28 a2*	      DC.B	$AA,$8A,$28,$A2,$8A,$A8,$AA,$8A,$00,$AA,$0A,$28
    750  a75d		       aa 02 a0 aa*	      DC.B	$AA,$02,$A0,$AA,$8A,$A0,$AA,$02,$80
    751  a766		       00 00 00 00	      DC.B	0,0,0,0
    752  a76a		       00 03 00 00	      DC.B	0,3,0,0
    753  a76e		       00 0d c0 00	      DC.B	0,$0D,$C0,0
    754  a772		       00 0d c0 00	      DC.B	0,$0D,$C0,0
    755  a776		       00 35 70 00	      DC.B	0,$35,$70,0
    756  a77a		       00 f5 7c 00	      DC.B	0,$F5,$7C,0
    757  a77e		       0f 75 77 c0	      DC.B	$0F,$75,$77,$C0
    758  a782		       aa f7 76 a8	      DC.B	$AA,$F7,$76,$A8
    759  a786		       3f ff ff ff*	      DC.B	$3F,$FF,$FF,$FF,$FF
    760  a78b		       fc		      DC.B	$FC
    761  a78c		       8a 88 88 80	      DC.B	$8A,$88,$88,$80
    762  a790		       88 88 88 80	      DC.B	$88,$88,$88,$80
    763  a794		       a8 88 88 00	      DC.B	$A8,$88,$88,$00
    764  a798		       a8 88 88 00	      DC.B	$A8,$88,$88,$00
    765  a79c		       cc c0		      DC.B	$CC,$C0
    766  a79e		       2f e0		      DC.B	$2F,$E0
    767  a7a0		       2e e0		      DC.B	$2E,$E0
    768  a7a2		       3e f0		      DC.B	$3E,$F0
    769  a7a4		       3e f0		      DC.B	$3E,$F0
    770  a7a6		       27 60		      DC.B	$27,$60
    771  a7a8		       17 50		      DC.B	$17,$50
    772  a7aa		       c7 cc		      DC.B	$C7,$CC
    773  a7ac		       df c0		      DC.B	$DF,$C0
    774  a7ae		       ff fc		      DC.B	$FF,$FC
    775  a7b0		       0f 70		      DC.B	$0F,$70
    776  a7b2		       f7 dc		      DC.B	$F7,$DC
    777  a7b4		       37 c0		      DC.B	$37,$C0
    778  a7b6		       ff fc		      DC.B	$FF,$FC
    779  a7b8		       0f dc		      DC.B	$F,$DC
    780  a7ba		       02 00 08 00	      DC.B	2,0,8,0
    781  a7be		       02 00		      DC.B	2,0
    782  a7c0		       00 00		      DC.B	0,0
    783  a7c2		       81 e4		      DC.B	$81,$E4
    784  a7c4		       a7 54		      DC.B	$A7,$54
    785  a7c6		       29 e0		      DC.B	$29,$E0
    786  a7c8		       af e8		      DC.B	$AF,$E8
    787  a7ca		       2d a0		      DC.B	$2D,$A0
    788  a7cc		       57 68		      DC.B	$57,$68
    789  a7ce		       6d 88		      DC.B	$6D,$88
    790  a7d0		       f5 6c		      DC.B	$F5,$6C
    791  a7d2		       95 f8		      DC.B	$95,$F8
    792  a7d4		       c5 7c		      DC.B	$C5,$7C
    793  a7d6		       75 7c		      DC.B	$75,$7C
    794  a7d8		       f5 4c		      DC.B	$F5,$4C
    795  a7da		       ad 58		      DC.B	$AD,$58
    796  a7dc		       e5 7c		      DC.B	$E5,$7C
    797  a7de		       5b 7c		      DC.B	$5B,$7C
    798  a7e0		       01 c0		      DC.B	$01,$C0
    799  a7e2		       a3 74		      DC.B	$A3,$74
    800  a7e4		       50 50		      DC.B	$50,$50
    801  a7e6		       77 28		      DC.B	$77,$28
    802  a7e8		       34 00		      DC.B	$34,$00
    803  a7ea		       57 94		      DC.B	$57,$94
    804  a7ec		       54 54		      DC.B	$54,$54
    805  a7ee		       01 40		      DC.B	$1,$40
    806  a7f0		       50 50		      DC.B	$50,$50
    807  a7f2		       40 50		      DC.B	$40,$50
    808  a7f4		       05 40		      DC.B	$5,$40
    809  a7f6		       50 00		      DC.B	$50,$0
    810  a7f8		       50 10		      DC.B	$50,$10
    811  a7fa		       50 50		      DC.B	$50,$50
    812  a7fc		       50 50		      DC.B	$50,$50
    813  a7fe		       50 50		      DC.B	$50,$50
    814  a800							;   DC.B      0,0
    815  a800
    816  a800
    817  a800
    818  a800					      ORG	$A800	;		    ; 4 TH LINE
    819  a800		       00 e8 b0 	      DC.B	$00,$E8,$B0
    820  a803		       0a 00		      DC.B	$0A,0
    821  a805		       d2 87		      DC.B	$D2,$87
    822  a807		       14 a4		      DC.B	$14,$A4
    823  a809		       80 40		      DC.B	$80,$40
    824  a80b		       0a 55		      DC.B	$0A,$55
    825  a80d		       02 80		      DC.B	$02,$80
    826  a80f		       55 a0		      DC.B	$55,$A0
    827  a811		       4a a2		      DC.B	$4A,$A2
    828  a813		       1a 14		      DC.B	$1A,$14
    829  a815		       5e d4		      DC.B	$5E,$D4
    830  a817		       00 0c c0 	      DC.B	0,$0C,$C0
    831  a81a		       00 c3 00 	      DC.B	0,$C3,0
    832  a81d		       00 4c 00 	      DC.B	0,$4C,0
    833  a820		       00 30 00 	      DC.B	0,$30,0
    834  a823		       00 00 00 	      DC.B	0,0,0
    835  a826		       03 00 00 	      DC.B	3,0,0
    836  a829		       00 00 00 	      DC.B	0,0,0
    837  a82c		       a2 28		      DC.B	$A2,$28
    838  a82e		       1a 3c		      DC.B	$1A,$3C
    839  a830		       05 a0		      DC.B	$05,$A0
    840  a832		       29 50		      DC.B	$29,$50
    841  a834		       53 14		      DC.B	$53,$14
    842  a836		       15 a0		      DC.B	$15,$A0
    843  a838		       29 40		      DC.B	$29,$40
    844  a83a		       f2 90		      DC.B	$F2,$90
    845  a83c		       aa 8a 28 a2*	      DC.B	$AA,$8A,$28,$A2,$82,$82,$80,$2A,$80
    846  a845		       28 00		      DC.B	$28,$00
    847  a847		       a2 80		      DC.B	$A2,$80
    848  a849		       a0 0a a0 a2*	      DC.B	$A0,$0A,$A0,$A2,$8A,$A0,$A0,$00
    849  a851		       a2 8a 28 a2*	      DC.B	$A2,$8A,$28,$A2,$8A,$28,$AA,$8A,$00,$AA,$0A,$28
    850  a85d		       aa 02 a0 a2*	      DC.B	$AA,$02,$A0,$A2,$8A,$A0,$A2,$82,$80
    851  a866		       00 00 00 00	      DC.B	0,0,0,0
    852  a86a		       00 00 00 00	      DC.B	0,0,0,0
    853  a86e		       00 03 00 00	      DC.B	0,3,0,0
    854  a872		       00 01 00 00	      DC.B	0,1,0,0
    855  a876		       00 0d c0 00	      DC.B	0,$0D,$C0,0
    856  a87a		       00 3d f0 00	      DC.B	0,$3D,$F0,0
    857  a87e		       03 dd df 00	      DC.B	$03,$DD,$DF,$00
    858  a882		       ab dd df a8	      DC.B	$AB,$DD,$DF,$A8
    859  a886		       00 00 00 00*	      DC.B	0,0,0,0,0
    860  a88b		       00		      DC.B	0
    861  a88c		       88 08 88 80	      DC.B	$88,$08,$88,$80
    862  a890		       88 88 88 80	      DC.B	$88,$88,$88,$80
    863  a894		       88 88 88 00	      DC.B	$88,$88,$88,$00
    864  a898		       88 88 88 00	      DC.B	$88,$88,$88,$00
    865  a89c		       f0 fc		      DC.B	$F0,$FC
    866  a89e		       21 20		      DC.B	$21,$20
    867  a8a0		       21 20		      DC.B	$21,$20
    868  a8a2		       3e f0		      DC.B	$3E,$F0
    869  a8a4		       3a b0		      DC.B	$3A,$B0
    870  a8a6		       1f d0		      DC.B	$1F,$D0
    871  a8a8		       1f d0		      DC.B	$1F,$D0
    872  a8aa		       07 40		      DC.B	$07,$40
    873  a8ac		       f7 f0		      DC.B	$F7,$F0
    874  a8ae		       af c0		      DC.B	$AF,$C0
    875  a8b0		       3d f0		      DC.B	$3D,$F0
    876  a8b2		       f7 dc		      DC.B	$F7,$DC
    877  a8b4		       3d f0		      DC.B	$3D,$F0
    878  a8b6		       0f e8		      DC.B	$0F,$E8
    879  a8b8		       3f 7c		      DC.B	$3F,$7C
    880  a8ba		       02 00 08 00	      DC.B	$02,$00,$08,$00	; $A,$80,$2A,0
    881  a8be		       02 00		      DC.B	2,0
    882  a8c0		       00 00		      DC.B	0,0
    883  a8c2		       a7 5c		      DC.B	$A7,$5C
    884  a8c4		       07 d8		      DC.B	$07,$D8
    885  a8c6		       21 a0		      DC.B	$21,$A0
    886  a8c8		       a5 68		      DC.B	$A5,$68
    887  a8ca		       29 20		      DC.B	$29,$20
    888  a8cc		       9f 40		      DC.B	$9F,$40
    889  a8ce		       d7 68		      DC.B	$D7,$68
    890  a8d0		       f5 b4		      DC.B	$F5,$B4
    891  a8d2		       05 f4		      DC.B	$05,$F4
    892  a8d4		       04 f0		      DC.B	$04,$F0
    893  a8d6		       f1 3c		      DC.B	$F1,$3C
    894  a8d8		       3c 40		      DC.B	$3C,$40
    895  a8da		       6d 40		      DC.B	$6D,$40
    896  a8dc		       79 7c		      DC.B	$79,$7C
    897  a8de		       55 f4		      DC.B	$55,$F4
    898  a8e0		       65 d0		      DC.B	$65,$D0
    899  a8e2		       40 74		      DC.B	$40,$74
    900  a8e4		       50 50		      DC.B	$50,$50
    901  a8e6		       74 04		      DC.B	$74,$04
    902  a8e8		       75 90		      DC.B	$75,$90
    903  a8ea		       7d 54		      DC.B	$7D,$54
    904  a8ec		       15 50		      DC.B	$15,$50
    905  a8ee		       05 40		      DC.B	$05,$40
    906  a8f0		       55 50		      DC.B	$55,$50
    907  a8f2		       55 50		      DC.B	$55,$50
    908  a8f4		       01 40		      DC.B	$1,$40
    909  a8f6		       55 50		      DC.B	$55,$50
    910  a8f8		       55 50		      DC.B	$55,$50
    911  a8fa		       55 50		      DC.B	$55,$50
    912  a8fc		       55 50		      DC.B	$55,$50
    913  a8fe		       55 50		      DC.B	$55,$50
    914  a900							;   DC.B      0,0
    915  a900
    916  a900
    917  a900
    918  a900					      ORG	$A900	;		    ; THIRD LINE
    919  a900		       00 0c 00 	      DC.B	0,$C,0
    920  a903		       a2 80		      DC.B	$A2,$80
    921  a905		       d2 87		      DC.B	$D2,$87
    922  a907		       15 10		      DC.B	$15,$10
    923  a909		       20 54		      DC.B	$20,$54
    924  a90b		       88 54		      DC.B	$88,$54
    925  a90d		       02 00		      DC.B	$02,$00
    926  a90f		       15 22		      DC.B	$15,$22
    927  a911		       01 02		      DC.B	$01,$02
    928  a913		       04 54		      DC.B	$04,$54
    929  a915		       5e d4		      DC.B	$5E,$D4
    930  a917		       00 00 00 	      DC.B	0,0,0
    931  a91a		       00 00 00 	      DC.B	0,0,0
    932  a91d		       00 00 c0 	      DC.B	0,0,$C0
    933  a920		       01 02 30 	      DC.B	1,2,$30
    934  a923		       00 03 00 	      DC.B	0,3,0
    935  a926		       00 00 c0 	      DC.B	0,0,$C0
    936  a929		       0c 00 00 	      DC.B	$0C,0,0
    937  a92c		       0e c0		      DC.B	$0E,$C0
    938  a92e		       0a 3c		      DC.B	$0A,$3C
    939  a930		       15 a0		      DC.B	$15,$A0
    940  a932		       a1 40		      DC.B	$A1,$40
    941  a934		       43 04		      DC.B	$43,$04
    942  a936		       05 28		      DC.B	$05,$28
    943  a938		       29 50		      DC.B	$29,$50
    944  a93a		       f2 80		      DC.B	$F2,$80
    945  a93c		       aa 8a 28 a2*	      DC.B	$AA,$8A,$28,$A2,$82,$82,$8A,$28,$0
    946  a945		       a8 00		      DC.B	$A8,$00
    947  a947		       a2 80		      DC.B	$A2,$80
    948  a949		       a0 0a 00 a2*	      DC.B	$A0,$0A,$00,$A2,$8A,$00,$A0,$00
    949  a951		       a2 8a 28 a2*	      DC.B	$A2,$8A,$28,$A2,$8A,$28,$AA,$8A,$28,$A0,$0A,$28
    950  a95d		       a0 0a a8 a2*	      DC.B	$A0,$0A,$A8,$A2,$8A,$00,$A2,$82,$80
    951  a966		       00 00 00 00	      DC.B	0,0,0,0
    952  a96a		       00 00 00 00	      DC.B	0,0,0,0
    953  a96e		       00 00 00 00	      DC.B	0,0,0,0
    954  a972		       00 03 00 00	      DC.B	0,3,0,0
    955  a976		       00 03 00 00	      DC.B	0,3,0,0
    956  a97a		       00 0f c0 00	      DC.B	0,$0F,$C0,0
    957  a97e		       00 f5 7c 00	      DC.B	0,$F5,$7C,0
    958  a982		       af ef ef e8	      DC.B	$AF,$EF,$EF,$E8
    959  a986		       2a aa aa aa*	      DC.B	$2A,$AA,$AA,$AA,$AA
    960  a98b		       a8		      DC.B	$A8
    961  a98c		       8a 8a 8a 80	      DC.B	$8A,$8A,$8A,$80
    962  a990		       8a 8a 8a 80	      DC.B	$8A,$8A,$8A,$80
    963  a994		       a8 a8 a8 00	      DC.B	$A8,$A8,$A8,$00
    964  a998		       88 a8 a8 00	      DC.B	$88,$A8,$A8,$00
    965  a99c		       00 00		      DC.B	0,0
    966  a99e		       05 40		      DC.B	$05,$40
    967  a9a0		       05 40		      DC.B	$05,$40
    968  a9a2		       fa bc		      DC.B	$FA,$BC
    969  a9a4		       3d f0		      DC.B	$3D,$F0
    970  a9a6		       5c d4		      DC.B	$5C,$D4
    971  a9a8		       5c d4		      DC.B	$5C,$D4
    972  a9aa		       03 00		      DC.B	$03,$00
    973  a9ac		       3c fc		      DC.B	$3C,$FC
    974  a9ae		       3c 00		      DC.B	$3C,0
    975  a9b0		       f7 f0		      DC.B	$F7,$F0
    976  a9b2		       f7 dc		      DC.B	$F7,$DC
    977  a9b4		       3f 7c		      DC.B	$3F,$7C
    978  a9b6		       00 f0		      DC.B	0,$F0
    979  a9b8		       fc f0		      DC.B	$FC,$F0
    980  a9ba		       03 00 0c 00	      DC.B	3,0,$0C,0
    981  a9be		       02 00		      DC.B	2,0
    982  a9c0		       00 00		      DC.B	0,0
    983  a9c2		       ae 50		      DC.B	$AE,$50
    984  a9c4		       2a 84		      DC.B	$2A,$84
    985  a9c6		       02 a0		      DC.B	$02,$A0
    986  a9c8		       a3 28		      DC.B	$A3,$28
    987  a9ca		       2a 00		      DC.B	$2A,$00
    988  a9cc		       4a a0		      DC.B	$4A,$A0
    989  a9ce		       16 e8		      DC.B	$16,$E8
    990  a9d0		       ff b4		      DC.B	$FF,$B4
    991  a9d2		       ff f4		      DC.B	$FF,$F4
    992  a9d4		       03 f0		      DC.B	$03,$F0
    993  a9d6		       f1 3c		      DC.B	$F1,$3C
    994  a9d8		       3f 00		      DC.B	$3F,$00
    995  a9da		       7b fc		      DC.B	$7B,$FC
    996  a9dc		       7b fc		      DC.B	$7B,$FC
    997  a9de		       17 f4		      DC.B	$17,$F4
    998  a9e0		       25 10		      DC.B	$25,$10
    999  a9e2		       01 50		      DC.B	$01,$50
   1000  a9e4		       a0 a0		      DC.B	$A0,$A0
   1001  a9e6		       16 00		      DC.B	$16,$00
   1002  a9e8		       45 80		      DC.B	$45,$80
   1003  a9ea		       7f 50		      DC.B	$7F,$50
   1004  a9ec		       05 40		      DC.B	$5,$40
   1005  a9ee		       05 40		      DC.B	$5,$40
   1006  a9f0		       15 40		      DC.B	$15,$40
   1007  a9f2		       55 40		      DC.B	$55,$40
   1008  a9f4		       00 40		      DC.B	$0,$40
   1009  a9f6		       55 50		      DC.B	$55,$50
   1010  a9f8		       15 40		      DC.B	$15,$40
   1011  a9fa		       15 50		      DC.B	$15,$50
   1012  a9fc		       15 40		      DC.B	$15,$40
   1013  a9fe		       15 40		      DC.B	$15,$40
   1014  aa00							;   DC.B      0,0
   1015  aa00							;   DC.B      0,0
   1016  aa00
   1017  aa00
   1018  aa00
   1019  aa00
   1020  aa00					      ORG	$AA00	;		    ; SECOND LINE
   1021  aa00		       00 00 00 	      DC.B	0,0,0
   1022  aa03		       a0 80		      DC.B	$A0,$80
   1023  aa05		       d3 c7		      DC.B	$D3,$C7
   1024  aa07		       05 40		      DC.B	$05,$40
   1025  aa09		       00 15		      DC.B	$00,$15
   1026  aa0b		       88 10		      DC.B	$88,$10
   1027  aa0d		       82 00		      DC.B	$82,$00
   1028  aa0f		       04 22		      DC.B	$04,$22
   1029  aa11		       15 08		      DC.B	$15,$08
   1030  aa13		       01 50		      DC.B	$01,$50
   1031  aa15		       52 14		      DC.B	$52,$14
   1032  aa17		       00 00 00 	      DC.B	0,0,0
   1033  aa1a		       00 00 00 	      DC.B	0,0,0
   1034  aa1d		       00 00 00 	      DC.B	0,0,0
   1035  aa20		       00 0c 00 	      DC.B	0,$0C,0
   1036  aa23		       0c 80 0c 	      DC.B	$0C,$80,$0C
   1037  aa26		       00 00 00 	      DC.B	0,0,0
   1038  aa29		       00 00 30 	      DC.B	0,0,$30
   1039  aa2c		       0f c0		      DC.B	$0F,$C0
   1040  aa2e		       02 30		      DC.B	$02,$30
   1041  aa30		       15 a0		      DC.B	$15,$A0
   1042  aa32		       81 00		      DC.B	$81,$00
   1043  aa34		       03 00		      DC.B	$03,$00
   1044  aa36		       01 08		      DC.B	$01,$08
   1045  aa38		       29 50		      DC.B	$29,$50
   1046  aa3a		       32 00		      DC.B	$32,$00
   1047  aa3c		       a2 8a a8 a2*	      DC.B	$A2,$8A,$A8,$A2,$82,$82,$AA,$2A,$A0
   1048  aa45		       a8 00		      DC.B	$A8,$00
   1049  aa47		       aa 80		      DC.B	$AA,$80
   1050  aa49		       a0 0a a8 a2*	      DC.B	$A0,$0A,$A8,$A2,$8A,$A8,$A0,$00
   1051  aa51		       aa 8a a8 a2*	      DC.B	$AA,$8A,$A8,$A2,$8A,$A8,$A2,$8A,$A8,$AA,$8A,$A8
   1052  aa5d		       aa 8a 28 aa*	      DC.B	$AA,$8A,$28,$AA,$8A,$A8,$AA,$8A,$A0
   1053  aa66		       00 00 00 00	      DC.B	0,0,0,0
   1054  aa6a		       00 00 00 00	      DC.B	0,0,0,0
   1055  aa6e		       00 00 00 00	      DC.B	0,0,0,0
   1056  aa72		       00 00 00 00	      DC.B	0,0,0,0
   1057  aa76		       00 03 00 00	      DC.B	0,3,0,0
   1058  aa7a		       00 03 00 00	      DC.B	0,3,0,0
   1059  aa7e		       00 3d f0 00	      DC.B	0,$3D,$F0,0
   1060  aa82		       2e af ca f0	      DC.B	$2E,$AF,$CA,$F0
   1061  aa86		       00 00 00 00*	      DC.B	0,0,0,0,0
   1062  aa8b		       00		      DC.B	0
   1063  aa8c		       00 00 00 00	      DC.B	0,0,0,0
   1064  aa90		       00 00 00 00	      DC.B	0,0,0,0
   1065  aa94		       00 00 00 00	      DC.B	0,0,0,0
   1066  aa98		       00 00 00 00	      DC.B	0,0,0,0
   1067  aa9c		       00 00		      DC.B	0,0
   1068  aa9e		       0d c0		      DC.B	$0D,$C0
   1069  aaa0		       0d c0		      DC.B	$0D,$C0
   1070  aaa2		       fd fc		      DC.B	$FD,$FC
   1071  aaa4		       34 70		      DC.B	$34,$70
   1072  aaa6		       04 40		      DC.B	$04,$40
   1073  aaa8		       08 80		      DC.B	$08,$80
   1074  aaaa		       03 00		      DC.B	$03,$00
   1075  aaac		       03 00		      DC.B	3,0
   1076  aaae		       0f 00		      DC.B	$0F,$00
   1077  aab0		       df 00		      DC.B	$DF,0
   1078  aab2		       33 c0		      DC.B	$33,$C0
   1079  aab4		       eb ac		      DC.B	$EB,$AC
   1080  aab6		       0f 30		      DC.B	$0F,$30
   1081  aab8		       01 5c		      DC.B	$01,$5C
   1082  aaba		       00 00 00 00	      DC.B	0,0,0,0
   1083  aabe		       02 00		      DC.B	2,0
   1084  aac0		       00 00		      DC.B	0,0
   1085  aac2		       2a b0		      DC.B	$2A,$B0
   1086  aac4		       aa 80		      DC.B	$AA,$80
   1087  aac6		       0a 80		      DC.B	$0A,$80
   1088  aac8		       a3 28		      DC.B	$A3,$28
   1089  aaca		       0a 80		      DC.B	$0A,$80
   1090  aacc		       0a a8		      DC.B	$0A,$A8
   1091  aace		       3a a0		      DC.B	$3A,$A0
   1092  aad0		       3e c0		      DC.B	$3E,$C0
   1093  aad2		       3f fc		      DC.B	$3F,$FC
   1094  aad4		       0f f0		      DC.B	$0F,$F0
   1095  aad6		       f0 3c		      DC.B	$F0,$3C
   1096  aad8		       3f c0		      DC.B	$3F,$C0
   1097  aada		       f3 f0		      DC.B	$F3,$F0
   1098  aadc		       0e f0		      DC.B	$0E,$F0
   1099  aade		       0d d0		      DC.B	$0D,$D0
   1100  aae0		       00 00		      DC.B	0,0
   1101  aae2		       01 50		      DC.B	$01,$50
   1102  aae4		       60 90		      DC.B	$60,$90
   1103  aae6		       15 00		      DC.B	$15,$00
   1104  aae8		       00 00		      DC.B	0,0
   1105  aaea		       1d c0		      DC.B	$1D,$C0
   1106  aaec		       00 00		      DC.B	0,0
   1107  aaee		       00 00		      DC.B	0,0
   1108  aaf0		       00 00		      DC.B	0,0
   1109  aaf2		       00 00		      DC.B	0,0
   1110  aaf4		       00 00		      DC.B	0,0
   1111  aaf6		       00 00		      DC.B	0,0
   1112  aaf8		       00 00		      DC.B	0,0
   1113  aafa		       00 00		      DC.B	0,0
   1114  aafc		       00 00		      DC.B	0,0
   1115  aafe		       00 00		      DC.B	0,0
   1116  ab00							;   DC.B      0,0
   1117  ab00							;   DC.B      0,0
   1118  ab00							;   DC.B      0,0
   1119  ab00							;   DC.B      0,0
   1120  ab00							;   DC.B      0,0
   1121  ab00							;   DC.B      0,0
   1122  ab00							;   DC.B      0,0
   1123  ab00							;   DC.B      0,0
   1124  ab00							;   DC.B      0,0
   1125  ab00							;   DC.B      0,0
   1126  ab00							;   DC.B      0,0
   1127  ab00							;   DC.B      0,0
   1128  ab00							;   DC.B      0,0
   1129  ab00							;   DC.B      0,0
   1130  ab00
   1131  ab00
   1132  ab00
   1133  ab00					      ORG	$AB00	;		    ;FIRST LINE
   1134  ab00		       00 00 00 	      DC.B	0,0,0
   1135  ab03		       a0 00		      DC.B	$A0,0
   1136  ab05		       e4 1b		      DC.B	$E4,$1B
   1137  ab07		       02 40		      DC.B	$02,$40
   1138  ab09		       00 00		      DC.B	0,0
   1139  ab0b		       20 00		      DC.B	$20,0
   1140  ab0d		       28 00		      DC.B	$28,0
   1141  ab0f		       00 0a		      DC.B	0,$0A
   1142  ab11		       54 00		      DC.B	$54,0
   1143  ab13		       01 80		      DC.B	$01,$80
   1144  ab15		       44 44		      DC.B	$44,$44
   1145  ab17		       00 00 00 	      DC.B	0,0,0
   1146  ab1a		       00 00 00 	      DC.B	0,0,0
   1147  ab1d		       00 00 00 	      DC.B	0,0,0
   1148  ab20		       00 00 00 	      DC.B	0,0,0
   1149  ab23		       00 0c 10 	      DC.B	0,$0C,$10
   1150  ab26		       00 80 00 	      DC.B	0,$80,0
   1151  ab29		       00 00 00 	      DC.B	0,0,0
   1152  ab2c		       00 00		      DC.B	0,0
   1153  ab2e		       00 00		      DC.B	0,0
   1154  ab30		       00 00		      DC.B	0,0
   1155  ab32		       00 00		      DC.B	0,0
   1156  ab34		       03 00		      DC.B	$03,0
   1157  ab36		       00 00		      DC.B	0,0
   1158  ab38		       00 00		      DC.B	0,0
   1159  ab3a		       00 00		      DC.B	0,0
   1160  ab3c		       82 82 a0 a2*	      DC.B	$82,$82,$A0,$A2,$8A,$A0,$A8,$2A,$A0
   1161  ab45		       28 00		      DC.B	$28,$00
   1162  ab47		       2a 00		      DC.B	$2A,$00
   1163  ab49		       a0 0a a8 a2*	      DC.B	$A0,$0A,$A8,$A2,$8A,$A8,$A0,$00
   1164  ab51		       2a 0a a0 a2*	      DC.B	$2A,$0A,$A0,$A2,$82,$A0,$82,$82,$A0,$AA,$8A,$A0
   1165  ab5d		       aa 8a 28 aa*	      DC.B	$AA,$8A,$28,$AA,$0A,$A8,$AA,$0A,$A0
   1166  ab66		       00 00 00 00	      DC.B	0,0,0,0
   1167  ab6a		       00 00 00 00	      DC.B	0,0,0,0
   1168  ab6e		       00 00 00 00	      DC.B	0,0,0,0
   1169  ab72		       00 00 00 00	      DC.B	0,0,0,0
   1170  ab76		       00 00 00 00	      DC.B	0,0,0,0
   1171  ab7a		       00 03 00 00	      DC.B	0,3,0,0
   1172  ab7e		       00 0f c0 00	      DC.B	0,$0F,$C0,0
   1173  ab82		       02 af ea 88	      DC.B	$02,$AF,$EA,$88
   1174  ab86		       15 55 55 55*	      DC.B	$15,$55,$55,$55,$55
   1175  ab8b		       50		      DC.B	$50
   1176  ab8c		       00 00 00 00	      DC.B	0,0,0,0
   1177  ab90		       00 00 00 00	      DC.B	0,0,0,0
   1178  ab94		       00 00 00 00	      DC.B	0,0,0,0
   1179  ab98		       00 00 00 00	      DC.B	0,0,0,0
   1180  ab9c		       00 00		      DC.B	0,0
   1181  ab9e		       04 40		      DC.B	$04,$40
   1182  aba0		       04 40		      DC.B	$04,$40
   1183  aba2		       34 70		      DC.B	$34,$70
   1184  aba4		       04 40		      DC.B	$04,$40
   1185  aba6		       00 00		      DC.B	0,0
   1186  aba8		       04 40		      DC.B	$04,$40
   1187  abaa		       01 00		      DC.B	$01,$00
   1188  abac		       00 00		      DC.B	$0,0
   1189  abae		       ff 00		      DC.B	$FF,0
   1190  abb0		       03 00		      DC.B	$03,0
   1191  abb2		       cb 8c		      DC.B	$CB,$8C
   1192  abb4		       03 00		      DC.B	$03,0
   1193  abb6		       03 fc		      DC.B	$03,$FC
   1194  abb8		       00 00		      DC.B	0,0
   1195  abba		       00 00 00 00	      DC.B	0,0,0,0
   1196  abbe		       00 00		      DC.B	0,0
   1197  abc0		       03 00		      DC.B	3,0
   1198  abc2		       0a 10		      DC.B	$0A,$10
   1199  abc4		       a8 00		      DC.B	$A8,$00
   1200  abc6		       0a 00		      DC.B	$0A,$00
   1201  abc8		       80 08		      DC.B	$80,$08
   1202  abca		       02 80		      DC.B	$02,$80
   1203  abcc		       00 a8		      DC.B	$00,$A8
   1204  abce		       12 80		      DC.B	$12,$80
   1205  abd0		       0f 50		      DC.B	$0F,$50
   1206  abd2		       0f 30		      DC.B	$0F,$30
   1207  abd4		       0f c0		      DC.B	$0F,$C0
   1208  abd6		       30 30		      DC.B	$30,$30
   1209  abd8		       0f c0		      DC.B	$0F,$C0
   1210  abda		       33 c0		      DC.B	$33,$C0
   1211  abdc		       17 c0		      DC.B	$17,$C0
   1212  abde		       09 10		      DC.B	$09,$10
   1213  abe0		       00 00		      DC.B	$00,$00
   1214  abe2		       06 40		      DC.B	$06,$40
   1215  abe4		       10 40		      DC.B	$10,$40
   1216  abe6		       06 40		      DC.B	$06,$40
   1217  abe8		       00 00		      DC.B	$00,$00
   1218  abea		       11 80		      DC.B	$11,$80
   1219  abec
   1220  abec
   1221  ac00					      ORG	$AC00
   1222  ac00		       00 00 00    EXPLO7     DC.B	0,0,0
   1223  ac03		       00 00	   PERCENT    DC.B	0,0
   1224  ac05		       00 00	   SCORP0     DC.B	0,0
   1225  ac07		       00 00	   SCORP1     DC.B	0,0
   1226  ac09		       00 00	   SCORP2     DC.B	0,0
   1227  ac0b		       00 00	   SCORP3     DC.B	0,0
   1228  ac0d		       00 00	   SCORP4     DC.B	0,0
   1229  ac0f		       00 00	   SCORP5     DC.B	0,0
   1230  ac11		       00 00	   SCORP6     DC.B	0,0
   1231  ac13		       00 00	   SCORP7     DC.B	0,0
   1232  ac15		       00 00	   SCORPF     DC.B	0,0
   1233  ac17		       00 00 00    EXPLO6     DC.B	0,0,0
   1234  ac1a		       00 00 00    EXPLO5     DC.B	0,0,0
   1235  ac1d		       00 00 00    EXPLO4     DC.B	0,0,0
   1236  ac20		       00 00 00    EXPLO3     DC.B	0,0,0
   1237  ac23		       00 00 00    EXPLO2     DC.B	0,0,0
   1238  ac26		       00 00 00    EXPLO1     DC.B	0,0,0
   1239  ac29		       00 00 00    EXPLO0     DC.B	0,0,0
   1240  ac2c		       00 00	   NEWBIRD0   DC.B	0,0
   1241  ac2e		       00 00	   NEWBIRD1   DC.B	0,0
   1242  ac30		       00 00	   NEWBIRD2   DC.B	0,0
   1243  ac32		       00 00	   NEWBIRD3   DC.B	0,0
   1244  ac34		       00 00	   NEWBIRD4   DC.B	0,0
   1245  ac36		       00 00	   NEWBIRD5   DC.B	0,0
   1246  ac38		       00 00	   NEWBIRD6   DC.B	0,0
   1247  ac3a		       00 00	   NEWBIRD7   DC.B	0,0
   1248  ac3c		       00 00 00 00*NOVICE     DC.B	0,0,0,0,0,0,0,0,0
   1249  ac45		       00 00	   SONE       DC.B	0,0
   1250  ac47		       00 00	   STWO       DC.B	0,0
   1251  ac49		       00 00 00 00*LEVEL      DC.B	0,0,0,0,0,0,0,0
   1252  ac51		       00 00 00 00*ADVANCED   DC.B	0,0,0,0,0,0,0,0,0,0,0,0
   1253  ac5d		       00 00 00 00*EXPERT     DC.B	0,0,0,0,0,0,0,0,0
   1254  ac66		       00 00 00 00 TWINKLE    DC.B	0,0,0,0
   1255  ac6a		       00 00 00 00 TWINKL1    DC.B	0,0,0,0
   1256  ac6e		       00 00 00 00 TWINKL2    DC.B	0,0,0,0
   1257  ac72		       00 00 00 00 TWINKL3    DC.B	0,0,0,0
   1258  ac76		       00 00 00 00 TWINKL4    DC.B	0,0,0,0
   1259  ac7a		       00 00 00 00 TWINKL5    DC.B	0,0,0,0
   1260  ac7e		       00 00 00 00 TWINKL6    DC.B	0,0,0,0
   1261  ac82		       00 00 00 00 TWINKL7    DC.B	0,0,0,0
   1262  ac86		       00 00 00 00*LSHIELD    DC.B	0,0,0,0,0
   1263  ac8b		       00	   RSHIELD    DC.B	0
   1264  ac8c		       00 00 00 00 FOUTYPE    DC.B	0,0,0,0
   1265  ac90		       00 00 00 00 EIGTYPE    DC.B	0,0,0,0
   1266  ac94		       00 00 00 00 THOTYPE    DC.B	0,0,0,0
   1267  ac98		       00 00 00 00 SIXTYPE    DC.B	0,0,0,0
   1268  ac9c		       00 00	   SPECIAL    DC.B	0,0
   1269  ac9e		       00 00	   BLUBUG     DC.B	0,0
   1270  aca0		       00 00	   BLUBUGF    DC.B	0,0
   1271  aca2		       00 00	   REDBUG     DC.B	0,0
   1272  aca4		       00 00	   REDBUGF    DC.B	0,0
   1273  aca6		       00 00	   BOSGAL     DC.B	0,0
   1274  aca8		       00 00	   BOSGALF    DC.B	0,0
   1275  acaa		       00 00	   HEROS      DC.B	0,0
   1276  acac		       00 00	   HERO1      DC.B	0,0
   1277  acae		       00 00	   HERO2      DC.B	0,0
   1278  acb0		       00 00	   HERO3      DC.B	0,0
   1279  acb2		       00 00	   HERO4      DC.B	0,0
   1280  acb4		       00 00	   HERO5      DC.B	0,0
   1281  acb6		       00 00	   HERO6      DC.B	0,0
   1282  acb8		       00 00	   HERO7      DC.B	0,0
   1283  acba		       00 00 00 00 MISSLE     DC.B	0,0,0,0
   1284  acbe		       00 00	   MISSLE4    DC.B	0,0
   1285  acc0		       00 00	   STARGRAF   DC.B	0,0
   1286  acc2		       00 00	   BLUBUG1    DC.B	0,0
   1287  acc4		       00 00	   BLUBUG2    DC.B	0,0
   1288  acc6		       00 00	   BLUBUG3    DC.B	0,0
   1289  acc8		       00 00	   BLUBUG4    DC.B	0,0
   1290  acca		       00 00	   BLUBUG5    DC.B	0,0
   1291  accc		       00 00	   BLUBUG6    DC.B	0,0
   1292  acce		       00 00	   BLUBUG7    DC.B	0,0
   1293  acd0		       00 00	   REDBUG1    DC.B	0,0
   1294  acd2		       00 00	   REDBUG2    DC.B	0,0
   1295  acd4		       00 00	   REDBUG3    DC.B	0,0
   1296  acd6		       00 00	   REDBUG4    DC.B	0,0
   1297  acd8		       00 00	   REDBUG5    DC.B	0,0
   1298  acda		       00 00	   REDBUG6    DC.B	0,0
   1299  acdc		       00 00	   REDBUG7    DC.B	0,0
   1300  acde		       00 00	   BOSGAL1    DC.B	0,0
   1301  ace0		       00 00	   BOSGAL2    DC.B	0,0
   1302  ace2		       00 00	   BOSGAL3    DC.B	0,0
   1303  ace4		       00 00	   BOSGAL4    DC.B	0,0
   1304  ace6		       00 00	   BOSGAL5    DC.B	0,0
   1305  ace8		       00 00	   BOSGAL6    DC.B	0,0
   1306  acea		       00 00	   BOSGAL7    DC.B	0,0
   1307  acec		       00 00		      DC.B	0,0
   1308  acee		       00 00		      DC.B	0,0
   1309  acf0		       00 00		      DC.B	0,0
   1310  acf2		       00 00		      DC.B	0,0
   1311  acf4		       00 00		      DC.B	0,0
   1312  acf6		       00 00		      DC.B	0,0
   1313  acf8		       00 00		      DC.B	0,0
   1314  acfa		       00 00		      DC.B	0,0
   1315  acfc		       00 00		      DC.B	0,0
   1316  acfe		       00 00		      DC.B	0,0
   1317  ad00
   1318  ad00
   1319  ad00
   1320  ad00
   1321  ad00					      ORG	$AD00
   1322  ad00		       00 00 00 	      DC.B	0,0,0
   1323  ad03		       00 00		      DC.B	0,0
   1324  ad05		       00 00		      DC.B	0,0
   1325  ad07		       00 00		      DC.B	0,0
   1326  ad09		       00 00		      DC.B	0,0
   1327  ad0b		       00 00		      DC.B	0,0
   1328  ad0d		       00 00		      DC.B	0,0
   1329  ad0f		       00 00		      DC.B	0,0
   1330  ad11		       00 00		      DC.B	0,0
   1331  ad13		       00 00		      DC.B	0,0
   1332  ad15		       00 00		      DC.B	0,0
   1333  ad17		       00 00 00 	      DC.B	0,0,0
   1334  ad1a		       00 00 00 	      DC.B	0,0,0
   1335  ad1d		       00 00 00 	      DC.B	0,0,0
   1336  ad20		       00 00 00 	      DC.B	0,0,0
   1337  ad23		       00 00 00 	      DC.B	0,0,0
   1338  ad26		       00 00 00 	      DC.B	0,0,0
   1339  ad29		       00 00 00 	      DC.B	0,0,0
   1340  ad2c		       00 00		      DC.B	0,0
   1341  ad2e		       00 00		      DC.B	0,0
   1342  ad30		       00 00		      DC.B	0,0
   1343  ad32		       00 00		      DC.B	0,0
   1344  ad34		       00 00		      DC.B	0,0
   1345  ad36		       00 00		      DC.B	0,0
   1346  ad38		       00 00		      DC.B	0,0
   1347  ad3a		       00 00		      DC.B	0,0
   1348  ad3c		       00 00 00 00*	      DC.B	0,0,0,0,0,0,0,0,0
   1349  ad45		       00 00		      DC.B	0,0
   1350  ad47		       00 00		      DC.B	0,0
   1351  ad49		       00 00 00 00*	      DC.B	0,0,0,0,0,0,0,0
   1352  ad51		       00 00 00 00*	      DC.B	0,0,0,0,0,0,0,0,0,0,0,0
   1353  ad5d		       00 00 00 00*	      DC.B	0,0,0,0,0,0,0,0,0
   1354  ad66		       00 00 00 00	      DC.B	0,0,0,0
   1355  ad6a		       00 00 00 00	      DC.B	0,0,0,0
   1356  ad6e		       00 00 00 00	      DC.B	0,0,0,0
   1357  ad72		       00 00 00 00	      DC.B	0,0,0,0
   1358  ad76		       00 00 00 00	      DC.B	0,0,0,0
   1359  ad7a		       00 00 00 00	      DC.B	0,0,0,0
   1360  ad7e		       00 00 00 00	      DC.B	0,0,0,0
   1361  ad82		       00 00 00 00	      DC.B	0,0,0,0
   1362  ad86		       00 00 00 00*	      DC.B	0,0,0,0,0
   1363  ad8b		       00		      DC.B	0
   1364  ad8c		       00 00 00 00	      DC.B	0,0,0,0
   1365  ad90		       00 00 00 00	      DC.B	0,0,0,0
   1366  ad94		       00 00 00 00	      DC.B	0,0,0,0
   1367  ad98		       00 00 00 00	      DC.B	0,0,0,0
   1368  ad9c		       00 00		      DC.B	0,0
   1369  ad9e		       00 00		      DC.B	0,0
   1370  ada0		       00 00		      DC.B	0,0
   1371  ada2		       00 00		      DC.B	0,0
   1372  ada4		       00 00		      DC.B	0,0
   1373  ada6		       00 00		      DC.B	0,0
   1374  ada8		       00 00		      DC.B	0,0
   1375  adaa		       00 00		      DC.B	0,0
   1376  adac		       00 00		      DC.B	0,0
   1377  adae		       00 00		      DC.B	0,0
   1378  adb0		       00 00		      DC.B	0,0
   1379  adb2		       00 00		      DC.B	0,0
   1380  adb4		       00 00		      DC.B	0,0
   1381  adb6		       00 00		      DC.B	0,0
   1382  adb8		       00 00		      DC.B	0,0
   1383  adba		       00 00 00 00	      DC.B	0,0,0,0
   1384  adbe		       00 00		      DC.B	0,0
   1385  adc0		       00 00		      DC.B	0,0
   1386  adc2		       00 00		      DC.B	0,0
   1387  adc4		       00 00		      DC.B	0,0
   1388  adc6		       00 00		      DC.B	0,0
   1389  adc8		       00 00		      DC.B	0,0
   1390  adca		       00 00		      DC.B	0,0
   1391  adcc		       00 00		      DC.B	0,0
   1392  adce		       00 00		      DC.B	0,0
   1393  add0		       00 00		      DC.B	0,0
   1394  add2		       00 00		      DC.B	0,0
   1395  add4		       00 00		      DC.B	0,0
   1396  add6		       00 00		      DC.B	0,0
   1397  add8		       00 00		      DC.B	0,0
   1398  adda		       00 00		      DC.B	0,0
   1399  addc		       00 00		      DC.B	0,0
   1400  adde		       00 00		      DC.B	0,0
   1401  ade0		       00 00		      DC.B	0,0
   1402  ade2		       00 00		      DC.B	0,0
   1403  ade4		       00 00		      DC.B	0,0
   1404  ade6		       00 00		      DC.B	0,0
   1405  ade8		       00 00		      DC.B	0,0
   1406  adea		       00 00		      DC.B	0,0
   1407  adec		       00 00		      DC.B	0,0
   1408  adee		       00 00		      DC.B	0,0
   1409  adf0		       00 00		      DC.B	0,0
   1410  adf2		       00 00		      DC.B	0,0
   1411  adf4		       00 00		      DC.B	0,0
   1412  adf6		       00 00		      DC.B	0,0
   1413  adf8		       00 00		      DC.B	0,0
   1414  adfa		       00 00		      DC.B	0,0
   1415  adfc		       00 00		      DC.B	0,0
   1416  adfe		       00 00		      DC.B	0,0
   1417  ae00							;   DC.B      0,0
   1418  ae00
   1419  ae00
   1420  ae00
   1421  ae00
   1422  ae00
   1423  ae00					      ORG	$AE00
   1424  ae00		       00 00 00 	      DC.B	0,0,0
   1425  ae03		       00 00		      DC.B	0,0
   1426  ae05		       00 00		      DC.B	0,0
   1427  ae07		       00 00		      DC.B	0,0
   1428  ae09		       00 00		      DC.B	0,0
   1429  ae0b		       00 00		      DC.B	0,0
   1430  ae0d		       00 00		      DC.B	0,0
   1431  ae0f		       00 00		      DC.B	0,0
   1432  ae11		       00 00		      DC.B	0,0
   1433  ae13		       00 00		      DC.B	0,0
   1434  ae15		       00 00		      DC.B	0,0
   1435  ae17		       00 00 00 	      DC.B	0,0,0
   1436  ae1a		       00 00 00 	      DC.B	0,0,0
   1437  ae1d		       00 00 00 	      DC.B	0,0,0
   1438  ae20		       00 00 00 	      DC.B	0,0,0
   1439  ae23		       00 00 00 	      DC.B	0,0,0
   1440  ae26		       00 00 00 	      DC.B	0,0,0
   1441  ae29		       00 00 00 	      DC.B	0,0,0
   1442  ae2c		       00 00		      DC.B	0,0
   1443  ae2e		       00 00		      DC.B	0,0
   1444  ae30		       00 00		      DC.B	0,0
   1445  ae32		       00 00		      DC.B	0,0
   1446  ae34		       00 00		      DC.B	0,0
   1447  ae36		       00 00		      DC.B	0,0
   1448  ae38		       00 00		      DC.B	0,0
   1449  ae3a		       00 00		      DC.B	0,0
   1450  ae3c		       00 00 00 00*	      DC.B	0,0,0,0,0,0,0,0,0
   1451  ae45		       00 00		      DC.B	0,0
   1452  ae47		       00 00		      DC.B	0,0
   1453  ae49		       00 00 00 00*	      DC.B	0,0,0,0,0,0,0,0
   1454  ae51		       00 00 00 00*	      DC.B	0,0,0,0,0,0,0,0,0,0,0,0
   1455  ae5d		       00 00 00 00*	      DC.B	0,0,0,0,0,0,0,0,0
   1456  ae66		       00 00 00 00	      DC.B	0,0,0,0
   1457  ae6a		       00 00 00 00	      DC.B	0,0,0,0
   1458  ae6e		       00 00 00 00	      DC.B	0,0,0,0
   1459  ae72		       00 00 00 00	      DC.B	0,0,0,0
   1460  ae76		       00 00 00 00	      DC.B	0,0,0,0
   1461  ae7a		       00 00 00 00	      DC.B	0,0,0,0
   1462  ae7e		       00 00 00 00	      DC.B	0,0,0,0
   1463  ae82		       00 00 00 00	      DC.B	0,0,0,0
   1464  ae86		       00 00 00 00*	      DC.B	0,0,0,0,0
   1465  ae8b		       00		      DC.B	0
   1466  ae8c		       00 00 00 00	      DC.B	0,0,0,0
   1467  ae90		       00 00 00 00	      DC.B	0,0,0,0
   1468  ae94		       00 00 00 00	      DC.B	0,0,0,0
   1469  ae98		       00 00 00 00	      DC.B	0,0,0,0
   1470  ae9c		       00 00		      DC.B	0,0
   1471  ae9e		       00 00		      DC.B	0,0
   1472  aea0		       00 00		      DC.B	0,0
   1473  aea2		       00 00		      DC.B	0,0
   1474  aea4		       00 00		      DC.B	0,0
   1475  aea6		       00 00		      DC.B	0,0
   1476  aea8		       00 00		      DC.B	0,0
   1477  aeaa		       00 00		      DC.B	0,0
   1478  aeac		       00 00		      DC.B	0,0
   1479  aeae		       00 00		      DC.B	0,0
   1480  aeb0		       00 00		      DC.B	0,0
   1481  aeb2		       00 00		      DC.B	0,0
   1482  aeb4		       00 00		      DC.B	0,0
   1483  aeb6		       00 00		      DC.B	0,0
   1484  aeb8		       00 00		      DC.B	0,0
   1485  aeba		       00 00 00 00	      DC.B	0,0,0,0
   1486  aebe		       00 00		      DC.B	0,0
   1487  aec0		       00 00		      DC.B	0,0
   1488  aec2		       00 00		      DC.B	0,0
   1489  aec4		       00 00		      DC.B	0,0
   1490  aec6		       00 00		      DC.B	0,0
   1491  aec8		       00 00		      DC.B	0,0
   1492  aeca		       00 00		      DC.B	0,0
   1493  aecc		       00 00		      DC.B	0,0
   1494  aece		       00 00		      DC.B	0,0
   1495  aed0		       00 00		      DC.B	0,0
   1496  aed2		       00 00		      DC.B	0,0
   1497  aed4		       00 00		      DC.B	0,0
   1498  aed6		       00 00		      DC.B	0,0
   1499  aed8		       00 00		      DC.B	0,0
   1500  aeda		       00 00		      DC.B	0,0
   1501  aedc		       00 00		      DC.B	0,0
   1502  aede		       00 00		      DC.B	0,0
   1503  aee0		       00 00		      DC.B	0,0
   1504  aee2		       00 00		      DC.B	0,0
   1505  aee4		       00 00		      DC.B	0,0
   1506  aee6		       00 00		      DC.B	0,0
   1507  aee8		       00 00		      DC.B	0,0
   1508  aeea		       00 00		      DC.B	0,0
   1509  aeec		       00 00		      DC.B	0,0
   1510  aeee		       00 00		      DC.B	0,0
   1511  aef0		       00 00		      DC.B	0,0
   1512  aef2		       00 00		      DC.B	0,0
   1513  aef4		       00 00		      DC.B	0,0
   1514  aef6		       00 00		      DC.B	0,0
   1515  aef8		       00 00		      DC.B	0,0
   1516  aefa		       00 00		      DC.B	0,0
   1517  aefc		       00 00		      DC.B	0,0
   1518  aefe		       00 00		      DC.B	0,0
   1519  af00							;   DC.B      0,0
   1520  af00
   1521  af00
   1522  af00
   1523  af00
   1524  af00
   1525  af00					      ORG	$AF00
   1526  af00		       00 00 00 	      DC.B	0,0,0
   1527  af03		       00 00		      DC.B	0,0
   1528  af05		       00 00		      DC.B	0,0
   1529  af07		       00 00		      DC.B	0,0
   1530  af09		       00 00		      DC.B	0,0
   1531  af0b		       00 00		      DC.B	0,0
   1532  af0d		       00 00		      DC.B	0,0
   1533  af0f		       00 00		      DC.B	0,0
   1534  af11		       00 00		      DC.B	0,0
   1535  af13		       00 00		      DC.B	0,0
   1536  af15		       00 00		      DC.B	0,0
   1537  af17		       00 00 00 	      DC.B	0,0,0
   1538  af1a		       00 00 00 	      DC.B	0,0,0
   1539  af1d		       00 00 00 	      DC.B	0,0,0
   1540  af20		       00 00 00 	      DC.B	0,0,0
   1541  af23		       00 00 00 	      DC.B	0,0,0
   1542  af26		       00 00 00 	      DC.B	0,0,0
   1543  af29		       00 00 00 	      DC.B	0,0,0
   1544  af2c		       00 00		      DC.B	0,0
   1545  af2e		       00 00		      DC.B	0,0
   1546  af30		       00 00		      DC.B	0,0
   1547  af32		       00 00		      DC.B	0,0
   1548  af34		       00 00		      DC.B	0,0
   1549  af36		       00 00		      DC.B	0,0
   1550  af38		       00 00		      DC.B	0,0
   1551  af3a		       00 00		      DC.B	0,0
   1552  af3c		       00 00 00 00*	      DC.B	0,0,0,0,0,0,0,0,0
   1553  af45		       00 00		      DC.B	0,0
   1554  af47		       00 00		      DC.B	0,0
   1555  af49		       00 00 00 00*	      DC.B	0,0,0,0,0,0,0,0
   1556  af51		       00 00 00 00*	      DC.B	0,0,0,0,0,0,0,0,0,0,0,0
   1557  af5d		       00 00 00 00*	      DC.B	0,0,0,0,0,0,0,0,0
   1558  af66		       00 00 00 00	      DC.B	0,0,0,0
   1559  af6a		       00 00 00 00	      DC.B	0,0,0,0
   1560  af6e		       00 00 00 00	      DC.B	0,0,0,0
   1561  af72		       00 00 00 00	      DC.B	0,0,0,0
   1562  af76		       00 00 00 00	      DC.B	0,0,0,0
   1563  af7a		       00 00 00 00	      DC.B	0,0,0,0
   1564  af7e		       00 00 00 00	      DC.B	0,0,0,0
   1565  af82		       00 00 00 00	      DC.B	0,0,0,0
   1566  af86		       00 00 00 00*	      DC.B	0,0,0,0,0
   1567  af8b		       00		      DC.B	0
   1568  af8c		       00 00 00 00	      DC.B	0,0,0,0
   1569  af90		       00 00 00 00	      DC.B	0,0,0,0
   1570  af94		       00 00 00 00	      DC.B	0,0,0,0
   1571  af98		       00 00 00 00	      DC.B	0,0,0,0
   1572  af9c		       00 00		      DC.B	0,0
   1573  af9e		       00 00		      DC.B	0,0
   1574  afa0		       00 00		      DC.B	0,0
   1575  afa2		       00 00		      DC.B	0,0
   1576  afa4		       00 00		      DC.B	0,0
   1577  afa6		       00 00		      DC.B	0,0
   1578  afa8		       00 00		      DC.B	0,0
   1579  afaa		       00 00		      DC.B	0,0
   1580  afac		       00 00		      DC.B	0,0
   1581  afae		       00 00		      DC.B	0,0
   1582  afb0		       00 00		      DC.B	0,0
   1583  afb2		       00 00		      DC.B	0,0
   1584  afb4		       00 00		      DC.B	0,0
   1585  afb6		       00 00		      DC.B	0,0
   1586  afb8		       00 00		      DC.B	0,0
   1587  afba		       00 00 00 00	      DC.B	0,0,0,0
   1588  afbe		       00 00		      DC.B	0,0
   1589  afc0		       00 00		      DC.B	0,0
   1590  afc2		       00 00		      DC.B	0,0
   1591  afc4		       00 00		      DC.B	0,0
   1592  afc6		       00 00		      DC.B	0,0
   1593  afc8		       00 00		      DC.B	0,0
   1594  afca		       00 00		      DC.B	0,0
   1595  afcc		       00 00		      DC.B	0,0
   1596  afce		       00 00		      DC.B	0,0
   1597  afd0		       00 00		      DC.B	0,0
   1598  afd2		       00 00		      DC.B	0,0
   1599  afd4		       00 00		      DC.B	0,0
   1600  afd6		       00 00		      DC.B	0,0
   1601  afd8		       00 00		      DC.B	0,0
   1602  afda		       00 00		      DC.B	0,0
   1603  afdc		       00 00		      DC.B	0,0
   1604  afde		       00 00		      DC.B	0,0
   1605  afe0		       00 00		      DC.B	0,0
   1606  afe2		       00 00		      DC.B	0,0
   1607  afe4		       00 00		      DC.B	0,0
   1608  afe6		       00 00		      DC.B	0,0
   1609  afe8		       00 00		      DC.B	0,0
   1610  afea		       00 00		      DC.B	0,0
   1611  afec		       00 00		      DC.B	0,0
   1612  afee		       00 00		      DC.B	0,0
   1613  aff0		       00 00		      DC.B	0,0
   1614  aff2		       00 00		      DC.B	0,0
   1615  aff4		       00 00		      DC.B	0,0
   1616  aff6		       00 00		      DC.B	0,0
------- FILE GLOAD.ASM
------- FILE GLOADER1.ASM LEVEL 2 PASS 2
      0  aff8					      include	"GLOADER1.ASM"
      1  aff8					      processor	6502
      2  aff8							;;*;*;*;*;*;*;*;*;*;*;*;*;*;*;*;*;*;*;*;*;*;*;*;*;*;*;*;*;*;*;*;*;*;*;*;*;*;*;*;*;*;*;*;*;*;*;*;*;*;*;*;*;*;*;*;*;*;*;*;*;*;*;*;*;*;*;*;*;*;*;*;*;*;*;*;*;*;*;*
      3  aff8							;*GLOADER.S
      4  aff8							;    ORG     $B000;		      ;ORG AFTER GRAPHICS
      5  aff8
      6  aff8		       00 00	   ZERO       EQU	0
      7  aff8		       01 00	   HUNDRED    EQU	$100
      8  aff8
      9  aff8		       78	   STARTUP    SEI		;			      ; STARTUP CODE
     10  aff9		       d8		      CLD
     11  affa		       a2 ff		      LDX	#$FF
     12  affc		       9a		      TXS
     13  affd
     14  affd		       a9 17		      LDA	#$17
     15  afff		       85 01		      STA	$01	;		      ;LOCK INTO MARIA MODE
     16  b001
     17  b001		       86 3c		      STX	CTRLWT	;		   ;TURN OFF DMA
     18  b003
     19  b003
     20  b003		       a9 00		      LDA	#0
     21  b005		       85 38		      STA	$38	;		      STORE ZERO INTO OFFSET
     22  b007							;	   LDX	   #$FF;		   ;ZERO OUT ZERO PAGE
     23  b007		       95 00	   ZEROLOP1   STA	ZERO,X
     24  b009		       ca		      DEX
     25  b00a		       e0 3f		      CPX	#$3F
     26  b00c		       d0 f9		      BNE	ZEROLOP1
     27  b00e
     28  b00e							;	   LDA	   #0;			 ; ZERO OUT ZERO PAGE
     29  b00e		       a8		      TAY		;			      SAVE A ZERO HERE
     30  b00f		       85 01		      STA	1	;			;DECONFUSE 6532
     31  b011		       85 0c		      STA	INPT4
     32  b013		       85 0d		      STA	INPT5
     33  b015		       85 34		      STA	CHARBASE
     34  b017		       8d 7f 27 	      STA	DUMYHDR
     35  b01a		       8d 83 27 	      STA	DUMYHDR+4
     36  b01d		       8d 84 27 	      STA	DUMYHDR+5
     37  b020		       8d 85 27 	      STA	DUMYHDR+6
     38  b023		       8d 20 1d 	      STA	ZEROHDR
     39  b026		       8d 21 1d 	      STA	ZEROHDR+1
     40  b029		       a9 40		      LDA	#$40
     41  b02b		       8d 80 27 	      STA	DUMYHDR+1
     42  b02e		       a9 a0		      LDA	#$A0
     43  b030		       8d 81 27 	      STA	DUMYHDR+2
     44  b033		       a9 1f		      LDA	#$1F
     45  b035		       8d 82 27 	      STA	DUMYHDR+3
     46  b038
     47  b038							; SET UP THE TWO DISPLAY LIST LISTS
     48  b038							;	   LDY	   #0
     49  b038		       a9 48		      LDA	#$48
     50  b03a		       99 22 1d 	      STA	DLSTLST1,Y
     51  b03d		       99 61 1d 	      STA	DLSTLST2,Y
     52  b040		       c8		      INY
     53  b041		       a9 27		      LDA	#>DUMYHDR
     54  b043		       99 22 1d 	      STA	DLSTLST1,Y
     55  b046		       99 61 1d 	      STA	DLSTLST2,Y
     56  b049		       c8		      INY
     57  b04a		       a9 7f		      LDA	#<DUMYHDR
     58  b04c		       99 22 1d 	      STA	DLSTLST1,Y
     59  b04f		       99 61 1d 	      STA	DLSTLST2,Y
     60  b052		       c8		      INY
     61  b053		       a9 4f		      LDA	#$4F
     62  b055		       99 22 1d 	      STA	DLSTLST1,Y
     63  b058		       99 61 1d 	      STA	DLSTLST2,Y
     64  b05b		       c8		      INY
     65  b05c		       a9 1d		      LDA	#>ZEROHDR
     66  b05e		       99 22 1d 	      STA	DLSTLST1,Y
     67  b061		       99 61 1d 	      STA	DLSTLST2,Y
     68  b064		       c8		      INY
     69  b065		       a9 20		      LDA	#<ZEROHDR
     70  b067		       99 22 1d 	      STA	DLSTLST1,Y
     71  b06a		       99 61 1d 	      STA	DLSTLST2,Y
     72  b06d		       c8		      INY
     73  b06e		       a2 00		      LDX	#0
     74  b070		       a9 4b	   INITDLST   LDA	#$4B
     75  b072		       99 22 1d 	      STA	DLSTLST1,Y
     76  b075		       99 61 1d 	      STA	DLSTLST2,Y
     77  b078		       c8		      INY
     78  b079		       bd 57 b7 	      LDA	LISTTBH1,X
     79  b07c		       99 22 1d 	      STA	DLSTLST1,Y
     80  b07f		       bd 67 b7 	      LDA	LISTTBH2,X
     81  b082		       99 61 1d 	      STA	DLSTLST2,Y
     82  b085		       c8		      INY
     83  b086		       bd 47 b7 	      LDA	LISTTABL,X
     84  b089		       99 22 1d 	      STA	DLSTLST1,Y
     85  b08c		       99 61 1d 	      STA	DLSTLST2,Y
     86  b08f		       c8		      INY
     87  b090		       e8		      INX
     88  b091		       e0 10		      CPX	#16
     89  b093		       30 db		      BMI	INITDLST
     90  b095							;NOW FINISH LAST TWO ZONES (OFF THE SCREEN)
     91  b095		       a9 4f		      LDA	#$4F
     92  b097		       99 22 1d 	      STA	DLSTLST1,Y
     93  b09a		       99 61 1d 	      STA	DLSTLST2,Y
     94  b09d		       c8		      INY
     95  b09e		       a9 1d		      LDA	#>ZEROHDR
     96  b0a0		       99 22 1d 	      STA	DLSTLST1,Y
     97  b0a3		       99 61 1d 	      STA	DLSTLST2,Y
     98  b0a6		       c8		      INY
     99  b0a7		       a9 20		      LDA	#<ZEROHDR
    100  b0a9		       99 22 1d 	      STA	DLSTLST1,Y
    101  b0ac		       99 61 1d 	      STA	DLSTLST2,Y
    102  b0af		       c8		      INY
    103  b0b0		       a9 47		      LDA	#$47
    104  b0b2		       99 22 1d 	      STA	DLSTLST1,Y
    105  b0b5		       99 61 1d 	      STA	DLSTLST2,Y
    106  b0b8		       c8		      INY
    107  b0b9		       a9 1d		      LDA	#>ZEROHDR
    108  b0bb		       99 22 1d 	      STA	DLSTLST1,Y
    109  b0be		       99 61 1d 	      STA	DLSTLST2,Y
    110  b0c1		       c8		      INY
    111  b0c2		       a9 20		      LDA	#<ZEROHDR
    112  b0c4		       99 22 1d 	      STA	DLSTLST1,Y
    113  b0c7		       99 61 1d 	      STA	DLSTLST2,Y
    114  b0ca		       c8		      INY
    115  b0cb		       a9 cf		      LDA	#$CF
    116  b0cd		       99 22 1d 	      STA	DLSTLST1,Y
    117  b0d0		       99 61 1d 	      STA	DLSTLST2,Y
    118  b0d3		       c8		      INY
    119  b0d4		       a9 1d		      LDA	#>ZEROHDR
    120  b0d6		       99 22 1d 	      STA	DLSTLST1,Y
    121  b0d9		       99 61 1d 	      STA	DLSTLST2,Y
    122  b0dc		       c8		      INY
    123  b0dd		       a9 20		      LDA	#<ZEROHDR
    124  b0df		       99 22 1d 	      STA	DLSTLST1,Y
    125  b0e2		       99 61 1d 	      STA	DLSTLST2,Y
    126  b0e5							;*INITIALIZE COLOR PALETTES
    127  b0e5		       a9 00		      LDA	#0
    128  b0e7		       8d 84 02 	      STA	INTIM	;		    ;TEMPORARILY OUT OF ACTION
    129  b0ea		       85 20		      STA	P0C0	;		     ; MAKE THE SCREEN BLACK
    130  b0ec		       8d 20 27 	      STA	SELECT	;		   ;CLEAR SELECT MODE FLAG
    131  b0ef		       8d 21 27 	      STA	RSTRTREG	;		 ;CLEAR RESTART MODE FLAG
    132  b0f2		       8d 22 27 	      STA	LEVELSEL
    133  b0f5		       8d 23 27 	      STA	TWOPLAYR
    134  b0f8		       8d 2a 27 	      STA	FARREN
    135  b0fb		       20 7d 82 	      JSR	CLRSCORE	;		 ;CLEAR ALL SCORES
    136  b0fe		       a2 08		      LDX	#8
    137  b100		       a0 1e		      LDY	#30
    138  b102		       b9 59 b6    PLOOP      LDA	PTABL,Y
    139  b105		       99 21 00 	      STA	P0C1,Y
    140  b108		       88		      DEY
    141  b109		       b9 59 b6 	      LDA	PTABL,Y
    142  b10c		       99 21 00 	      STA	P0C1,Y
    143  b10f		       88		      DEY
    144  b110		       b9 59 b6 	      LDA	PTABL,Y
    145  b113		       99 21 00 	      STA	P0C1,Y
    146  b116		       88		      DEY
    147  b117		       88		      DEY
    148  b118		       ca		      DEX
    149  b119		       d0 e7		      BNE	PLOOP
    150  b11b		       a5 28	   WGHTLOOP   LDA	CTRLRD	;		  ;WAIT FOR VBLANK OFF
    151  b11d		       30 fc		      BMI	WGHTLOOP	;		 ;LOOP UNTIL VBLANK OFF
    152  b11f		       a5 28	   WGHTLOP2   LDA	CTRLRD	;		   ;LOOP UNTIL VBLANK ON
    153  b121		       10 fc		      BPL	WGHTLOP2
    154  b123		       a5 28		      LDA	CTRLRD
    155  b125		       10 f8		      BPL	WGHTLOP2
    156  b127		       20 1b 81 	      JSR	CLEARDL1	;		 CLEAR OUT DISPLAY LIST FIRST
    157  b12a		       a9 22		      LDA	#<DLSTLST1
    158  b12c		       85 30		      STA	DPPL
    159  b12e		       a9 1d		      LDA	#>DLSTLST1
    160  b130		       85 2c		      STA	DPPH
    161  b132		       a9 40		      LDA	#$40
    162  b134		       85 3c		      STA	CTRLWT
    163  b136							;CONTINUE WITH REMAINDER OF INITIALIZATION
    164  b136				   RESTART
    165  b136		       20 d0 d3 	      JSR	SCRAPALL
    166  b139		       a9 00		      LDA	#0
    167  b13b		       a2 ff		      LDX	#$FF	;		     ;ZERO OUT ZERO PAGE
    168  b13d		       95 00	   ZEROLOOP   STA	ZERO,X
    169  b13f		       ca		      DEX
    170  b140		       e0 3f		      CPX	#$3F
    171  b142		       d0 f9		      BNE	ZEROLOOP
    172  b144		       20 0f 9d 	      JSR	INITCOLS
    173  b147		       a9 4c		      LDA	#76
    174  b149		       8d 5a 1e 	      STA	HEROX
    175  b14c		       a9 14		      LDA	#20
    176  b14e		       85 83		      STA	ANIMATE
    177  b150		       85 90		      STA	SELTIMER	;		 ;SELECT TIMER
    178  b152		       4c 00 80 	      JMP	BEGIN
    179  b155
    180  b155							;HANDLER  IS CALLED BY THE DLI AT THE END OF THE VISIBLE SCREEN
    181  b155				   HANDLER
    182  b155							; NO PERMINANT LOCAL VARIABLES
    183  b155							;TEMP VARIABLES
    184  b155							; LISTSIZ   DS 16
    185  b155							; ELISTPTR  DS 2     ZERO PAGE
    186  b155							; LTYPE     DS 1
    187  b155							; LY	     DS 1
    188  b155							; LA	     DS 1
    189  b155							; HEADER0   DS 1
    190  b155							; HEADER1   DS 1
    191  b155							; HEADER2   DS 1
    192  b155							; HEADER3   DS 1
    193  b155		       85 e7		      STA	SAVEB	;		    ;THIS IS FOR LOOPING INTERRUPTS
    194  b157
    195  b157		       a5 e5		      LDA	INHSC	;		    ;SEE IF IN HIGH SCORE CART
    196  b159		       f0 28		      BEQ	NOTHSC
    197  b15b		       c9 01		      CMP	#1	;		       ;SEE IF FIRST DLI ON SCREEN
    198  b15d		       d0 0c		      BNE	SCNDDLI
    199  b15f		       e6 e5		      INC	INHSC
    200  b161		       a9 00		      LDA	#0
    201  b163		       85 c4		      STA	FLAP	;		     ;PREVENT FLAPPING WHILE IN HSC
    202  b165		       a9 40		      LDA	#$40
    203  b167		       85 3c		      STA	CTRLWT	;		   ;NEED $40 RATHER THAN THE $4B OF HSC
    204  b169		       d0 1e		      BNE	YESHSC
    205  b16b		       a9 4b	   SCNDDLI    LDA	#$4B
    206  b16d		       85 3c		      STA	CTRLWT
    207  b16f		       c6 e5		      DEC	INHSC
    208  b171		       e6 d9		      INC	BOOTLDR
    209  b173		       d8		      CLD		;			      ;CLEAR DECIMAL MODE, JUST IN CASE
    210  b174		       a9 ff		      LDA	#$FF
    211  b176		       85 73		      STA	DLSPTR	;		   ;USE FIRST DISPLAY LIST FOR GRAPHICS
    212  b178		       a5 e7		      LDA	SAVEB
    213  b17a		       85 80		      STA	SAVEA
    214  b17c		       86 81		      STX	SAVEX
    215  b17e		       84 82		      STY	SAVEY
    216  b180		       4c f5 b1 	      JMP	DOHNDLER	;		 ;RUN THE HSC LOADER NOW
    217  b183
    218  b183		       a5 e4	   NOTHSC     LDA	PAUSE	;		    ;SEE IF PAUSE
    219  b185		       10 05		      BPL	NOPAUSE
    220  b187		       e6 74		      INC	FRAME	;		    ;INC FRAME COUNTER
    221  b189		       a5 e7	   YESHSC     LDA	SAVEB
    222  b18b		       40		      RTI
    223  b18c
    224  b18c		       a5 d9	   NOPAUSE    LDA	BOOTLDR	;		  ;SEE IF SHOULD BOOT LDR
    225  b18e		       f0 03		      BEQ	NBOOTLDR
    226  b190		       a5 e7		      LDA	SAVEB
    227  b192		       40		      RTI
    228  b193
    229  b193				   NBOOTLDR
    230  b193		       a5 e7		      LDA	SAVEB
    231  b195		       85 80		      STA	SAVEA	;		    ;THIS IS FOR LOOPING INTERRUPTS
    232  b197		       86 81		      STX	SAVEX
    233  b199		       84 82		      STY	SAVEY
    234  b19b		       d8		      CLD		;			      ;CLEAR DECIMAL MODE
    235  b19c		       20 51 d4 	      JSR	TUNER
    236  b19f
    237  b19f							;THIS SECTION FIGURES OUT THE STAR INC SPEED
    238  b19f		       a5 42		      LDA	RACK
    239  b1a1		       c9 0a		      CMP	#10
    240  b1a3		       90 0a		      BCC	SLOWSTAR
    241  b1a5		       c9 12		      CMP	#18
    242  b1a7		       b0 16		      BCS	FASTAR
    243  b1a9		       a9 01		      LDA	#1	;		       ;SPEED IS 1 UNCONDITIONALLY
    244  b1ab		       85 58		      STA	STRSPEED
    245  b1ad		       d0 20		      BNE	SETBOOT
    246  b1af		       a5 58	   SLOWSTAR   LDA	STRSPEED	;		 ;DEC STRSPEED UNTIL ZERO, THEN INC
    247  b1b1		       f0 06		      BEQ	INCSPD
    248  b1b3		       a9 00		      LDA	#0
    249  b1b5		       85 58		      STA	STRSPEED
    250  b1b7		       f0 16		      BEQ	SETBOOT
    251  b1b9		       a9 01	   INCSPD     LDA	#1
    252  b1bb		       85 58		      STA	STRSPEED
    253  b1bd		       d0 10		      BNE	SETBOOT
    254  b1bf				   FASTAR
    255  b1bf		       a5 58		      LDA	STRSPEED
    256  b1c1		       c9 02		      CMP	#2
    257  b1c3		       10 06		      BPL	DECFSPD	;		  ;IF 2 OR GREATER, DEC STRSPEED
    258  b1c5		       a9 02		      LDA	#2
    259  b1c7		       85 58		      STA	STRSPEED
    260  b1c9		       d0 04		      BNE	SETBOOT
    261  b1cb		       a9 01	   DECFSPD    LDA	#1
    262  b1cd		       85 58		      STA	STRSPEED
    263  b1cf		       e6 d9	   SETBOOT    INC	BOOTLDR	;		  ;INC FLAG FOR LOADER
    264  b1d1		       a5 74		      LDA	FRAME
    265  b1d3		       30 20		      BMI	DOHNDLER
    266  b1d5							;THIS CODE UPDATES THE STAR POINTERS ONLY
    267  b1d5		       20 db b1 	      JSR	MOVSTARS
    268  b1d8		       4c ba b5 	      JMP	UPSHIP	;		   ;JUST UPDATE SHIP IF INSUF. TIME
    269  b1db
    270  b1db		       a5 86	   MOVSTARS   LDA	THREECNT	;		 ;SEE IF TIME FOR NEW STAR
    271  b1dd		       18		      CLC
    272  b1de		       65 58		      ADC	STRSPEED
    273  b1e0		       85 86		      STA	THREECNT
    274  b1e2		       c9 03		      CMP	#3
    275  b1e4		       90 0e		      BCC	SSTAR1
    276  b1e6		       38		      SEC
    277  b1e7		       e9 03		      SBC	#3
    278  b1e9		       85 86		      STA	THREECNT
    279  b1eb		       c6 8b		      DEC	STARPTR	;		  ;GO TO NEXT STAR
    280  b1ed		       30 01		      BMI	SSTARRES
    281  b1ef		       60		      RTS
    282  b1f0		       a9 7f	   SSTARRES   LDA	#$7F
    283  b1f2		       85 8b		      STA	STARPTR
    284  b1f4		       60	   SSTAR1     RTS
    285  b1f5
    286  b1f5				   DOHNDLER
    287  b1f5		       a9 10		      LDA	#16	;		      ;SAVE SPACE FOR THE STARS
    288  b1f7		       a0 0f		      LDY	#15
    289  b1f9		       99 c5 00    LSTSIZLP   STA	LISTSIZ,Y
    290  b1fc		       88		      DEY
    291  b1fd		       10 fa		      BPL	LSTSIZLP
    292  b1ff
    293  b1ff		       a9 00		      LDA	#0	;		       ;ZEROS OUT SECOND LIST
    294  b201		       a0 08		      LDY	#8
    295  b203		       99 6c 27    LIST2LP    STA	LISTSIZ2,Y
    296  b206		       88		      DEY
    297  b207		       10 fa		      BPL	LIST2LP
    298  b209
    299  b209		       a5 e5		      LDA	INHSC
    300  b20b		       f0 03		      BEQ	STARLDR
    301  b20d		       4c 81 b2 	      JMP	LSTSZOUT	;		 ;IF IN HSC, DONT DO STARS
    302  b210
    303  b210		       a9 10	   STARLDR    LDA	#16
    304  b212		       85 6f		      STA	TEMP6	;		    ;GET SET FOR 16 ZONES
    305  b214		       a9 00		      LDA	#0
    306  b216		       85 85		      STA	STARCNTR	;		 ;INC INTO HSTAR
    307  b218		       a9 04		      LDA	#4
    308  b21a		       85 87		      STA	FOURCNT	;		  ;FOUR STARS PER ZONE
    309  b21c		       a0 00		      LDY	#0
    310  b21e		       a9 00		      LDA	#<S1L1	;		 ;SAME AS S2L1
    311  b220		       85 65		      STA	LISTPTR
    312  b222		       24 73		      BIT	DLSPTR
    313  b224		       10 04		      BPL	SUSES2
    314  b226		       a9 18		      LDA	#>S1L1
    315  b228		       d0 02		      BNE	SUSES3
    316  b22a		       a9 22	   SUSES2     LDA	#>S2L1
    317  b22c		       85 66	   SUSES3     STA	LISTPTR+1
    318  b22e		       20 db b1 	      JSR	MOVSTARS
    319  b231		       a5 8b	   STAR1      LDA	STARPTR
    320  b233		       18		      CLC
    321  b234		       65 85		      ADC	STARCNTR
    322  b236		       50 02		      BVC	STAR3
    323  b238		       29 7f	   STAR2      AND	#$7F	;		     ;BOOT THE SIGN BIT
    324  b23a		       aa	   STAR3      TAX		;			      ;X NOW HAS OFFSET INTO HSTAR
    325  b23b		       a9 c0		      LDA	#<STARGRAF
    326  b23d		       91 65		      STA	(LISTPTR),Y
    327  b23f		       c8		      INY
    328  b240		       a9 df		      LDA	#$DF
    329  b242		       91 65		      STA	(LISTPTR),Y	;	      ;PALLET 0, WIDTH 1
    330  b244		       c8		      INY
    331  b245		       a9 a0		      LDA	#>MARIA2
    332  b247		       18		      CLC
    333  b248		       65 86		      ADC	THREECNT
    334  b24a		       91 65		      STA	(LISTPTR),Y
    335  b24c		       c8		      INY
    336  b24d		       bd 1e 87 	      LDA	HSTAR,X
    337  b250		       91 65		      STA	(LISTPTR),Y
    338  b252		       c8		      INY
    339  b253		       e6 85		      INC	STARCNTR
    340  b255		       a5 86		      LDA	THREECNT
    341  b257		       18		      CLC
    342  b258		       69 03		      ADC	#3
    343  b25a		       85 86		      STA	THREECNT
    344  b25c		       c6 87		      DEC	FOURCNT
    345  b25e		       d0 d1		      BNE	STAR1
    346  b260		       a5 86		      LDA	THREECNT
    347  b262		       38		      SEC
    348  b263		       e9 0c		      SBC	#12
    349  b265		       85 86		      STA	THREECNT
    350  b267		       c6 6f		      DEC	TEMP6	;		    ;SEE IF ALL ZONES DONE
    351  b269		       f0 16		      BEQ	LSTSZOUT	;		 ;GO TO NEXT ROUTINE
    352  b26b		       a5 65		      LDA	LISTPTR
    353  b26d		       18		      CLC
    354  b26e		       69 52		      ADC	#DLSIZE
    355  b270		       85 65		      STA	LISTPTR
    356  b272		       a5 66		      LDA	LISTPTR+1
    357  b274		       69 00		      ADC	#0
    358  b276		       85 66		      STA	LISTPTR+1
    359  b278		       a0 00		      LDY	#0
    360  b27a		       a9 04		      LDA	#4
    361  b27c		       85 87		      STA	FOURCNT
    362  b27e		       4c 31 b2 	      JMP	STAR1
    363  b281				   LSTSZOUT
    364  b281		       a9 47		      LDA	#71	;		       ;SET POINTER TO THE FIRST ENEMY DATA
    365  b283		       85 6f		      STA	TEMP6
    366  b285		       a8		      TAY
    367  b286				   LREADL		;				 ;READ THE ENEMY DATA
    368  b286		       b9 d3 1d 	      LDA	TYPE,Y
    369  b289		       29 7f		      AND	#$7F
    370  b28b		       d0 09		      BNE	DOREAD	;		   ;IF THE TYPE IS ZERO THE ENEMY IS
    371  b28d		       c6 6f	   XXX	      DEC	TEMP6	;		    ;NOTHING
    372  b28f		       a4 6f		      LDY	TEMP6
    373  b291		       10 f3		      BPL	LREADL
    374  b293		       4c 8e b3 	      JMP	DONENMY
    375  b296		       c9 06	   DOREAD     CMP	#6
    376  b298		       f0 f3		      BEQ	XXX
    377  b29a		       85 d5		      STA	LTYPE
    378  b29c		       b9 1b 1e 	      LDA	XCORD,Y
    379  b29f		       85 7b		      STA	HEADER3	;		  ;HORIZONTAL POSITION
    380  b2a1		       b9 63 1e 	      LDA	YCORD,Y	;		  ;VERTICAL POSITION
    381  b2a4		       c9 c0		      CMP	#192
    382  b2a6		       b0 e5		      BCS	XXX
    383  b2a8		       85 76	   DLFKJ      STA	LY
    384  b2aa		       b9 ab 1e 	      LDA	ANGLE,Y	;		  ;ANGLE
    385  b2ad		       c0 41		      CPY	#65
    386  b2af		       10 0f		      BPL	DLFKK
    387  b2b1		       29 07		      AND	#$07
    388  b2b3		       85 77		      STA	LA	;		       ;DON"T ROUND OFF ANGLE IF Y>64
    389  b2b5							;				 ; OR FLAP
    390  b2b5		       a5 c4		      LDA	FLAP	;		     ; FIND THE LOW BYTE FOR THE STAMP
    391  b2b7		       4a		      LSR
    392  b2b8		       90 08		      BCC	NOFLAP	;		   ;FLAP ONLY IF THE ANGLE IS ZERO
    393  b2ba		       a5 77		      LDA	LA
    394  b2bc		       d0 04		      BNE	NOFLAP
    395  b2be		       a9 08		      LDA	#8
    396  b2c0		       85 77	   DLFKK      STA	LA
    397  b2c2		       a6 d5	   NOFLAP     LDX	LTYPE
    398  b2c4		       bd 77 b7 	      LDA	PALWDT,X	;		 ;PALLET AND WIDTH
    399  b2c7		       85 79		      STA	HEADER1
    400  b2c9		       bd ac b7 	      LDA	TYPTOLT,X
    401  b2cc		       18		      CLC
    402  b2cd		       65 77		      ADC	LA
    403  b2cf		       aa		      TAX
    404  b2d0		       bd e1 b7 	      LDA	LSTPTBL,X
    405  b2d3		       85 78		      STA	HEADER0	;		  ;LOW BYTE OF STAMP ADDRESS
    406  b2d5		       a5 76	   SZLP       LDA	LY
    407  b2d7		       4a		      LSR
    408  b2d8		       4a		      LSR
    409  b2d9		       aa		      TAX
    410  b2da		       bd eb b6 	      LDA	DIV3,X
    411  b2dd		       aa		      TAX		;			      ;X NOW HAS CURRENT ZONE
    412  b2de		       b4 c5		      LDY	LISTSIZ,X
    413  b2e0		       c0 4d		      CPY	#77	;		      ;NEED ROOM FOR ONE MORE HDR
    414  b2e2		       90 03		      BCC	CONT
    415  b2e4		       bc 6c 27 	      LDY	LISTSIZ2,X	;	       ;USE SECOND LIST
    416  b2e7		       a5 6f	   CONT       LDA	TEMP6
    417  b2e9		       c9 41		      CMP	#65
    418  b2eb		       90 0c		      BCC	CONT1
    419  b2ed		       a5 76		      LDA	LY
    420  b2ef		       38		      SEC
    421  b2f0		       fd 30 b7 	      SBC	ZOFF,X
    422  b2f3		       18		      CLC
    423  b2f4		       69 c0		      ADC	#$C0	;		     ;NEXT GRAPHICS AT $C000
    424  b2f6		       4c 02 b3 	      JMP	CONT2
    425  b2f9		       a5 76	   CONT1      LDA	LY
    426  b2fb		       38		      SEC
    427  b2fc		       fd 30 b7 	      SBC	ZOFF,X
    428  b2ff		       18		      CLC
    429  b300		       69 a0		      ADC	#>MARIA2
    430  b302		       85 7a	   CONT2      STA	HEADER2
    431  b304		       bd 47 b7 	      LDA	LISTTABL,X	;	       ;GET POINTER TO THE ZONES LIST
    432  b307		       85 65		      STA	LISTPTR
    433  b309		       bd 57 b7 	      LDA	LISTTBH1,X
    434  b30c		       24 73		      BIT	DLSPTR
    435  b30e		       30 03		      BMI	LUST1
    436  b310		       bd 67 b7 	      LDA	LISTTBH2,X
    437  b313		       85 66	   LUST1      STA	LISTPTR+1
    438  b315		       a5 78		      LDA	HEADER0	;		  ;STORE THE HEADER
    439  b317		       91 65		      STA	(LISTPTR),Y
    440  b319		       c8		      INY
    441  b31a		       a5 79		      LDA	HEADER1
    442  b31c		       91 65		      STA	(LISTPTR),Y
    443  b31e		       c8		      INY
    444  b31f		       a5 7a		      LDA	HEADER2
    445  b321		       91 65		      STA	(LISTPTR),Y
    446  b323		       c8		      INY
    447  b324		       a5 7b		      LDA	HEADER3
    448  b326		       91 65		      STA	(LISTPTR),Y
    449  b328		       c8		      INY
    450  b329		       b5 c5		      LDA	LISTSIZ,X	;	       ;SEE IF USING LIST 2
    451  b32b		       c9 4d		      CMP	#77
    452  b32d		       90 06		      BCC	LUST4
    453  b32f		       98		      TYA
    454  b330		       9d 6c 27 	      STA	LISTSIZ2,X	;	       ;STORE NEW LIST SIZE
    455  b333		       d0 03		      BNE	CROSSB1
    456  b335		       98	   LUST4      TYA
    457  b336		       95 c5		      STA	LISTSIZ,X	;		;INCREMENT THE OFFSET
    458  b338		       a5 6f	   CROSSB1    LDA	TEMP6	;		    ;SEE IF WORD
    459  b33a		       c9 41		      CMP	#65
    460  b33c		       b0 4d		      BCS	XXXX
    461  b33e		       a5 7a		      LDA	HEADER2	;		  ;SEE IF GOES TO NEXT ZONE
    462  b340		       c9 a3		      CMP	#$A3	;		     ;GRAPHICS ORG"D AT $A000
    463  b342		       90 47		      BCC	XXXX
    464  b344		       e0 0f		      CPX	#$F
    465  b346		       f0 43		      BEQ	XXXX
    466  b348		       38		      SEC
    467  b349		       e9 0c		      SBC	#$C
    468  b34b		       85 7a		      STA	HEADER2
    469  b34d		       e8		      INX
    470  b34e		       b4 c5		      LDY	LISTSIZ,X
    471  b350		       c0 4d		      CPY	#77
    472  b352		       90 03		      BCC	LUST3
    473  b354		       bc 6c 27 	      LDY	LISTSIZ2,X
    474  b357		       bd 47 b7    LUST3      LDA	LISTTABL,X	;	       ;GET POINTER TO THE ZONES LIST
    475  b35a		       85 65		      STA	LISTPTR
    476  b35c		       bd 57 b7 	      LDA	LISTTBH1,X
    477  b35f		       24 73		      BIT	DLSPTR
    478  b361		       30 03		      BMI	LUST2
    479  b363		       bd 67 b7 	      LDA	LISTTBH2,X
    480  b366		       85 66	   LUST2      STA	LISTPTR+1
    481  b368		       a5 78		      LDA	HEADER0	;		  ;STORE THE HEADER
    482  b36a		       91 65		      STA	(LISTPTR),Y
    483  b36c		       c8		      INY
    484  b36d		       a5 79		      LDA	HEADER1
    485  b36f		       91 65		      STA	(LISTPTR),Y
    486  b371		       c8		      INY
    487  b372		       a5 7a		      LDA	HEADER2
    488  b374		       91 65		      STA	(LISTPTR),Y
    489  b376		       c8		      INY
    490  b377		       a5 7b		      LDA	HEADER3
    491  b379		       91 65		      STA	(LISTPTR),Y
    492  b37b		       c8		      INY
    493  b37c		       b5 c5		      LDA	LISTSIZ,X
    494  b37e		       c9 4d		      CMP	#77
    495  b380		       90 06		      BCC	LUST5
    496  b382		       98		      TYA
    497  b383		       9d 6c 27 	      STA	LISTSIZ2,X
    498  b386		       d0 03		      BNE	XXXX
    499  b388		       98	   LUST5      TYA
    500  b389		       95 c5		      STA	LISTSIZ,X	;		;INCREMENT THE OFFSET
    501  b38b		       4c 8d b2    XXXX       JMP	XXX
    502  b38e		       a2 ff	   DONENMY    LDX	#$FF
    503  b390		       a5 e5		      LDA	INHSC	;		    ;SEE IF IN HSC
    504  b392		       d0 04		      BNE	ZHSCLEND
    505  b394		       a5 75		      LDA	RLOGO
    506  b396		       d0 03		      BNE	LPFZ0
    507  b398		       4c 7d b5    ZHSCLEND   JMP	LEND
    508  b39b		       ac 47 b7    LPFZ0      LDY	LISTTABL+0
    509  b39e		       84 65		      STY	LISTPTR
    510  b3a0		       ac 57 b7 	      LDY	LISTTBH1+0
    511  b3a3		       24 73		      BIT	DLSPTR
    512  b3a5		       30 03		      BMI	LZL10
    513  b3a7		       ac 67 b7 	      LDY	LISTTBH2+0
    514  b3aa		       84 66	   LZL10      STY	LISTPTR+1
    515  b3ac		       e8	   SLOADER    INX
    516  b3ad		       e0 10		      CPX	#16
    517  b3af		       f0 4a		      BEQ	PUTRACK
    518  b3b1		       bd 5c 27 	      LDA	SCORE,X
    519  b3b4		       c9 0a		      CMP	#$A
    520  b3b6		       f0 f4		      BEQ	SLOADER
    521  b3b8		       0a		      ASL
    522  b3b9		       18		      CLC
    523  b3ba		       69 ec		      ADC	#<DIGIT
    524  b3bc		       85 78		      STA	HEADER0
    525  b3be		       a9 9e		      LDA	#$9E	;		     ;NUMBERS ON FIRST GRAPHICS PAGE
    526  b3c0		       69 00		      ADC	#0
    527  b3c2		       85 7a		      STA	HEADER2
    528  b3c4		       a9 7e		      LDA	#$7E	;		     ;PALETTE AND WIDTH
    529  b3c6		       85 79		      STA	HEADER1
    530  b3c8		       bd 82 b8 	      LDA	GETXSC,X
    531  b3cb		       85 7b		      STA	HEADER3
    532  b3cd		       a4 c5		      LDY	LISTSIZ+0
    533  b3cf		       c0 4d		      CPY	#77
    534  b3d1		       90 03		      BCC	OVER1
    535  b3d3		       ac 6c 27 	      LDY	LISTSIZ2+0
    536  b3d6				   OVER1
    537  b3d6		       a5 78		      LDA	HEADER0
    538  b3d8		       91 65		      STA	(LISTPTR),Y
    539  b3da		       c8		      INY
    540  b3db		       a5 79		      LDA	HEADER1
    541  b3dd		       91 65		      STA	(LISTPTR),Y
    542  b3df		       c8		      INY
    543  b3e0		       a5 7a		      LDA	HEADER2
    544  b3e2		       91 65		      STA	(LISTPTR),Y
    545  b3e4		       c8		      INY
    546  b3e5		       a5 7b		      LDA	HEADER3
    547  b3e7		       91 65		      STA	(LISTPTR),Y
    548  b3e9		       c8		      INY
    549  b3ea		       98		      TYA
    550  b3eb		       a4 c5		      LDY	LISTSIZ+0
    551  b3ed		       c0 4d		      CPY	#77
    552  b3ef		       90 05		      BCC	OVER2
    553  b3f1		       8d 6c 27 	      STA	LISTSIZ2+0
    554  b3f4		       b0 02		      BCS	OVER3
    555  b3f6		       85 c5	   OVER2      STA	LISTSIZ+0
    556  b3f8		       4c ac b3    OVER3      JMP	SLOADER
    557  b3fb							;*PUT UP RACK NUMBER HERE
    558  b3fb		       ac 56 b7    PUTRACK    LDY	LISTTABL+15
    559  b3fe		       84 65		      STY	LISTPTR
    560  b400		       ac 66 b7 	      LDY	LISTTBH1+15
    561  b403		       24 73		      BIT	DLSPTR
    562  b405		       30 03		      BMI	LZL11
    563  b407		       ac 76 b7 	      LDY	LISTTBH2+15
    564  b40a		       84 66	   LZL11      STY	LISTPTR+1
    565  b40c		       a5 43		      LDA	GASTONHK	;		 ;BCD RACK NUMBER
    566  b40e		       29 0f		      AND	#$0F	;		     ;BOOT HIGH NIBBLE
    567  b410		       85 72		      STA	TEMP8+1	;		  ;ONES DIGIT
    568  b412		       a5 43		      LDA	GASTONHK
    569  b414		       4a		      LSR
    570  b415		       4a		      LSR
    571  b416		       4a		      LSR
    572  b417		       4a		      LSR
    573  b418		       85 71		      STA	TEMP8	;		    ;TENS DIGIT
    574  b41a				   OUTRLOP
    575  b41a							;	   LDA	   TEMP8
    576  b41a		       f0 2c		      BEQ	OUTRAL
    577  b41c		       0a		      ASL
    578  b41d		       18		      CLC
    579  b41e		       69 ec		      ADC	#<DIGIT
    580  b420		       85 78		      STA	HEADER0
    581  b422		       a9 9e		      LDA	#$9E	;		     ;1ST GRAPHICS PAGE
    582  b424		       69 00		      ADC	#0
    583  b426		       85 7a		      STA	HEADER2
    584  b428		       a9 7e		      LDA	#$7E
    585  b42a		       85 79		      STA	HEADER1
    586  b42c		       a9 8e		      LDA	#142
    587  b42e		       85 7b		      STA	HEADER3
    588  b430		       a4 d4		      LDY	LISTSIZ+15
    589  b432		       a5 78		      LDA	HEADER0
    590  b434		       91 65		      STA	(LISTPTR),Y
    591  b436		       c8		      INY
    592  b437		       a5 79		      LDA	HEADER1
    593  b439		       91 65		      STA	(LISTPTR),Y
    594  b43b		       c8		      INY
    595  b43c		       a5 7a		      LDA	HEADER2
    596  b43e		       91 65		      STA	(LISTPTR),Y
    597  b440		       c8		      INY
    598  b441		       a5 7b		      LDA	HEADER3
    599  b443		       91 65		      STA	(LISTPTR),Y
    600  b445		       c8		      INY
    601  b446		       84 d4		      STY	LISTSIZ+15
    602  b448		       a5 72	   OUTRAL     LDA	TEMP8+1
    603  b44a		       0a		      ASL
    604  b44b		       18		      CLC
    605  b44c		       69 ec		      ADC	#<DIGIT
    606  b44e		       85 78		      STA	HEADER0
    607  b450		       a9 9e		      LDA	#$9E	;		     ;FIRST GRAPHICS PAGE
    608  b452		       69 00		      ADC	#0
    609  b454		       85 7a		      STA	HEADER2
    610  b456		       a9 7e		      LDA	#$7E
    611  b458		       85 79		      STA	HEADER1
    612  b45a		       a9 96		      LDA	#150
    613  b45c		       85 7b		      STA	HEADER3
    614  b45e		       a4 d4		      LDY	LISTSIZ+15
    615  b460		       a5 78		      LDA	HEADER0
    616  b462		       91 65		      STA	(LISTPTR),Y
    617  b464		       c8		      INY
    618  b465		       a5 79		      LDA	HEADER1
    619  b467		       91 65		      STA	(LISTPTR),Y
    620  b469		       c8		      INY
    621  b46a		       a5 7a		      LDA	HEADER2
    622  b46c		       91 65		      STA	(LISTPTR),Y
    623  b46e		       c8		      INY
    624  b46f		       a5 7b		      LDA	HEADER3
    625  b471		       91 65		      STA	(LISTPTR),Y
    626  b473		       c8		      INY
    627  b474		       84 d4		      STY	LISTSIZ+15
    628  b476				   INDLOAD
    629  b476		       a6 ae		      LDX	PLAYER
    630  b478		       b5 b1		      LDA	LIVES,X
    631  b47a		       aa		      TAX
    632  b47b		       ca		      DEX
    633  b47c		       f0 3e		      BEQ	BEAMLOAD
    634  b47e		       a9 a0	   PUTIND     LDA	#>MARIA2
    635  b480		       85 7a		      STA	HEADER2
    636  b482		       a9 aa		      LDA	#<HEROS
    637  b484		       85 78		      STA	HEADER0
    638  b486		       a9 1e		      LDA	#$1E
    639  b488		       85 79		      STA	HEADER1
    640  b48a		       bd dd b6 	      LDA	INDX,X
    641  b48d		       85 7b		      STA	HEADER3
    642  b48f		       a4 d4		      LDY	LISTSIZ+15
    643  b491		       c0 4d		      CPY	#77	;		      SEE IF HAVE EXCEEDED DISPLAY LIST SIZE
    644  b493		       90 03		      BCC	LSTLINOK
    645  b495		       ac 74 27 	      LDY	LISTSIZ2+8	;	       USE SECOND LIST OF SIZES
    646  b498		       a5 78	   LSTLINOK   LDA	HEADER0
    647  b49a		       91 65		      STA	(LISTPTR),Y
    648  b49c		       c8		      INY
    649  b49d		       a5 79		      LDA	HEADER1
    650  b49f		       91 65		      STA	(LISTPTR),Y
    651  b4a1		       c8		      INY
    652  b4a2		       a5 7a		      LDA	HEADER2
    653  b4a4		       91 65		      STA	(LISTPTR),Y
    654  b4a6		       c8		      INY
    655  b4a7		       a5 7b		      LDA	HEADER3
    656  b4a9		       91 65		      STA	(LISTPTR),Y
    657  b4ab		       c8		      INY
    658  b4ac		       a5 d4		      LDA	LISTSIZ+15	;	       SEE IF LIST HAS BEEN EXCEEDED
    659  b4ae		       c9 4d		      CMP	#77
    660  b4b0		       90 05		      BCC	LASTLNOK
    661  b4b2		       8c 74 27 	      STY	LISTSIZ2+8
    662  b4b5		       d0 02		      BNE	LASTLNOQ
    663  b4b7		       84 d4	   LASTLNOK   STY	LISTSIZ+15
    664  b4b9		       ca	   LASTLNOQ   DEX
    665  b4ba		       d0 c2		      BNE	PUTIND
    666  b4bc		       a5 b4	   BEAMLOAD   LDA	WAITCNT	;		  ;GRAB WAITCNT
    667  b4be		       f0 47		      BEQ	BEAM4	;		    ;IF ZERO, GO TO NEXT ROUTINE
    668  b4c0		       c9 78		      CMP	#120
    669  b4c2		       b0 07		      BCS	BEAM1
    670  b4c4		       a5 b4		      LDA	WAITCNT
    671  b4c6		       85 b7		      STA	WAITCNT3	;		 ;THIS IS THE ZONE OFFSET
    672  b4c8		       4c d2 b4 	      JMP	BEAM2
    673  b4cb		       a9 b5	   BEAM1      LDA	#181
    674  b4cd		       38		      SEC
    675  b4ce		       e5 b4		      SBC	WAITCNT
    676  b4d0		       85 b7		      STA	WAITCNT3
    677  b4d2		       a9 00	   BEAM2      LDA	#0	;		       ;FIRST DISPLAY ALL FULL ZONES
    678  b4d4		       85 b5		      STA	ZOFFSET	;		  ;CLEAR ZOFFSET
    679  b4d6		       a2 0b		      LDX	#11	;		      ;SET INDEX TO ZONE 12
    680  b4d8		       a5 b7	   BEAM3      LDA	WAITCNT3
    681  b4da		       38		      SEC
    682  b4db		       e9 0c		      SBC	#12
    683  b4dd		       90 18		      BCC	NEWZONE
    684  b4df		       85 b7		      STA	WAITCNT3
    685  b4e1		       a5 b5		      LDA	ZOFFSET
    686  b4e3		       18		      CLC
    687  b4e4		       69 0c		      ADC	#12
    688  b4e6		       85 b5		      STA	ZOFFSET	;		  ;ADVANCE OFFSET TO NEXT ZONE
    689  b4e8		       a9 0c		      LDA	#12
    690  b4ea		       85 b6		      STA	WAITCNT2
    691  b4ec		       20 0a b5 	      JSR	DISPLAYZ
    692  b4ef		       e8		      INX
    693  b4f0		       e0 0f		      CPX	#15
    694  b4f2		       f0 13		      BEQ	BEAM4	;		    ;ALL ZONES DISPLAYED
    695  b4f4		       4c d8 b4 	      JMP	BEAM3
    696  b4f7		       a5 b7	   NEWZONE    LDA	WAITCNT3	;		 ;SEE IF NEW ZONE NEEDED
    697  b4f9		       f0 0c		      BEQ	BEAM4
    698  b4fb		       18		      CLC
    699  b4fc		       65 b5		      ADC	ZOFFSET
    700  b4fe		       85 b5		      STA	ZOFFSET	;		  ;SET ZOFFSET FOR LAST DISPLAY
    701  b500		       a5 b7		      LDA	WAITCNT3	;		 ;GET OFFSET INTO LAST ZONE
    702  b502		       85 b6		      STA	WAITCNT2
    703  b504		       20 0a b5 	      JSR	DISPLAYZ	;		 ;NOW DISPLAY NEW ZONE
    704  b507		       4c 7d b5    BEAM4      JMP	LEND
    705  b50a		       bd 47 b7    DISPLAYZ   LDA	LISTTABL,X
    706  b50d		       85 65		      STA	LISTPTR
    707  b50f		       bd 57 b7 	      LDA	LISTTBH1,X	;	       ;GET HIGH @ BYTE
    708  b512		       24 73		      BIT	DLSPTR	;		   ;FIND CURRENT DISPLAY LIST
    709  b514		       30 03		      BMI	OTHERLST
    710  b516		       bd 67 b7 	      LDA	LISTTBH2,X	;	       ;GET OTHER HIGH @ BYTE
    711  b519		       85 66	   OTHERLST   STA	LISTPTR+1	;		;NOW LISTPTR POINTS TO THE DISPLAY
    712  b51b							;				 ;LIST OF THE CURRENT ZONE
    713  b51b		       a9 86		      LDA	#<LSHIELD	;	      ;LOW @ FOR LEFT SHIELD
    714  b51d		       85 78		      STA	HEADER0
    715  b51f		       a4 b5		      LDY	ZOFFSET	;		  ;GET TABLE OFFSET
    716  b521		       b9 ab b6 	      LDA	BMWIDTH,Y	;		;GET CURRENT BEAM WIDTH
    717  b524		       09 80		      ORA	#$80	;		     ;USE PALETTE 4
    718  b526		       85 79		      STA	HEADER1
    719  b528		       a9 a0		      LDA	#>MARIA2
    720  b52a		       38		      SEC
    721  b52b		       e9 0c		      SBC	#12
    722  b52d		       18		      CLC
    723  b52e		       65 b6		      ADC	WAITCNT2
    724  b530		       85 7a		      STA	HEADER2
    725  b532		       85 7e		      STA	HEADER6	;		  ;HIGH @ FOR RIGHT SHIELD
    726  b534		       a5 64		      LDA	CAPTUREX
    727  b536		       38		      SEC
    728  b537		       f9 79 b6 	      SBC	XCORDOFF,Y
    729  b53a		       85 7b		      STA	HEADER3
    730  b53c		       a9 8b		      LDA	#<RSHIELD
    731  b53e		       85 7c		      STA	HEADER4
    732  b540		       a9 9f		      LDA	#$9F	;		      ;PALETTE AND WIDTH
    733  b542		       85 7d		      STA	HEADER5
    734  b544		       a5 64		      LDA	CAPTUREX
    735  b546		       18		      CLC
    736  b547		       79 79 b6 	      ADC	XCORDOFF,Y
    737  b54a		       18		      CLC		;			      ;IN CASE OF NEGATIVE NO.
    738  b54b		       69 04		      ADC	#4
    739  b54d		       85 7f		      STA	HEADER7
    740  b54f							;ALL HEADERS LOADED, NOW STORE IN DISPLAY LIST
    741  b54f		       b4 c5		      LDY	LISTSIZ,X
    742  b551		       a5 78		      LDA	HEADER0
    743  b553		       91 65		      STA	(LISTPTR),Y
    744  b555		       c8		      INY
    745  b556		       a5 79		      LDA	HEADER1
    746  b558		       91 65		      STA	(LISTPTR),Y
    747  b55a		       c8		      INY
    748  b55b		       a5 7a		      LDA	HEADER2
    749  b55d		       91 65		      STA	(LISTPTR),Y
    750  b55f		       c8		      INY
    751  b560		       a5 7b		      LDA	HEADER3
    752  b562		       91 65		      STA	(LISTPTR),Y
    753  b564		       c8		      INY
    754  b565		       a5 7c		      LDA	HEADER4
    755  b567		       91 65		      STA	(LISTPTR),Y
    756  b569		       c8		      INY
    757  b56a		       a5 7d		      LDA	HEADER5
    758  b56c		       91 65		      STA	(LISTPTR),Y
    759  b56e		       c8		      INY
    760  b56f		       a5 7e		      LDA	HEADER6
    761  b571		       91 65		      STA	(LISTPTR),Y
    762  b573		       c8		      INY
    763  b574		       a5 7f		      LDA	HEADER7
    764  b576		       91 65		      STA	(LISTPTR),Y
    765  b578		       c8		      INY
    766  b579		       98		      TYA
    767  b57a		       95 c5		      STA	LISTSIZ,X	;		;RESET LIST SIZE FOR CURRENT ZONE
    768  b57c		       60		      RTS
    769  b57d		       a9 00	   LEND       LDA	#0	;		       ; PUT TWO ZEROS AT THE ENDS OF THE
    770  b57f		       a2 0f		      LDX	#15	;		      ; LISTS
    771  b581		       bc 47 b7    LPFZ       LDY	LISTTABL,X
    772  b584		       84 65		      STY	LISTPTR
    773  b586		       bc 57 b7 	      LDY	LISTTBH1,X
    774  b589		       24 73		      BIT	DLSPTR
    775  b58b		       30 03		      BMI	LZL1
    776  b58d		       bc 67 b7 	      LDY	LISTTBH2,X
    777  b590		       84 66	   LZL1       STY	LISTPTR+1
    778  b592		       b4 c5		      LDY	LISTSIZ,X
    779  b594		       91 65		      STA	(LISTPTR),Y
    780  b596		       c8		      INY
    781  b597		       91 65		      STA	(LISTPTR),Y
    782  b599		       ca		      DEX
    783  b59a		       10 e5		      BPL	LPFZ
    784  b59c							;SET DLL TO  POINT TO NEW DISPLAY LIST LIST
    785  b59c		       a5 e5		      LDA	INHSC	;		    ;SEE IF IN HSC
    786  b59e		       d0 5e		      BNE	CONTB	;		    ;IF SO, BOOT THIS PART
    787  b5a0		       a9 1d		      LDA	#>DLSTLST1
    788  b5a2		       24 73		      BIT	DLSPTR
    789  b5a4		       30 02		      BMI	DLST1
    790  b5a6		       a9 1d		      LDA	#>DLSTLST2
    791  b5a8		       85 2c	   DLST1      STA	DPPH
    792  b5aa		       a9 22		      LDA	#<DLSTLST1
    793  b5ac		       24 73		      BIT	DLSPTR
    794  b5ae		       30 02		      BMI	DLST11
    795  b5b0		       a9 61		      LDA	#<DLSTLST2
    796  b5b2		       85 30	   DLST11     STA	DPPL
    797  b5b4		       a5 73		      LDA	DLSPTR
    798  b5b6		       49 ff		      EOR	#$FF
    799  b5b8		       85 73		      STA	DLSPTR	;		   ;NEXT TIME, WILL USE OTHER DLL
    800  b5ba							;VESTIGAL KERNEL REMAINS
    801  b5ba		       a0 3f	   UPSHIP     LDY	#63
    802  b5bc		       b9 d3 1d 	      LDA	TYPE,Y
    803  b5bf		       f0 26		      BEQ	UNTOUCH1
    804  b5c1		       a5 b0		      LDA	AUTOPLAY	;		 ;NON ZERO IF IN AUTO
    805  b5c3		       f0 03		      BEQ	NLOOKTAB
    806  b5c5		       4c 39 b6 	      JMP	ALOOKTAB
    807  b5c8		       ad 9f 1f    NLOOKTAB   LDA	MODE+40	;		  ;SEE IF IN REUNITE MODE
    808  b5cb		       c9 09		      CMP	#9
    809  b5cd		       f0 18		      BEQ	UNTOUCH1
    810  b5cf		       a5 ae		      LDA	PLAYER	;		   ;SEE WHICH PLAYER IS UP
    811  b5d1		       f0 0d		      BEQ	NLOOKTB1
    812  b5d3		       ad 80 02 	      LDA	SWCHA
    813  b5d6		       6a		      ROR
    814  b5d7		       6a		      ROR
    815  b5d8		       6a		      ROR		;			;W BIT IN CARRY
    816  b5d9		       90 2e		      BCC	GOWEST
    817  b5db		       6a		      ROR
    818  b5dc		       90 39		      BCC	GOEAST	;		   ;E BIT IN CARRY
    819  b5de		       b0 07		      BCS	UNTOUCH1
    820  b5e0		       2c 80 02    NLOOKTB1   BIT	SWCHA
    821  b5e3		       10 32		      BPL	GOEAST
    822  b5e5		       50 22		      BVC	GOWEST
    823  b5e7				   UNTOUCH1
    824  b5e7		       e6 8c		      INC	STARINC
    825  b5e9		       a5 8c		      LDA	STARINC
    826  b5eb		       4a		      LSR
    827  b5ec		       90 00		      BCC	NODEC
    828  b5ee		       c6 83	   NODEC      DEC	ANIMATE
    829  b5f0		       d0 06		      BNE	CONTA
    830  b5f2		       a9 14		      LDA	#20
    831  b5f4		       85 83		      STA	ANIMATE
    832  b5f6		       e6 c4		      INC	FLAP
    833  b5f8		       a5 a9	   CONTA      LDA	MISTIMER
    834  b5fa		       f0 02		      BEQ	CONTB
    835  b5fc		       c6 a9		      DEC	MISTIMER
    836  b5fe				   CONTB
    837  b5fe		       e6 74		      INC	FRAME
    838  b600		       c6 d9		      DEC	BOOTLDR	;		  ;RESET LOADER FLAG
    839  b602		       a5 80		      LDA	SAVEA
    840  b604		       a6 81		      LDX	SAVEX
    841  b606		       a4 82		      LDY	SAVEY
    842  b608		       40	   SPURIOUS   RTI
    843  b609
    844  b609		       ad 5a 1e    GOWEST     LDA	HEROX
    845  b60c		       f0 d9		      BEQ	UNTOUCH1
    846  b60e		       ce 5a 1e 	      DEC	HEROX
    847  b611		       ce 59 1e 	      DEC	XCORD+62	;		 ;BLINDLY MOVE THIS GUY
    848  b614		       4c e7 b5 	      JMP	UNTOUCH1
    849  b617		       ad b6 1f    GOEAST     LDA	MODE+63	;		  ;GET HERO SHIP MODE
    850  b61a		       c9 0a		      CMP	#10	;		      ;SEE IF DUAL HERO MODE
    851  b61c		       d0 0f		      BNE	GOEAST1
    852  b61e		       ad 5a 1e 	      LDA	HEROX
    853  b621		       c9 91		      CMP	#145
    854  b623		       f0 c2		      BEQ	UNTOUCH1
    855  b625		       ee 5a 1e 	      INC	HEROX
    856  b628		       ee 59 1e 	      INC	XCORD+62	;		 ;BLINDLY MOVE THIS GUY
    857  b62b		       d0 ba		      BNE	UNTOUCH1
    858  b62d		       ad 5a 1e    GOEAST1    LDA	HEROX
    859  b630		       c9 98		      CMP	#152
    860  b632		       f0 b3		      BEQ	UNTOUCH1
    861  b634		       ee 5a 1e 	      INC	HEROX
    862  b637		       d0 ae		      BNE	UNTOUCH1
    863  b639		       a4 c1	   ALOOKTAB   LDY	TABPNT	;		   ;HANDLES AUTO GAME
    864  b63b		       b9 71 b8 	      LDA	AUTAB,Y	;		  ;PICK X COORDINATE TO SHOOT FOR
    865  b63e		       cd 5a 1e 	      CMP	HEROX
    866  b641		       f0 04		      BEQ	TINCPNT	;		  ;INCREMENT POINTER IF IT IS REACHED
    867  b643		       b0 d2		      BCS	GOEAST
    868  b645		       90 c2		      BCC	GOWEST
    869  b647		       e6 c1	   TINCPNT    INC	TABPNT
    870  b649		       a5 c1		      LDA	TABPNT
    871  b64b		       c9 10		      CMP	#16
    872  b64d		       f0 03		      BEQ	TINCPP
    873  b64f		       4c e7 b5 	      JMP	UNTOUCH1
    874  b652		       a9 00	   TINCPP     LDA	#0
    875  b654		       85 c1		      STA	TABPNT
    876  b656		       4c e7 b5 	      JMP	UNTOUCH1
    877  b659				   ATABL
    878  b659		       0c 48 0e 00 PTABL      DC.B	$0C,$48,$0E,$00	; 0: HERO SHIP 	(41,61,71)
    879  b65d		       1f 94 45 00	      DC.B	$1F,$94,$45,$00	; 1: RED BUG
    880  b661		       2c 0f 28 00	      DC.B	$2C,$0F,$28,$00	; 2: EXPLOSIONS, SMALL NUMBERS
    881  b665		       09 1f 1d 00	      DC.B	$09,$1F,$1D,$00	; 3: MISSILES, WORDS, SCORES, RACK
    882  b669		       9b e0 1f 00	      DC.B	$9B,$E0,$1F,$00	; 4: BLUE BOSS
    883  b66d		       d6 40 1c 00	      DC.B	$D6,$40,$1C,$00	; 5: REGULAR BOSS
    884  b671		       e9 e4 87 00	      DC.B	$E9,$E4,$87,$00	; 6: LOGO
    885  b675		       1f 95 40 00	      DC.B	$1F,$95,$40,$00	; 7: BLUE BUG
    886  b679
    887  b679		       00 00 00 00*XCORDOFF   DC.B	0,0,0,0,0,1,1,1,1,1,1,2,2,2,2,2,2,3,3,3,3,3,3
    888  b690		       04 04 04 04*	      DC.B	4,4,4,4,4,4,5,5,5,5,5,5,6,6,6,6,6,6
    889  b6a2		       07 07 07 07*	      DC.B	7,7,7,7,7,7,8,8,8
    890  b6ab
    891  b6ab		       1e 1e 1e 1e*BMWIDTH    DC.B	$1E,$1E,$1E,$1E,$1E,$1E,$1E,$1E,$1E,$1E,$1E,$1E,$1E,$1E
    892  b6b9		       1e 1e 1e 1d*	      DC.B	$1E,$1E,$1E,$1D,$1D,$1D,$1D,$1D,$1D,$1D,$1D,$1D,$1D,$1D
    893  b6c7		       1d 1c 1c 1c*	      DC.B	$1D,$1C,$1C,$1C,$1C,$1C,$1C,$1C,$1C,$1C,$1C,$1C,$1C,$1B
    894  b6d5		       1b 1b 1b 1b*	      DC.B	$1B,$1B,$1B,$1B,$1B,$1B,$1B,$1B
    895  b6dd
    896  b6dd		       00 00 0a 14*INDX       DC.B	0,0,10,20,30,40,50,60,70,80,90,100,110,120
    897  b6eb
    898  b6eb		       00 00 00 01*DIV3       DC.B	0,0,0,1,1,1,2,2,2,3,3,3,4,4,4,5,5,5,6,6,6,7,7,7
    899  b703		       08 08 08 09*	      DC.B	8,8,8,9,9,9,10,10,10,11,11,11,12,12,12,13,13,13
    900  b715		       0e 0e 0e 0f*	      DC.B	14,14,14,15,15,15,16,16,16,17,17,17,18,18,18,19,19,19
    901  b727		       14 14 14 15*	      DC.B	20,20,20,21,21,21,22,22,22
    902  b730		       00 0c 18 24*ZOFF       DC.B	0,12,24,36,48,60,72,84,96,108,120,132,144,156,168,180,192
    903  b741		       f4 f4 f4 f4*	      DC.B	$F4,$F4,$F4,$F4,$F4,$F4
    904  b747
    905  b747		       00 52 a4 f6*LISTTABL   DC.B	<S1L1,<S1L2,<S1L3,<S1L4,<S1L5,<S1L6
    906  b74d		       ec 3e 90 e2*	      DC.B	<S1L7,<S1L8,<S1L9,<S1L10,<S1L11,<S1L12
    907  b753		       d8 2a 7c ce	      DC.B	<S1L13,<S1L14,<S1L15,<S1L16
    908  b757		       18 18 18 18*LISTTBH1   DC.B	>S1L1,>S1L2,>S1L3,>S1L4,>S1L5,>S1L6
    909  b75d		       19 1a 1a 1a*	      DC.B	>S1L7,>S1L8,>S1L9,>S1L10,>S1L11,>S1L12
    910  b763		       1b 1c 1c 1c	      DC.B	>S1L13,>S1L14,>S1L15,>S1L16
    911  b767		       22 22 22 22*LISTTBH2   DC.B	>S2L1,>S2L2,>S2L3,>S2L4,>S2L5,>S2L6
    912  b76d		       23 24 24 24*	      DC.B	>S2L7,>S2L8,>S2L9,>S2L10,>S2L11,>S2L12
    913  b773		       25 26 26 26	      DC.B	>S2L13,>S2L14,>S2L15,>S2L16
    914  b777							;GIVES PALETTE AND WIDTH INDEXED BY TYPE
    915  b777		       00	   PALWDT     DC.B	0	;			;PALLET FOR NOTHING
    916  b778		       fe		      DC.B	$FE	;		      ;PALLET FOR BLUE BUG
    917  b779		       3e		      DC.B	$3E	;		      ;PALLET FOR RED BUG
    918  b77a		       be		      DC.B	$BE	;		      ;PALLET FOR REG BOS-GALAGA
    919  b77b		       9e		      DC.B	$9E	;		      ;PALLET FOR BLUE BOS-GALAGA
    920  b77c		       1e		      DC.B	$1E	;		      ;PALLET FOR HERO SHIP
    921  b77d		       00		      DC.B	0	;			;INVISO SHIP (NOT USED)
    922  b77e		       7e		      DC.B	$7E	;		      ;PALLET FOR MISSLES
    923  b77f		       5d		      DC.B	$5D	;		      ;PALLET FOR EXPLOSIONS
    924  b780		       5c		      DC.B	$5C	;		      ;PALLET FOR SMALL NUMBERS
    925  b781		       5c		      DC.B	$5C	;		      ;PALLET FOR SMALL NUMBERS
    926  b782		       5c		      DC.B	$5C	;		      ;PALLET FOR SMALL NUMBERS
    927  b783		       5c		      DC.B	$5C	;		      ;PALLET FOR SMALL NUMBERS
    928  b784		       7e		      DC.B	$7E	;		      ;SCORPION,PAL=?,T=13
    929  b785		       00 00		      DC.B	0,0
    930  b787		       be		      DC.B	$BE	;		      ;PALLET FOR REG-BOSS GALAGA
    931  b788		       9e		      DC.B	$9E	;		      ;PALLET FOR BLUE-BOSS GALAGA
    932  b789		       d3		      DC.B	$D3	;		      ;LOGO SECTIONS, W=13,T=18
    933  b78a		       d3		      DC.B	$D3	;		      ;T=19
    934  b78b		       d3		      DC.B	$D3	;		      ;T=20
    935  b78c		       d3		      DC.B	$D3	;		      ;T=21
    936  b78d		       d7		      DC.B	$D7	;		      ;T=22
    937  b78e		       d7		      DC.B	$D7	;		      ;T=23
    938  b78f		       7e		      DC.B	$7E	;		      ;T=24, LINE, NOT USED
    939  b790		       77		      DC.B	$77	;		      ;THIS IS PLAYER
    940  b791		       78		      DC.B	$78	;		      ;WIDTH 8 FOR READY....
    941  b792		       7c		      DC.B	$7C	;		      ;DOUBLE MISSILE  TYPE=27
    942  b793		       73		      DC.B	$73	;		      ;GAME OVER, WIDTH = 13
    943  b794		       70		      DC.B	$70	;		      ;CHALLENGING, WIDTH = 16
    944  b795		       79		      DC.B	$79	;		      ;STAGE, WIDTH = 7
    945  b796		       7e		      DC.B	$7E	;		      ;"1", WIDTH = 2
    946  b797		       7e		      DC.B	$7E	;		      ;"2", WIDTH = 2
    947  b798		       76		      DC.B	$76	;		      ;"FIGHTER" WIDTH = 10
    948  b799		       74		      DC.B	$74	;		      ;"CAPTURED" WIDTH = 12
    949  b79a		       9c		      DC.B	$9C	;		      ;TWINKLE, PAL 4, WIDTH = 4
    950  b79b		       6c		      DC.B	$6C	;		      ;NUMOFHTS, PAL3, W=20, TYPE=36
    951  b79c		       76		      DC.B	$76	;		      ;PERFECT, W=10, PAL3, TYPE=37
    952  b79d		       6d		      DC.B	$6D	;		      ;SPECIAL BONUS, W=19, TYPE=38
    953  b79e		       78		      DC.B	$78	;		      ;BONUS, W=8, TYPE=39
    954  b79f		       7e		      DC.B	$7E	;		      ;DIGIT, W=2, TYPE=40
    955  b7a0		       7a		      DC.B	$7A	;		      ;TEN K, W=6, TYPE=41
    956  b7a1		       7d		      DC.B	$7D	;		      ;DOUBLE ZERO, W=3, TYPE=42
    957  b7a2		       74		      DC.B	$74	;		      ;ADVANCED,W=12,T=43
    958  b7a3		       77		      DC.B	$77	;		      ;EXPERT,W=9,T=44
    959  b7a4		       77		      DC.B	$77	;		      ;NOVICE,W=9,T=45
    960  b7a5		       78		      DC.B	$78	;		      ;LEVEL,W=8,T=46
    961  b7a6		       75		      DC.B	$75	;		      ;PLAYERS,W=11?,T=47
    962  b7a7		       7e		      DC.B	$7E	;		      ;SONE,W=2,T=48
    963  b7a8		       7e		      DC.B	$7E	;		      ;TTWO,W=2,T=49
    964  b7a9		       fe		      DC.B	$FE	;		      ;NEWBIRD,W=2,T=50
    965  b7aa		       7e		      DC.B	$7E	;		      ;%,W=2,T=51
    966  b7ab		       5d		      DC.B	$5D	;		      ;HERO EXPLOSION, W=3,T=52
    967  b7ac
    968  b7ac							;THIS TABLE IS INDEXED BY THE TYPE OF THE GIVEN CHARACTER
    969  b7ac							; IT GIVES AN INDEX INTO THE LSTPTBL
    970  b7ac		       00	   TYPTOLT    DC.B	0	;			;CALL NO SHIP GRAPHICS (NOT USED)
    971  b7ad		       00		      DC.B	0	;			;CALL BLUE BUG GRAPHICS
    972  b7ae		       09		      DC.B	9	;			;CALL RED BUG GRAPHICS
    973  b7af		       12		      DC.B	18	;		       ;CALL BOSS BUG GRAPHICS
    974  b7b0		       12		      DC.B	18	;		       ;CALL BOSS BUG GRAPHICS
    975  b7b1		       1b		      DC.B	27	;		       ;CALL HERO GRAPHICS
    976  b7b2		       00		      DC.B	0	;			;CALL INVISO SHIP GRAPHICS (NOT USED)
    977  b7b3		       2d		      DC.B	45	;		       ;CALL MISSLE GRAPHICS
    978  b7b4		       24		      DC.B	36	;		       ;CALL EXPLOSION GRAPHICS
    979  b7b5		       35		      DC.B	53	;		       ;CALL SMALL NUMBER GRAPHICS
    980  b7b6		       36		      DC.B	54	;		       ;CALL SMALL NUMBER GRAPHICS
    981  b7b7		       37		      DC.B	55	;		       ;CALL SMALL NUMBER GRAPHICS
    982  b7b8		       38		      DC.B	56	;		       ;CALL SMALL NUMBER GRAPHICS
    983  b7b9		       7e		      DC.B	126	;		      ;SCORPION,T=13
    984  b7ba		       00 00		      DC.B	0,0
    985  b7bc		       12		      DC.B	18	;		       ;CALL BOSS BUG GRAPHICS
    986  b7bd		       12		      DC.B	18	;		       ;CALL BOSS BUG GRAPHICS
    987  b7be		       45 46 47 48*	      DC.B	69,70,71,72,73,74,75
    988  b7c5		       4c		      DC.B	76	;		       ;THIS IS FOR PLAYER ANGLE IS 1
    989  b7c6		       4d		      DC.B	77	;		       ;FOR READY
    990  b7c7		       2d		      DC.B	45	;		       ;CALL MISSILE GRAPHICS
    991  b7c8		       4e		      DC.B	78	;		       ;GAME OVER
    992  b7c9		       4f		      DC.B	79	;		       ;CHALLENGING
    993  b7ca		       50		      DC.B	80	;		       ;STAGE
    994  b7cb		       51		      DC.B	81	;		       ;"1"
    995  b7cc		       52		      DC.B	82	;		       ;"2"
    996  b7cd		       53		      DC.B	83	;		       ;FIGHTER
    997  b7ce		       54		      DC.B	84	;		       ;CAPTURED
    998  b7cf		       56		      DC.B	86	;		       ;TWINKLE    TYPE=35
    999  b7d0		       5d		      DC.B	93	;		       ;NUMOFHTS, T=36
   1000  b7d1		       5e		      DC.B	94	;		       ;PERFECT, T=37
   1001  b7d2		       5f		      DC.B	95	;		       ;SPECIAL BONUS, T=38
   1002  b7d3		       60		      DC.B	96	;		       ;BONUS, T=39
   1003  b7d4		       62		      DC.B	98	;		       ;DIGIT, T=40
   1004  b7d5		       6b		      DC.B	107	;		      ;TENK, T=41
   1005  b7d6		       6c		      DC.B	108	;		      ;DBLZERO, T=42
   1006  b7d7		       6d		      DC.B	109	;		      ;ADVANCED,T=43
   1007  b7d8		       6e		      DC.B	110	;		      ;EXPERT,T=44
   1008  b7d9		       6f		      DC.B	111	;		      ;NOVICE,T=45
   1009  b7da		       70		      DC.B	112	;		      ;LEVEL,T=46
   1010  b7db		       4c		      DC.B	76	;		       ;PLAYERS,T=47
   1011  b7dc		       71		      DC.B	113	;		      ;"1",T=48
   1012  b7dd		       72		      DC.B	114	;		      ;"2",T=49
   1013  b7de		       74		      DC.B	116	;		      ;NEWBIRD,T=50
   1014  b7df		       7c		      DC.B	124	;		      ;%,T=51
   1015  b7e0		       87		      DC.B	135	;		      ;HERO EXPLOSION, T=52
   1016  b7e1
   1017  b7e1		       9e c2 c4 c6 LSTPTBL    DC.B	<BLUBUG,<BLUBUG1,<BLUBUG2,<BLUBUG3
   1018  b7e5		       c8 ca cc ce*	      DC.B	<BLUBUG4,<BLUBUG5,<BLUBUG6,<BLUBUG7,<BLUBUGF
   1019  b7ea		       a2 d0 d2 d4	      DC.B	<REDBUG,<REDBUG1,<REDBUG2,<REDBUG3
   1020  b7ee		       d6 d8 da dc*	      DC.B	<REDBUG4,<REDBUG5,<REDBUG6,<REDBUG7,<REDBUGF
   1021  b7f3		       a6 de e0 e2	      DC.B	<BOSGAL,<BOSGAL1,<BOSGAL2,<BOSGAL3	;	       ;21
   1022  b7f7		       e4 e6 e8 ea*	      DC.B	<BOSGAL4,<BOSGAL5,<BOSGAL6,<BOSGAL7,<BOSGALF
   1023  b7fc		       aa ac ae b0	      DC.B	<HEROS,<HERO1,<HERO2,<HERO3
   1024  b800		       b2 b4 b6 b8*	      DC.B	<HERO4,<HERO5,<HERO6,<HERO7,<HEROS	;	     ;35
   1025  b805		       29 26 23 20	      DC.B	<EXPLO0,<EXPLO1,<EXPLO2,<EXPLO3
   1026  b809		       1d 1a 17 00*	      DC.B	<EXPLO4,<EXPLO5,<EXPLO6,<EXPLO7,<EXPLO0	;44
   1027  b80e		       ba ba ba ba	      DC.B	<MISSLE,<MISSLE,<MISSLE,<MISSLE
   1028  b812		       be ba ba ba*	      DC.B	<MISSLE4,<MISSLE,<MISSLE,<MISSLE,<MISSLE	;53
   1029  b817		       98 94 90 8c	      DC.B	<SIXTYPE,<THOTYPE,<EIGTYPE,<FOUTYPE	;NEW
   1030  b81b		       8c 8c 8c 8c*	      DC.B	<FOUTYPE,<FOUTYPE,<FOUTYPE,<FOUTYPE,<FOUTYPE
   1031  b820		       8c 8c 8c 8c	      DC.B	<FOUTYPE,<FOUTYPE,<FOUTYPE,<FOUTYPE	;NEW
   1032  b824		       8c 8c 8c 	      DC.B	<FOUTYPE,<FOUTYPE,<FOUTYPE	;	       ;NEW
   1033  b827		       66 73 80 8d	      DC.B	<LULOGO,<LILOGO,<RULOGO,<RILOGO
   1034  b82b		       9a a3		      DC.B	<BULOGO,<BILOGO
   1035  b82d		       ac		      DC.B	<LINE
   1036  b82e		       d8		      DC.B	<PLAYERG	;	       ;77
   1037  b82f		       ea		      DC.B	<READY	;		 ;78
   1038  b830		       f2		      DC.B	<GMEOVER	;	       ;79
   1039  b831		       c8		      DC.B	<CHLNGING	;	      ;80
   1040  b832		       e3		      DC.B	<STAGE	;		 ;81
   1041  b833		       c4		      DC.B	<PONE	;		  ;82
   1042  b834		       c6		      DC.B	<PTWO	;		  ;83
   1043  b835		       ae		      DC.B	<FIGHTER	;	       ;84
   1044  b836		       b8		      DC.B	<CAPTD	;		 ;85
   1045  b837		       66		      DC.B	<TWINKLE	;	       ;86
   1046  b838		       6a		      DC.B	<TWINKL1	;	       ;87
   1047  b839		       6e		      DC.B	<TWINKL2	;	       ;88
   1048  b83a		       72		      DC.B	<TWINKL3	;	       ;89
   1049  b83b		       76		      DC.B	<TWINKL4	;	       ;90
   1050  b83c		       7a		      DC.B	<TWINKL5	;	       ;91
   1051  b83d		       7e		      DC.B	<TWINKL6	;	       ;92
   1052  b83e		       82		      DC.B	<TWINKL7	;	       ;93
   1053  b83f		       35		      DC.B	<NUMOFHTS	;	      ;94TH ENTRY, ANGLE =1
   1054  b840		       49		      DC.B	<PERFECT	;	       ;95
   1055  b841		       53		      DC.B	<SPECIALG	;	      ;96
   1056  b842		       5e		      DC.B	<BONUS	;		 ;97
   1057  b843		       21		      DC.B	<DIGIT0	;		;98
   1058  b844		       23		      DC.B	<DIGIT1	;		;99
   1059  b845		       25		      DC.B	<DIGIT2
   1060  b846		       27		      DC.B	<DIGIT3
   1061  b847		       29		      DC.B	<DIGIT4
   1062  b848		       2b		      DC.B	<DIGIT5
   1063  b849		       2d		      DC.B	<DIGIT6
   1064  b84a		       2f		      DC.B	<DIGIT7
   1065  b84b		       31		      DC.B	<DIGIT8
   1066  b84c		       33		      DC.B	<DIGIT9	;		;107
   1067  b84d		       1b		      DC.B	<TENK	;		  ;108
   1068  b84e		       18		      DC.B	<DBLZERO	;	       ;109
   1069  b84f		       51		      DC.B	<ADVANCED	;	      ;110
   1070  b850		       5d		      DC.B	<EXPERT	;		;111
   1071  b851		       3c		      DC.B	<NOVICE	;		;112
   1072  b852		       49		      DC.B	<LEVEL	;		 ;113
   1073  b853		       45		      DC.B	<SONE	;		  ;114TH ENTRY
   1074  b854		       47		      DC.B	<STWO	;		  ;115
   1075  b855		       2c 2e 30 32	      DC.B	<NEWBIRD0,<NEWBIRD1,<NEWBIRD2,<NEWBIRD3
   1076  b859		       34 36 38 3a	      DC.B	<NEWBIRD4,<NEWBIRD5,<NEWBIRD6,<NEWBIRD7
   1077  b85d		       2c		      DC.B	<NEWBIRD0	;	      ;124
   1078  b85e		       03		      DC.B	<PERCENT	;	       ;125
   1079  b85f		       05 07 09 0b*	      DC.B	<SCORP0,<SCORP1,<SCORP2,<SCORP3,<SCORP4
   1080  b864		       0f 11 13 15	      DC.B	<SCORP5,<SCORP6,<SCORP7,<SCORPF	;134
   1081  b868		       00 03 06 09	      DC.B	<HEXPLO0,<HEXPLO1,<HEXPLO2,<HEXPLO3
   1082  b86c		       0c 0f 12 15*	      DC.B	<HEXPLO4,<HEXPLO5,<HEXPLO6,<HEXPLO7,<HEXPLO0	;143
   1083  b871
   1084  b871		       58 19 46 30*AUTAB      DC.B	$58,$19,$46,$30,$50,$5A,$40,$20,$50,$45
   1085  b87b		       72 1e 31 4c*	      DC.B	$72,$1E,$31,$4C,$80,$30,$38
   1086  b882
   1087  b882		       00 08 10 18*GETXSC     DC.B	0,8,16,24,32,40,48,56,94,102,110,118,126,134,142,150
   1088  b892
   1089  b892							;*;*;*;*;*;*;*;*;*;*;*;*;*;*;*;*;*;*;*;*;*;*;*;*;*;*;*
   1090  b892							;*;*;*;*;* High Score Code ;*;*;*;*;*
   1091  b892							;*;*;*;*;*;*;*;*;*;*;*;*;*;*;*;*;*;*;*;*;*;*;*;*;*;*;*
   1092  b892							; THIS FILE CONTAINS THE HANDLERS FOR THE INTERFACE TO THE HISCORE
   1093  b892							;	   MODULE.  "MKHISCOR" AND "MKENTER" INITIATE MODES;
   1094  b892							;	   "HISCORE" AND "ENTER" JUST LOOP IN WAIT.
   1095  b892							; THIS CODE IS REACHED THROUGH A JSR
   1096  b892
   1097  b892		       3f fa	   HSCATRCT   EQU	$3FFA
   1098  b892		       3f fd	   HSCINITL   EQU	$3FFD
   1099  b892		       22 00	   HSCRAM     EQU	$2200
   1100  b892		       3f f7	   HSCSTAT    EQU	$3FF7
   1101  b892
   1102  b892		       20 b7 b8    HSCTEST    JSR	BUILDHSC
   1103  b895		       a9 00		      LDA	#0
   1104  b897		       8d 0e 22 	      STA	HSCRAM+14	;		SET WAITING TIME TO ZERO
   1105  b89a		       4c f7 3f 	      JMP	HSCSTAT	;		  SEE IF DISPLAY FOR THIS LEVEL
   1106  b89d
   1107  b89d		       20 b7 b8    HSCDSPLY   JSR	BUILDHSC
   1108  b8a0		       4c fa 3f 	      JMP	HSCATRCT	;		 RETURN FROM THERE
   1109  b8a3
   1110  b8a3				   HSCENTER
   1111  b8a3		       20 b7 b8 	      JSR	BUILDHSC
   1112  b8a6		       a5 ae		      LDA	PLAYER
   1113  b8a8		       d0 0a		      BNE	HSC2PLR	;		  IF SECOND PLAYER, LEAVE ALONE
   1114  b8aa		       ad 23 27 	      LDA	TWOPLAYR	;		 SEE IF TWO PLAYER GAME
   1115  b8ad		       f0 05		      BEQ	HSC2PLR	;		  IF ONE PLAYER ONLY, LEAVE IT ALONE
   1116  b8af		       a9 00		      LDA	#0
   1117  b8b1		       8d 0e 22 	      STA	HSCRAM+14	;		SET WAIT TIME TO 0 SECONDS
   1118  b8b4		       4c fd 3f    HSC2PLR    JMP	HSCINITL	;		 RETURN FROM THERE
   1119  b8b7
   1120  b8b7				   BUILDHSC
   1121  b8b7		       ad 00 39 	      LDA	$3900
   1122  b8ba		       c9 c6		      CMP	#$C6
   1123  b8bc		       d0 05		      BNE	HSCMISSS
   1124  b8be		       ad 04 39 	      LDA	$3904
   1125  b8c1		       c9 fe		      CMP	#$FE
   1126  b8c3		       d0 74	   HSCMISSS   BNE	HSCMISS
   1127  b8c5
   1128  b8c5							;	   LDX	   #31
   1129  b8c5							;DLSTLD    LDA     HSCDLST1,X; 	    ;MOVE LOGO DISPLAY LIST DOWN INTO RAM
   1130  b8c5							;	  STA	  S1L1,X
   1131  b8c5							;	 DEX
   1132  b8c5							;	BPL	DLSTLD
   1133  b8c5
   1134  b8c5		       a2 0e		      LDX	#14	;		      COPY 15 BYTES FROM HSCROM TO HSCRAM
   1135  b8c7		       bd 53 df    HSCLOAD    LDA	HSCROM,X
   1136  b8ca		       9d 00 22 	      STA	HSCRAM,X
   1137  b8cd		       ca		      DEX
   1138  b8ce		       10 f7		      BPL	HSCLOAD
   1139  b8d0
   1140  b8d0		       a5 e6		      LDA	DIFCULTY	;		 ; DIFFICULTY LEVEL FOR THIS CALL
   1141  b8d2		       aa		      TAX
   1142  b8d3		       0a		      ASL		;			;  --CALLED 3 TIMES FROM "LOGO"
   1143  b8d4		       0a		      ASL		;			; ONCE FOR EACH DIFFICULTY LEVEL
   1144  b8d5		       05 ae		      ORA	PLAYER	;		   WHO"S ENTERING HIS INITIALS
   1145  b8d7		       8d 02 22 	      STA	HSCRAM+2
   1146  b8da
   1147  b8da		       bd 62 df 	      LDA	DNTABL,X
   1148  b8dd		       8d 06 22 	      STA	HSCRAM+6
   1149  b8e0		       bd 65 df 	      LDA	DNTABH,X
   1150  b8e3		       8d 07 22 	      STA	HSCRAM+7
   1151  b8e6
   1152  b8e6		       a5 ae		      LDA	PLAYER
   1153  b8e8		       f0 26		      BEQ	CONTINUE
   1154  b8ea							;	   MOVEPTR SCORE2,HSCRAM+8	  OTHER PLAYER
   1155  b8ea		       ad 64 27 	      LDA	SCORE+8	;		  HIGHEST BYTE OF P2 SCORE
   1156  b8ed		       c9 0a		      CMP	#$A
   1157  b8ef		       d0 04		      BNE	NIBOK1
   1158  b8f1		       a9 00		      LDA	#0
   1159  b8f3		       f0 04		      BEQ	NXTNIB
   1160  b8f5		       0a	   NIBOK1     ASL
   1161  b8f6		       0a		      ASL
   1162  b8f7		       0a		      ASL
   1163  b8f8		       0a		      ASL
   1164  b8f9		       0d 65 27    NXTNIB     ORA	SCORE+9	;		  PUT IN BCD FORM
   1165  b8fc		       c9 0a		      CMP	#$A
   1166  b8fe		       d0 02		      BNE	NIBOK2
   1167  b900		       a9 00		      LDA	#0
   1168  b902		       85 e8	   NIBOK2     STA	HSCORE
   1169  b904		       a2 02		      LDX	#2
   1170  b906		       bd 27 27    LDSCORE    LDA	P2SCORE,X
   1171  b909		       95 e9		      STA	HSCORE+1,X
   1172  b90b		       ca		      DEX
   1173  b90c		       10 f8		      BPL	LDSCORE
   1174  b90e		       30 24		      BMI	SETXANDY
   1175  b910				   CONTINUE
   1176  b910		       ad 5c 27 	      LDA	SCORE
   1177  b913		       c9 0a		      CMP	#$A	;		      ;SEE IF BLANK
   1178  b915		       d0 04		      BNE	NIBOK3
   1179  b917		       a9 00		      LDA	#0
   1180  b919		       f0 04		      BEQ	NXTNIBL
   1181  b91b		       0a	   NIBOK3     ASL
   1182  b91c		       0a		      ASL
   1183  b91d		       0a		      ASL
   1184  b91e		       0a		      ASL
   1185  b91f		       0d 5d 27    NXTNIBL    ORA	SCORE+1	;		  ;PUT SCORE IN BCD FORM
   1186  b922		       c9 0a		      CMP	#$A
   1187  b924		       d0 02		      BNE	NIBOKK
   1188  b926		       a9 00		      LDA	#0
   1189  b928		       85 e8	   NIBOKK     STA	HSCORE
   1190  b92a		       a2 02		      LDX	#2
   1191  b92c		       bd 24 27    LDSCORE2   LDA	P1SCORE,X
   1192  b92f		       95 e9		      STA	HSCORE+1,X
   1193  b931		       ca		      DEX
   1194  b932		       10 f8		      BPL	LDSCORE2
   1195  b934							;	   COPY    HSCDLIST,ARAMZONE,40
   1196  b934		       a2 00	   SETXANDY   LDX	#<HSCRAM
   1197  b936		       a0 22		      LDY	#>HSCRAM
   1198  b938		       60	   NOSOUND    RTS
   1199  b939
   1200  b939		       68	   HSCMISS    PLA
   1201  b93a		       68		      PLA
   1202  b93b		       60		      RTS
   1203  b93c
   1204  b93c
   1205  b93c		       c9 27 7f    HSCDLL     DC.B	$C9,>DUMYHDR,<DUMYHDR
   1206  b93f		       43 1d 20 	      DC.B	$43,>ZEROHDR,<ZEROHDR
   1207  b942		       4b 19 9a 	      DC.B	$4B,>S1L6,<S1L6
   1208  b945							;*THIS STUFF IS OFF THE SCREEN ON MOST TV"S
   1209  b945		       4b 19 ec 	      DC.B	$4B,>S1L7,<S1L7
   1210  b948		       4b 1a 3e 	      DC.B	$4B,>S1L8,<S1L8
   1211  b94b		       4b 1a 90 	      DC.B	$4B,>S1L9,<S1L9
   1212  b94e		       4b 1a e2 	      DC.B	$4B,>S1L10,<S1L10
   1213  b951
   1214  b951		       1d 1d 1d 1d*DNAME0     DC.B	$1D,$1D,$1D,$1D,$1D,$1D,$1D,$1D,$1D	; overlapped
   1215  b95a		       1d 0d 0e 15*	      DC.B	$1D,13,14,21,8,2,4,$1D	; "NOVICE"
   1216  b962		       1d 1d 1d 	      DC.B	$1D,$1D,$1D
   1217  b965		       1d 1d 1d 1d*DNAME1     DC.B	$1D,$1D,$1D,$1D,$1D,$1D,$1D,$1D,$1D	; overlapped
   1218  b96e		       00 03 15 00*	      DC.B	$0,$3,$15,$0,$D,$2,$4,$3	; "ADVANCED"
   1219  b976		       1d 1d 1d 1d*DNAME2     DC.B	$1D,$1D,$1D,$1D,$1D,$1D,$1D,$1D,$1D,$1D	; overlapped
   1220  b980		       04 17 0f 04*	      DC.B	$4,$17,$F,$4,$11,$13	;	     ; "EXPERT"
   1221  b986		       1d 1d 1d 1d*	      DC.B	$1D,$1D,$1D,$1D,$1D,$1D,$1D,$1D,$1D,$1D
   1222  b990
   1223  b990				   END01		;DC.B	    0
------- FILE GLOAD.ASM
------- FILE GDAC4_2.ASM LEVEL 2 PASS 2
      0  b990					      include	"GDAC4_2.ASM"
      1  b990
      2  b990							;THIS NEXT SECTION GOES AFTER GLOADER.S
      3  b990					      ORG	END01
      4  b990
      5  b990							;
      6  b990							;THIS IS THE MOTION TABLE WHICH CAUSES AN ATTACKING BLUE SHIP TO CURVE
      7  b990							;UP TOWARD THE FORMATION.
      8  b990							;THERE ARE 4 ENTRIES
      9  b990							;
     10  b990		       e5 04 c5 e4*BATBL2     DC.B	$E5,$04,$C5,$E4,$DD,$FC,$FD,$1C,$06
     11  b999
     12  b999							;
     13  b999							;
     14  b999							;THIS TABLE INDEXED BY RACK TELLS HOW MANY SHIPS CAN BE FLYING AROUND
     15  b999							;IN THE SPECIFIC RACK
     16  b999							;
     17  b999		       04 02 02 01*NUMATTK    DC.B	4,2,2,1,3,3,3,1
     18  b9a1		       02 02 02 01*	      DC.B	2,2,2,1,3,3,3,1
     19  b9a9		       03 03 03 01*	      DC.B	3,3,3,1,3,3,3,1
     20  b9b1		       03 03 03 01*	      DC.B	3,3,3,1,4,4,4,1
     21  b9b9
     22  b9b9							;  THIS TABLE IS FOR THE RACK 3 CHALLENGING STAGE
     23  b9b9		       f6 08	   CHRACK3A   DC.B	$F6,$08
     24  b9bb		       f6 08		      DC.B	$F6,$08
     25  b9bd		       36 08 e8 08*	      DC.B	$36,$08,$E8,$08,$08,$E9
     26  b9c3		       e8 08 e8 08*	      DC.B	$E8,$08,$E8,$08,$26,$E8,$08,$36,$E8
     27  b9cc		       e4 e4 36 e8*	      DC.B	$E4,$E4,$36,$E8,$E4,$E4
     28  b9d2		       e8 e8 e4 e4*	      DC.B	$E8,$E8,$E4,$E4,$E8,$E4,$E4,$E8,$56,$E4
     29  b9dc		       c4 26 e4 	      DC.B	$C4,$26,$E4
     30  b9df		       26 c4 c0 c0*	      DC.B	$26,$C4,$C0,$C0,$DC,$DD,$DC,$F8,$F9
     31  b9e8		       18 f8 18 38*	      DC.B	$18,$F8,$18,$38,$18,$38,$38,$39,$38,$20,$3C
     32  b9f3		       58 58 20 3c*	      DC.B	$58,$58,$20,$3C,$58,$20,$3D,$20,$3C,$20,$3C
     33  b9fe		       20 3c 20 3c*	      DC.B	$20,$3C,$20,$3C,$58,$40,$20,$3C,$5C,$20
     34  ba08		       3c 20 3c 40*	      DC.B	$3C,$20,$3C,$40,$20,$3C,$20,$3C,$20,$3C,$40
     35  ba13		       20 3c 40 40*	      DC.B	$20,$3C,$40,$40,$20,$3C,$40,$20,$3C,$40,$20
     36  ba1e		       3c 20 3c 40*	      DC.B	$3C,$20,$3C,$40,$20,$3C,$40,$20,$3C,$20
     37  ba28		       3c 40 20 3c*	      DC.B	$3C,$40,$20,$3C,$40,$20,$3C,$20,$3C,$40
     38  ba32		       20 3c 40 20*	      DC.B	$20,$3C,$40,$20,$3C,$20,$3C,$40,$20,$3C
     39  ba3c		       40 20 3c 20*	      DC.B	$40,$20,$3C,$20,$3C,$40,$20,$3C,$40,$20
     40  ba46		       3c 20 3c 40*	      DC.B	$3C,$20,$3C,$40,$20,$3C,$40,$20,$3C,$20
     41  ba50		       3c 40 20 3c*	      DC.B	$3C,$40,$20,$3C,$40,$20,$3C,$02
     42  ba58
     43  ba58		       e0 e0 fc 26*CHRACK3B   DC.B	$E0,$E0,$FC,$26,$E0,$FC,$E0,$FC,$E0
     44  ba61		       fc e0 fc e0*	      DC.B	$FC,$E0,$FC,$E0,$FC,$E0,$FC,$E0,$FC,$E0
     45  ba6b		       fc e0 fc e0*	      DC.B	$FC,$E0,$FC,$E0,$FC,$E0,$FC,$E0,$FC,$E0
     46  ba75		       fc e0 fc e0*	      DC.B	$FC,$E0,$FC,$E0,$FC,$E0,$FC,$E0,$FC,$E0
     47  ba7f		       fc e0 fc e0*	      DC.B	$FC,$E0,$FC,$E0,$FC,$E0,$FC,$E0,$FC,$E0
     48  ba89		       fc e0 fc e0*	      DC.B	$FC,$E0,$FC,$E0,$D8,$FC,$E0,$FC,$E0
     49  ba92		       fc e0 d8 fc*	      DC.B	$FC,$E0,$D8,$FC,$E0,$D8,$FC,$E0
     50  ba9a		       d8 fc e0 d8*	      DC.B	$D8,$FC,$E0,$D8,$FC,$E0,$FC,$E0
     51  baa2		       fc e0 fc fc*	      DC.B	$FC,$E0,$FC,$FC,$1C,$56
     52  baa8		       fc		      DC.B	$FC
     53  baa9		       1c 26 fc fd	      DC.B	$1C,$26,$FC,$FD
     54  baad		       fc 1c fc fd*	      DC.B	$FC,$1C,$FC,$FD,$F8
     55  bab2		       36 1c f8 f6*	      DC.B	$36,$1C,$F8,$F6,$1C
     56  bab7		       f6 1c		      DC.B	$F6,$1C
     57  bab9		       b6 1c		      DC.B	$B6,$1C
     58  babb		       3d 3c 1c 3c*	      DC.B	$3D,$3C,$1C,$3C,$3C,$3D,$26,$20,$24
     59  bac4		       20 25 26 24*	      DC.B	$20,$25,$26,$24,$20,$24,$24,$04,$24
     60  bacd		       05 f6 04 	      DC.B	$05,$F6,$04
     61  bad0		       f6 04		      DC.B	$F6,$04
     62  bad2		       b6 04		      DC.B	$B6,$04
     63  bad4		       e9		      DC.B	$E9
     64  bad5		       e0 fc e0 fc*	      DC.B	$E0,$FC,$E0,$FC,$FD
     65  bada		       fc fd		      DC.B	$FC,$FD
     66  badc		       f6 fc		      DC.B	$F6,$FC
     67  bade		       f6 fc		      DC.B	$F6,$FC
     68  bae0		       f6 fc		      DC.B	$F6,$FC
     69  bae2		       f6 fc		      DC.B	$F6,$FC
     70  bae4		       f6 fc f2 	      DC.B	$F6,$FC,$F2
     71  bae7		       02		      DC.B	$02
     72  bae8
     73  bae8		       f6 20	   CHRACK7B   DC.B	$F6,$20
     74  baea		       f6 20		      DC.B	$F6,$20
     75  baec		       f6 20		      DC.B	$F6,$20
     76  baee		       f6 20		      DC.B	$F6,$20
     77  baf0		       f6 20		      DC.B	$F6,$20
     78  baf2		       36 20 3c 26*	      DC.B	$36,$20,$3C,$26,$20
     79  baf7		       3c 26 20 3c*	      DC.B	$3C,$26,$20,$3C,$20,$3C,$20,$3C,$20
     80  bb00		       36 5c 5f 5c*	      DC.B	$36,$5C,$5F,$5C,$58,$5C,$58,$58
     81  bb08		       38 58 58 38*	      DC.B	$38,$58,$58,$38,$58,$26,$38,$58,$46
     82  bb11		       38 3b 18 38*	      DC.B	$38,$3B,$18,$38,$38,$18,$38
     83  bb18		       18 38 26 18*	      DC.B	$18,$38,$26,$18,$38,$56,$18
     84  bb1f		       f8 26 18 f8*	      DC.B	$F8,$26,$18,$F8,$18,$F8,$18
     85  bb26		       f8 f8 18 f8*	      DC.B	$F8,$F8,$18,$F8,$FB,$66,$F8
     86  bb2d		       26 d8 86 dc	      DC.B	$26,$D8,$86,$DC
     87  bb31		       c3 dc c0 c0*	      DC.B	$C3,$DC,$C0,$C0,$DC,$B6,$C0
     88  bb38		       c4 c0 c3 c4	      DC.B	$C4,$C0,$C3,$C4
     89  bb3c		       c0 76 c4 36	      DC.B	$C0,$76,$C4,$36
     90  bb40		       c8 46 e8 eb*	      DC.B	$C8,$46,$E8,$EB,$26
     91  bb45		       08 e8 e8 08*	      DC.B	$08,$E8,$E8,$08,$E8,$08,$E8,$26
     92  bb4d		       08 e8 56 08*	      DC.B	$08,$E8,$56,$08,$28
     93  bb52		       26 08 28 08*	      DC.B	$26,$08,$28,$08,$28,$08,$28,$28,$08
     94  bb5b		       56 28 48 28*	      DC.B	$56,$28,$48,$28,$28,$2B
     95  bb61		       48 28 48 48*	      DC.B	$48,$28,$48,$48,$28,$48,$48,$44,$48,$44
     96  bb6b		       24 20 24 20*	      DC.B	$24,$20,$24,$20,$27,$20,$24,$20,$24,$20
     97  bb75		       24 20 24 20*	      DC.B	$24,$20,$24,$20,$24,$26,$20,$24,$26
     98  bb7e		       20 24 f6 20	      DC.B	$20,$24,$F6,$20
     99  bb82		       f6 20		      DC.B	$F6,$20
    100  bb84		       f6 20 f6 20	      DC.B	$F6,$20,$F6,$20
    101  bb88		       f6 20		      DC.B	$F6,$20
    102  bb8a		       26 20 02 	      DC.B	$26,$20,$02
    103  bb8d
    104  bb8d							;*THIS DATA IS ALSO USED FOR CHRACK11A
    105  bb8d		       f6 08	   CHRACK7A   DC.B	$F6,$08
    106  bb8f		       f6 08		      DC.B	$F6,$08
    107  bb91		       a6 08		      DC.B	$A6,$08
    108  bb93		       28 2b 28 56*	      DC.B	$28,$2B,$28,$56,$48
    109  bb98		       44 48 44 48*	      DC.B	$44,$48,$44,$48,$26,$44,$47
    110  bb9f		       44 40 44 40*	      DC.B	$44,$40,$44,$40,$44,$40,$44,$41,$45,$41
    111  bba9		       c1 dc c0 dc*	      DC.B	$C1,$DC,$C0,$DC,$C1,$DC,$C0,$DC,$C0
    112  bbb2		       46 dc d8 dc*	      DC.B	$46,$DC,$D8,$DC,$D8,$DC,$56,$D8
    113  bbba		       f9 f8 f8 f6*	      DC.B	$F9,$F8,$F8,$F6,$18
    114  bbbf		       f6 18		      DC.B	$F6,$18
    115  bbc1		       a6 18		      DC.B	$A6,$18
    116  bbc3		       02		      DC.B	$02
    117  bbc4
    118  bbc4		       f6 40	   CHRCK11B   DC.B	$F6,$40
    119  bbc6		       f6 40		      DC.B	$F6,$40
    120  bbc8		       86 40 36 03*	      DC.B	$86,$40,$36,$03,$B6,$C0
    121  bbce		       dd		      DC.B	$DD
    122  bbcf		       dc dc d8 dc*	      DC.B	$DC,$DC,$D8,$DC,$36,$D8,$36,$F8
    123  bbd7		       18 f8 f8 18*	      DC.B	$18,$F8,$F8,$18,$F8,$F8,$18,$F9
    124  bbdf		       18 f8 18 f8*	      DC.B	$18,$F8,$18,$F8,$18,$F8,$26,$18,$F8
    125  bbe8		       36 18 f8 66*	      DC.B	$36,$18,$F8,$66,$18
    126  bbed		       38 18 38 38*	      DC.B	$38,$18,$38,$38,$18,$66,$38
    127  bbf4		       39 86 58 	      DC.B	$39,$86,$58
    128  bbf7		       26 5c 5d 5c*	      DC.B	$26,$5C,$5D,$5C,$5C
    129  bbfc		       40 45 44 48*	      DC.B	$40,$45,$44,$48,$28,$29,$28,$28,$08,$08
    130  bc06		       28 26 08 28*	      DC.B	$28,$26,$08,$28,$F6,$08
    131  bc0c		       46 08 2b 28*	      DC.B	$46,$08,$2B,$28,$48,$48
    132  bc12		       47 44 f6 40	      DC.B	$47,$44,$F6,$40
    133  bc16		       f6 40		      DC.B	$F6,$40
    134  bc18		       86 40		      DC.B	$86,$40
    135  bc1a		       02		      DC.B	$02
    136  bc1b
    137  bc1b		       76 08 0b 03 CHRCK15A   DC.B	$76,$08,$0B,$03
    138  bc1f		       40 44 40 44*	      DC.B	$40,$44,$40,$44,$45,$48,$48,$4C,$28,$29
    139  bc29		       28 08 28 08*	      DC.B	$28,$08,$28,$08,$E8,$08,$26,$E8,$C9
    140  bc32		       26 c8 c4 c1*	      DC.B	$26,$C8,$C4,$C1,$C4,$36,$C0
    141  bc39		       36 c4 c7 c8*	      DC.B	$36,$C4,$C7,$C8,$C8,$CC,$E8,$0B
    142  bc41		       e8 36 08 28*	      DC.B	$E8,$36,$08,$28,$08,$28,$28,$4B
    143  bc49		       48 48 64 40*	      DC.B	$48,$48,$64,$40,$47,$46,$40
    144  bc50		       44 40 44 48*	      DC.B	$44,$40,$44,$48,$49,$48,$48,$28,$28,$09
    145  bc5a		       28 26 08 e8*	      DC.B	$28,$26,$08,$E8,$08,$26,$E8,$C9
    146  bc62		       c8 a8 c4 c0*	      DC.B	$C8,$A8,$C4,$C0,$C1,$C4,$26,$C0,$46
    147  bc6b		       dc d9 d8 d4*	      DC.B	$DC,$D9,$D8,$D4,$F8,$F8,$19
    148  bc72		       f8 18 18 38*	      DC.B	$F8,$18,$18,$38,$18,$36,$38,$59
    149  bc7a		       58 26 5c 41*	      DC.B	$58,$26,$5C,$41,$5C,$26,$40,$5C
    150  bc82		       40 26 5c 5b*	      DC.B	$40,$26,$5C,$5B,$58,$58,$38,$38,$3B
    151  bc8b		       18 38 18 18*	      DC.B	$18,$38,$18,$18,$F8,$18,$26,$F8,$DB
    152  bc94		       b4 d8 dc dc*	      DC.B	$B4,$D8,$DC,$DC,$DF,$46,$C0
    153  bc9b		       dc c0 dc dc*	      DC.B	$DC,$C0,$DC,$DC,$DD,$D8,$26,$F8,$F9
    154  bca4		       18 f8 18 18*	      DC.B	$18,$F8,$18,$18,$38,$18,$38,$18,$38,$59
    155  bcae		       58 58 5c 5c*	      DC.B	$58,$58,$5C,$5C,$5D,$40,$5C,$40,$43,$03
    156  bcb8		       86 18 02 	      DC.B	$86,$18,$02
    157  bcbb
    158  bcbb		       5c 5c 66 58*CHRCK15B   DC.B	$5C,$5C,$66,$58,$38
    159  bcc0		       3b 36 38 18*	      DC.B	$3B,$36,$38,$18,$38,$18,$38,$18
    160  bcc8		       38 18 38 18*	      DC.B	$38,$18,$38,$18,$18,$38,$18,$38,$18,$38
    161  bcd2		       18 36 38 58*	      DC.B	$18,$36,$38,$58,$38,$58,$38,$5D
    162  bcda		       58 5c 5c 41*	      DC.B	$58,$5C,$5C,$41,$5C
    163  bcdf							;*THIS IS THE FIRST LOOP
    164  bcdf				   CHRCK15C
    165  bcdf		       46 40 44 45*	      DC.B	$46,$40,$44,$45,$44,$24
    166  bce5		       48 26 28 09*	      DC.B	$48,$26,$28,$09,$28,$08,$28,$08,$08
    167  bcee		       28 08 08 c8*	      DC.B	$28,$08,$08,$C8,$08,$C8,$08,$C8,$08,$C8
    168  bcf8		       c8 c9 c8 c4*	      DC.B	$C8,$C9,$C8,$C4,$C9,$C8,$C4,$C0,$D8,$D9
    169  bd02		       d8 18 f9 46*	      DC.B	$D8,$18,$F9,$46,$18,$38,$18
    170  bd09		       38 18 38 18*	      DC.B	$38,$18,$38,$18,$46,$38,$59
    171  bd10		       38 26 58 59*	      DC.B	$38,$26,$58,$59,$58,$40,$58,$40
    172  bd18
    173  bd18		       46 40 44 45*	      DC.B	$46,$40,$44,$45,$44,$24
    174  bd1e		       48 26 28 09*	      DC.B	$48,$26,$28,$09,$28,$08,$28,$08,$08
    175  bd27		       28 08 08 c8*	      DC.B	$28,$08,$08,$C8,$08,$C8,$08,$C8,$08,$C8
    176  bd31		       c8 c9 c8 c4*	      DC.B	$C8,$C9,$C8,$C4,$C9,$C8,$C4,$C0,$D8,$D9
    177  bd3b		       d8 18 f9 46*	      DC.B	$D8,$18,$F9,$46,$18,$38,$18
    178  bd42		       38 18 38 18*	      DC.B	$38,$18,$38,$18,$46,$38,$59
    179  bd49		       38 26 58 59*	      DC.B	$38,$26,$58,$59,$58,$40,$58,$40
    180  bd51
    181  bd51		       46 40 44 45*	      DC.B	$46,$40,$44,$45,$44,$24
    182  bd57		       48 26 28 09*	      DC.B	$48,$26,$28,$09,$28,$08,$28,$08,$08
    183  bd60		       28 08 08 c8*	      DC.B	$28,$08,$08,$C8,$08,$C8,$08,$C8,$08,$C8
    184  bd6a		       c8 c9 c8 c4*	      DC.B	$C8,$C9,$C8,$C4,$C9,$C8,$C4,$C0,$D8,$D9
    185  bd74		       d8 18 f9 46*	      DC.B	$D8,$18,$F9,$46,$18,$38,$18
    186  bd7b		       38 18 38 18*	      DC.B	$38,$18,$38,$18,$46,$38,$59
    187  bd82		       38 26 58 59*	      DC.B	$38,$26,$58,$59,$58,$40,$58,$40
    188  bd8a							;*THIS IS THE DEPARTING PATH
    189  bd8a				   CHRCK15D
    190  bd8a		       40 44 45 	      DC.B	$40,$44,$45
    191  bd8d		       48 48 26 28*	      DC.B	$48,$48,$26,$28,$48,$26,$28,$29
    192  bd95		       08 28 08 28*	      DC.B	$08,$28,$08,$28,$08,$28,$26,$08,$28
    193  bd9e		       08 28 08 28*	      DC.B	$08,$28,$08,$28,$08,$28,$08,$28,$08,$28
    194  bda8		       08 26 28 2b*	      DC.B	$08,$26,$28,$2B,$36,$28,$47
    195  bdaf		       40 40 02 	      DC.B	$40,$40,$02
    196  bdb2
    197  bdb2		       f6 e8 f6 e8*CHRCK19A   DC.B	$F6,$E8,$F6,$E8,$F6,$E8,$46,$E8,$EB,$08,$2B
    198  bdbd		       f6 48 48 47*	      DC.B	$F6,$48,$48,$47,$40,$5F,$F6,$58,$58
    199  bdc6		       3b 38 fb 	      DC.B	$3B,$38,$FB
    200  bdc9		       f8 f6 d8 26*	      DC.B	$F8,$F6,$D8,$26,$D8,$DF,$C7,$D6,$C8,$EB
    201  bdd3		       08 2b b6 48*	      DC.B	$08,$2B,$B6,$48,$47,$40,$5F,$B6
    202  bddb		       58 3b 18 fb*	      DC.B	$58,$3B,$18,$FB,$A6,$D8,$DF,$C7
    203  bde3		       a6 c8 eb 08*	      DC.B	$A6,$C8,$EB,$08,$2B,$86,$48,$47
    204  bdeb		       40 5f 86 58*	      DC.B	$40,$5F,$86,$58,$3B,$18,$FB,$76
    205  bdf3		       d8 df c7 76*	      DC.B	$D8,$DF,$C7,$76,$C8,$EB,$2B,$66
    206  bdfb		       48 47 5f 56*	      DC.B	$48,$47,$5F,$56,$58,$5B,$1B,$F6
    207  be03		       d8 f6 d8 f6*	      DC.B	$D8,$F6,$D8,$F6,$D8,$36,$D8,$02
    208  be0b
    209  be0b				   CHRCK19B
    210  be0b		       76 40 5f 26*	      DC.B	$76,$40,$5F,$26,$5C,$F6,$58,$F6,$58,$96
    211  be15		       58 5d 26 5c*	      DC.B	$58,$5D,$26,$5C,$36,$40,$45,$26,$44,$48
    212  be1f		       49 36 28 36*	      DC.B	$49,$36,$28,$36,$08,$E9,$26,$E8,$C8,$C8
    213  be29		       c4 c5 76 c0*	      DC.B	$C4,$C5,$76,$C0,$DD,$26,$DC,$F6,$D8,$D8
    214  be33		       36 dc c3 26*	      DC.B	$36,$DC,$C3,$26,$C0,$C7,$26,$C4,$C8,$C8
    215  be3d		       eb 26 e8 36*	      DC.B	$EB,$26,$E8,$36,$08,$2B,$26,$28,$48,$48
    216  be47		       36 44 43 26*	      DC.B	$36,$44,$43,$26,$40,$5F,$26,$5C,$F6,$58
    217  be51		       26 58		      DC.B	$26,$58
    218  be53		       3b 26 38 36*	      DC.B	$3B,$26,$38,$36,$18,$FB,$26,$F8,$D8,$D8
    219  be5d		       36 dc c3 26*	      DC.B	$36,$DC,$C3,$26,$C0,$C7,$26,$C4,$C8,$CB
    220  be67		       36 e8 36 08*	      DC.B	$36,$E8,$36,$08,$2B,$F6,$28,$F6,$28,$86
    221  be71		       28 36 48 76*	      DC.B	$28,$36,$48,$76,$44,$43,$D6,$40,$02
    222  be7a
    223  be7a		       f6 08 36 08*CHRCK23A   DC.B	$F6,$08,$36,$08,3,3,$B6,$40
    224  be82		       01 01 f6 08*	      DC.B	1,1,$F6,8,$36,8,3,3,$B6,$40,1,1
    225  be8e		       f6 08 36 08*	      DC.B	$F6,8,$36,8,3,3,$F6,$40,$36,$40
    226  be98		       02		      DC.B	$02
    227  be99
    228  be99		       36 40 5f f6*CHRCK23B   DC.B	$36,$40,$5F,$F6,$5C,$F6,$5C,$F6,$5C,$F6,$5C,$5C
    229  bea5		       58 3b 18 fb*	      DC.B	$58,$3B,$18,$FB,$D8,$96,$DC,$C3,$F6,$C0
    230  beaf		       f6 c0 dd 26*	      DC.B	$F6,$C0,$DD,$26,$DC,$D8,$F9,$18
    231  beb7		       39 58 36 5c*	      DC.B	$39,$58,$36,$5C,$41,$F6,$40,$76,$40,$5F
    232  bec1		       26 5c 58 3b*	      DC.B	$26,$5C,$58,$3B,$18,$FB,$D8,$36,$DC,$C3
    233  becb		       f6 c0 c0 c0*	      DC.B	$F6,$C0,$C0,$C0,$DD,$26,$DC,$D8,$F9,$18
    234  bed5		       39 48 36 5c*	      DC.B	$39,$48,$36,$5C,$41,$76,$40,$03,$03,$76
    235  bedf		       18 02		      DC.B	$18,$02
    236  bee1
    237  bee1		       76 08 01 01*CHRCK27A   DC.B	$76,$08,$01,$01,$F6,$C0,$F6,$C0,$C0,$C3
    238  beeb		       03 03 f6 24*	      DC.B	$03,$03,$F6,$24,$F6,$24,$F6,$24,$F6,$24
    239  bef5		       f6 24 f6 24*	      DC.B	$F6,$24,$F6,$24,$F6,$24,$F6,$24,$F6,$24
    240  beff		       49 01 01 f6*	      DC.B	$49,$01,$01,$F6,$C0,$F6,$C0,$F6,$C0,$F6
    241  bf09		       c0 b6 c0 02	      DC.B	$C0,$B6,$C0,$02
    242  bf0d
    243  bf0d		       f6 20 5f 26*CHRCK27B   DC.B	$F6,$20,$5F,$26,$5C,$36,$3C,$3B,$26,$38
    244  bf17		       f6 18 a6 18*	      DC.B	$F6,$18,$A6,$18,$39,$26,$38,$36,$3C,$21
    245  bf21		       3c 20 3c 76*	      DC.B	$3C,$20,$3C,$76,$20,$25,$20,$24,$20
    246  bf2a		       24 20 24 20*	      DC.B	$24,$20,$24,$20,$24,$20,$24,$20,$24,$20,$96,$24
    247  bf36		       24 20 27 20	      DC.B	$24,$20,$27,$20
    248  bf3a		       b6 20 3f 20*	      DC.B	$B6,$20,$3F,$20,$3C,$20,$96,$3C
    249  bf42		       3c 20 3c 20*	      DC.B	$3C,$20,$3C,$20,$3C,$20,$3C,$20,$3C,$20,$3D,$20
    250  bf4e		       76 20 25 20*	      DC.B	$76,$20,$25,$20,$24,$20,$36,$24,$36,$28
    251  bf58		       05 f6 08 a6*	      DC.B	$05,$F6,$08,$A6,$08,$2B,$26,$28,$36,$24
    252  bf62		       36 44 23 a6*	      DC.B	$36,$44,$23,$A6,$20,$02
    253  bf68
    254  bf68		       f6 08 b6 08*CHRCK31A   DC.B	$F6,$08,$B6,$08,$2B,$26,$28,$48,$48,$26
    255  bf72		       44 47 56 40*	      DC.B	$44,$47,$56,$40,$5F,$26,$5C,$58,$5B,$36
    256  bf7c		       38 56 18 fb*	      DC.B	$38,$56,$18,$FB,$26,$F8,$D8,$DB,$36,$DC
    257  bf86		       56 c0 c7 26*	      DC.B	$56,$C0,$C7,$26,$C4,$C8,$C8,$F6,$E8,$F6
    258  bf90		       e8 56 e8 c8*	      DC.B	$E8,$56,$E8,$C8,$C8,$36,$C4,$C1,$46,$C0
    259  bf9a		       dd 26 dc d8*	      DC.B	$DD,$26,$DC,$D8,$D8,$36,$F8,$19,$46,$18
    260  bfa4		       36 38 59 58*	      DC.B	$36,$38,$59,$58,$26,$5C,$5D,$56,$40
    261  bfad		       36 44 49 48*	      DC.B	$36,$44,$49,$48,$36,$28,$09,$46,$08,$E9
    262  bfb7		       f6 e8 e8 36*	      DC.B	$F6,$E8,$E8,$36,$C8,$B6,$C4,$C1,$76,$C0
    263  bfc1		       02		      DC.B	$02
    264  bfc2
    265  bfc2		       f6 5c f6 5c*CHRCK31B   DC.B	$F6,$5C,$F6,$5C,$F6,$5C,$56,$5C,$36,$58
    266  bfcc		       3b 46 38 76*	      DC.B	$3B,$46,$38,$76,$18,$56,$F8,$DB,$26,$D8
    267  bfd6		       56 dc c3 66*	      DC.B	$56,$DC,$C3,$66,$C0,$56,$C4,$CB,$26,$C8
    268  bfe0		       56 e8 0b 66*	      DC.B	$56,$E8,$0B,$66,$08,$56,$28,$4B,$26,$48
    269  bfea		       56 44 43 66*	      DC.B	$56,$44,$43,$66,$40,$5F,$F6,$5C,$F6,$5C
    270  bff4		       46 5c 02 	      DC.B	$46,$5C,$02
    271  bff7		       02	   END2       DC.B	$02
------- FILE GLOAD.ASM
------- FILE GRAPHB.ASM LEVEL 2 PASS 2
      0  bff8					      include	"GRAPHB.ASM"
      1  bff8					      processor	6502
      2  c000					      ORG	$C000	;		    ;LINE 12
      3  c000				   G2STARTB
      4  c000		       80 0c 03    HEXPLO0    DC.B	$80,$0C,$03
      5  c003		       a0 30 44    HEXPLO1    DC.B	$A0,$30,$44
      6  c006		       a0 00 7c    HEXPLO2    DC.B	$A0,0,$7C
      7  c009		       18 00 00    HEXPLO3    DC.B	$18,0,0
      8  c00c		       00 00 00    HEXPLO4    DC.B	0,0,0
      9  c00f		       00 00 00    HEXPLO5    DC.B	0,0,0
     10  c012		       00 00 00    HEXPLO6    DC.B	0,0,0
     11  c015		       08 02 00    HEXPLO7    DC.B	8,2,0
     12  c018		       00 00 00    DBLZERO    DC.B	0,0,0
     13  c01b		       00 00 00 00*TENK       DC.B	0,0,0,0,0,0
     14  c021		       00 00	   DIGIT0     DC.B	0,0
     15  c023		       00 00	   DIGIT1     DC.B	0,0
     16  c025		       00 00	   DIGIT2     DC.B	0,0
     17  c027		       00 00	   DIGIT3     DC.B	0,0
     18  c029		       00 00	   DIGIT4     DC.B	0,0
     19  c02b		       00 00	   DIGIT5     DC.B	0,0
     20  c02d		       00 00	   DIGIT6     DC.B	0,0
     21  c02f		       00 00	   DIGIT7     DC.B	0,0
     22  c031		       00 00	   DIGIT8     DC.B	0,0
     23  c033		       00 00	   DIGIT9     DC.B	0,0
     24  c035		       00 00 00 00*NUMOFHTS   DC.B	0,0,0,0,0,0,0,0,0,0
     25  c03f		       00 00 00 00*	      DC.B	0,0,0,0,0,0,0,0,0,0
     26  c049		       00 00 00 00*PERFECT    DC.B	0,0,0,0,0,0,0,0,0,0
     27  c053		       00 00 00 00*SPECIALG   DC.B	0,0,0,0,0,0,0,0,0,0,0
     28  c05e		       00 00 00 00*BONUS      DC.B	0,0,0,0,0,0,0,0
     29  c066		       ff ff ff ca*LULOGO     DC.B	$FF,$FF,$FF,$CA,$50,$25,$40,$15,$40,$55,$55,$15,$41
     30  c073		       3f fc 0f ff*LILOGO     DC.B	$3F,$FC,$0F,$FF,$FF,$FF,$FF,$FF,$FF,$FF,$FF,$FF,$FF
     31  c080		       55 54 55 85*RULOGO     DC.B	$55,$54,$55,$85,$50,$09,$55,$50,$05,$A3,$FF,$FF,$FF
     32  c08d		       ff ff ff aa*RILOGO     DC.B	$FF,$FF,$FF,$AA,$AA,$7F,$FF,$FF,$FF,$FF,$F0,$3F,$FF
     33  c09a		       00 cc 30 cc*BULOGO     DC.B	$00,$CC,$30,$CC,$CC,$C1,$55,$54,$00
     34  c0a3		       00 00 00 00*BILOGO     DC.B	0,0,0,0,0,0,0,0,0
     35  c0ac		       00 00	   LINE       DC.B	0,0
     36  c0ae		       00 00 00 00*FIGHTER    DC.B	0,0,0,0,0,0,0,0,0,0
     37  c0b8		       00 00 00 00*CAPTD      DC.B	0,0,0,0,0,0,0,0,0,0,0,0
     38  c0c4		       00 00	   PONE       DC.B	0,0
     39  c0c6		       00 00	   PTWO       DC.B	0,0
     40  c0c8		       00 00 00 00*CHLNGING   DC.B	$00,$00,$00,$00,$00,$00,$00,$00
     41  c0d0		       00 00 00 00*	      DC.B	$00,$00,$00,$00,$00,$00,$00,$00
     42  c0d8		       00 00 00 00*PLAYERG    DC.B	$00,$00,$00,$00,$00,$00,$00,$00,$00,0,0
     43  c0e3		       00 00 00 00*STAGE      DC.B	$00,$00,$00,$00,$00,$00,$00
     44  c0ea		       00 00 00 00*READY      DC.B	$00,$00,$00,$00,$00,$00,$00,$00
     45  c0f2		       00 00 00 00*GMEOVER    DC.B	$00,$00,$00,$00,$00,$00,$00,$00,$00,$00,$00,$00,$00
     46  c0ff
     47  c100					      ORG	$C100	;		    ;LINE 11
     48  c100		       00 00 00 	      DC.B	0,0,0
     49  c103		       20 0c 0c 	      DC.B	$20,$0C,$0C
     50  c106		       64 3d 7f 	      DC.B	$64,$3D,$7F
     51  c109		       2a 3d 7c 	      DC.B	$2A,$3D,$7C
     52  c10c		       04 01 40 	      DC.B	4,1,$40
     53  c10f		       00 01 40 	      DC.B	0,1,$40
     54  c112		       00 00 00 	      DC.B	0,0,0
     55  c115		       02 0a 00 	      DC.B	2,$A,0
     56  c118		       00 00 00 	      DC.B	0,0,0
     57  c11b		       00 00 00 00*	      DC.B	0,0,0,0,0,0
     58  c121		       00 00		      DC.B	0,0
     59  c123		       00 00		      DC.B	0,0
     60  c125		       00 00		      DC.B	0,0
     61  c127		       00 00		      DC.B	0,0
     62  c129		       00 00		      DC.B	0,0
     63  c12b		       00 00		      DC.B	0,0
     64  c12d		       00 00		      DC.B	0,0
     65  c12f		       00 00		      DC.B	0,0
     66  c131		       00 00		      DC.B	0,0
     67  c133		       00 00		      DC.B	0,0
     68  c135		       00 00 00 00*	      DC.B	0,0,0,0,0,0,0,0,0,0
     69  c13f		       00 00 00 00*	      DC.B	0,0,0,0,0,0,0,0,0,0
     70  c149		       00 00 00 00*	      DC.B	0,0,0,0,0,0,0,0,0,0
     71  c153		       00 00 00 00*	      DC.B	0,0,0,0,0,0,0,0,0,0,0
     72  c15e		       00 00 00 00*	      DC.B	0,0,0,0,0,0,0,0
     73  c166		       00 00 00 29*	      DC.B	$00,$00,$00,$29,$40,$25,$40,$15,$68,$15,$55,$15,$68
     74  c173		       00 00 00 60*	      DC.B	$00,$00,$00,$60,$02,$62,$A8,$A0,$00,$A0,$80,$08,$02
     75  c180		       55 54 55 55*	      DC.B	$55,$54,$55,$55,$51,$41,$55,$50,$01,$68,$00,$00,$00
     76  c18d		       82 00 02 aa*	      DC.B	$82,$00,$02,$AA,$A9,$6A,$08,$09,$80,$09,$00,$00,$00
     77  c19a		       00 30 fc 30*	      DC.B	$00,$30,$FC,$30,$F0,$C2,$AA,$AA,$00
     78  c1a3		       00 00 00 00*	      DC.B	0,0,0,0,0,0,0,0,0
     79  c1ac		       00 00		      DC.B	0,0
     80  c1ae		       00 00 00 00*	      DC.B	0,0,0,0,0,0,0,0,0,0
     81  c1b8		       00 00 00 00*	      DC.B	0,0,0,0,0,0,0,0,0,0,0,0
     82  c1c4		       00 00 00 00	      DC.B	0,0,0,0
     83  c1c8		       00 00 00 00*	      DC.B	$00,$00,$00,$00,$00,$00,$00,$00
     84  c1d0		       00 00 00 00*	      DC.B	$00,$00,$00,$00,$00,$00,$00,$00
     85  c1d8		       00 00 00 00*	      DC.B	$00,$00,$00,$00,$00,$00,$00,$00,$00,0,0
     86  c1e3		       00 00 00 00*	      DC.B	$00,$00,$00,$00,$00,$00,$00
     87  c1ea		       00 00 00 00*	      DC.B	$00,$00,$00,$00,$00,$00,$00,$00
     88  c1f2		       00 00 00 00*	      DC.B	$00,$00,$00,$00,$00,$00,$00,$00,$00,$00,$00,$00,$00
     89  c1ff
     90  c200					      ORG	$C200	;		    ;LINE 10
     91  c200		       03 00 c0 	      DC.B	3,0,$C0
     92  c203		       00 00 30 	      DC.B	0,0,$30
     93  c206		       20 2f 3f 	      DC.B	$20,$2F,$3F
     94  c209		       0a 6f ff 	      DC.B	$A,$6F,$FF
     95  c20c		       03 5f f0 	      DC.B	$3,$5F,$F0
     96  c20f		       01 51 f0 	      DC.B	1,$51,$F0
     97  c212		       03 51 40 	      DC.B	$3,$51,$40
     98  c215		       02 8a 00 	      DC.B	$02,$8A,0
     99  c218		       00 00 00 	      DC.B	0,0,0
    100  c21b		       00 00 00 00*	      DC.B	0,0,0,0,0,0
    101  c221		       00 00		      DC.B	0,0
    102  c223		       00 00		      DC.B	0,0
    103  c225		       00 00		      DC.B	0,0
    104  c227		       00 00		      DC.B	0,0
    105  c229		       00 00		      DC.B	0,0
    106  c22b		       00 00		      DC.B	0,0
    107  c22d		       00 00		      DC.B	0,0
    108  c22f		       00 00		      DC.B	0,0
    109  c231		       00 00		      DC.B	0,0
    110  c233		       00 00		      DC.B	0,0
    111  c235		       00 00 00 00*	      DC.B	0,0,0,0,0,0,0,0,0,0
    112  c23f		       00 00 00 00*	      DC.B	0,0,0,0,0,0,0,0,0,0
    113  c249		       00 00 00 00*	      DC.B	0,0,0,0,0,0,0,0,0,0
    114  c253		       00 00 00 00*	      DC.B	0,0,0,0,0,0,0,0,0,0,0
    115  c25e		       00 00 00 00*	      DC.B	0,0,0,0,0,0,0,0
    116  c266		       00 00 00 5a*	      DC.B	$00,$00,$00,$5A,$00,$05,$40,$05,$85,$55,$55,$15,$55
    117  c273		       00 ff ff 16*	      DC.B	$00,$FF,$FF,$16,$A9,$4A,$AA,$28,$02,$A8,$A8,$2A,$0A
    118  c280		       55 54 95 55*	      DC.B	$55,$54,$95,$55,$50,$55,$55,$50,$00,$A5,$00,$00,$00
    119  c28d		       a2 a0 00 aa*	      DC.B	$A2,$A0,$00,$AA,$A5,$6A,$8A,$81,$6A,$54,$FF,$FF,$00
    120  c29a		       00 00 00 00*	      DC.B	$00,$00,$00,$00,$00,$02,$AA,$AA,$00
    121  c2a3		       00 00 00 00*	      DC.B	0,0,0,0,0,0,0,0,0
    122  c2ac		       00 00		      DC.B	0,0
    123  c2ae		       00 00 00 00*	      DC.B	0,0,0,0,0,0,0,0,0,0
    124  c2b8		       00 00 00 00*	      DC.B	0,0,0,0,0,0,0,0,0,0,0,0
    125  c2c4		       00 00 00 00	      DC.B	0,0,0,0
    126  c2c8		       00 00 00 00*	      DC.B	$00,$00,$00,$00,$00,$00,$00,$00
    127  c2d0		       00 00 00 00*	      DC.B	$00,$00,$00,$00,$00,$00,$00,$00
    128  c2d8		       00 00 00 00*	      DC.B	$00,$00,$00,$00,$00,$00,$00,$00,$00,0,0
    129  c2e3		       00 00 00 00*	      DC.B	$00,$00,$00,$00,$00,$00,$00
    130  c2ea		       00 00 00 00*	      DC.B	$00,$00,$00,$00,$00,$00,$00,$00
    131  c2f2		       00 00 00 00*	      DC.B	$00,$00,$00,$00,$00,$00,$00,$00,$00,$00,$00,$00,$00
    132  c2ff
    133  c300					      ORG	$C300	;		    ;LINE 9
    134  c300		       00 00 01 	      DC.B	0,0,1
    135  c303		       00 c0 c3 	      DC.B	0,$C0,$C3
    136  c306		       24 2b cf 	      DC.B	$24,$2B,$CF
    137  c309		       07 eb ff 	      DC.B	$07,$EB,$FF
    138  c30c		       07 ff f4 	      DC.B	$07,$FF,$F4
    139  c30f		       07 f7 f4 	      DC.B	7,$F7,$F4
    140  c312		       07 f7 d0 	      DC.B	$07,$F7,$D0
    141  c315		       0a aa a8 	      DC.B	$0A,$AA,$A8
    142  c318		       00 00 00 	      DC.B	0,0,0
    143  c31b		       00 00 20 00*	      DC.B	0,0,$20,0,0,0
    144  c321		       00 00		      DC.B	0,0
    145  c323		       00 00		      DC.B	0,0
    146  c325		       00 00		      DC.B	0,0
    147  c327		       00 00		      DC.B	0,0
    148  c329		       00 00		      DC.B	0,0
    149  c32b		       00 00		      DC.B	0,0
    150  c32d		       00 00		      DC.B	0,0
    151  c32f		       00 00		      DC.B	0,0
    152  c331		       00 00		      DC.B	0,0
    153  c333		       00 00		      DC.B	0,0
    154  c335		       00 00 00 00*	      DC.B	0,0,0,0,0,0,0,0,0,0
    155  c33f		       00 00 00 00*	      DC.B	0,0,0,0,0,0,0,0,0,0
    156  c349		       00 00 00 00*	      DC.B	0,0,0,0,0,0,0,0,0,0
    157  c353		       00 00 00 00*	      DC.B	0,0,0,0,0,0,0,0,0,0,0
    158  c35e		       00 00 00 00*	      DC.B	0,0,0,0,0,0,0,0
    159  c366		       00 00 00 16*	      DC.B	$00,$00,$00,$16,$00,$09,$50,$21,$41,$55,$55,$15,$45
    160  c373		       00 00 00 05*	      DC.B	$00,$00,$00,$05,$55,$0A,$AA,$8A,$02,$AA,$AA,$2A,$0A
    161  c380		       55 54 15 55*	      DC.B	$55,$54,$15,$55,$50,$15,$55,$50,$00,$94,$00,$00,$00
    162  c38d		       aa a8 00 aa*	      DC.B	$AA,$A8,$00,$AA,$55,$2A,$AA,$A0,$55,$50,$00,$00,$00
    163  c39a		       0f f0 00 00*	      DC.B	$0F,$F0,$00,$00,$00,$01,$55,$55,$80
    164  c3a3		       00 00 00 00*	      DC.B	0,0,0,0,0,0,0,0,0
    165  c3ac		       00 00		      DC.B	0,0
    166  c3ae		       00 00 00 00*	      DC.B	0,0,0,0,0,0,0,0,0,0
    167  c3b8		       00 00 00 00*	      DC.B	0,0,0,0,0,0,0,0,0,0,0,0
    168  c3c4		       00 00 00 00	      DC.B	0,0,0,0
    169  c3c8		       00 00 00 00*	      DC.B	$00,$00,$00,$00,$00,$00,$00,$00
    170  c3d0		       00 00 00 00*	      DC.B	$00,$00,$00,$00,$00,$00,$00,$00
    171  c3d8		       00 00 00 00*	      DC.B	$00,$00,$00,$00,$00,$00,$00,$00,$00,0,0
    172  c3e3		       00 00 00 00*	      DC.B	$00,$00,$00,$00,$00,$00,$00
    173  c3ea		       00 00 00 00*	      DC.B	$00,$00,$00,$00,$00,$00,$00,$00
    174  c3f2		       00 00 00 00*	      DC.B	$00,$00,$00,$00,$00,$00,$00,$00,$00,$00,$00,$00,$00
    175  c3ff
    176  c400					      ORG	$C400	;		    ; 8 TH LINE
    177  c400		       10 00 30 	      DC.B	$10,0,$30
    178  c403		       1f 00 34 	      DC.B	$1F,0,$34
    179  c406		       df 03 f4 	      DC.B	$DF,$03,$F4
    180  c409		       df af f4 	      DC.B	$DF,$AF,$F4
    181  c40c		       1f af f4 	      DC.B	$1F,$AF,$F4
    182  c40f		       1f ab d4 	      DC.B	$1F,$AB,$D4
    183  c412		       07 eb d0 	      DC.B	$07,$EB,$D0
    184  c415		       02 ea a0 	      DC.B	$02,$EA,$A0
    185  c418		       2a 02 a0 	      DC.B	$2A,$02,$A0
    186  c41b		       aa 2a 22 a2*	      DC.B	$AA,$2A,$22,$A2,$A2,$A0
    187  c421		       2a 00		      DC.B	$2A,$00
    188  c423		       aa 00		      DC.B	$AA,$00
    189  c425		       aa 80		      DC.B	$AA,$80
    190  c427		       2a 00		      DC.B	$2A,$00
    191  c429		       02 80		      DC.B	$02,$80
    192  c42b		       aa 00		      DC.B	$AA,$00
    193  c42d		       2a 00		      DC.B	$2A,0
    194  c42f		       a0 00		      DC.B	$A0,0
    195  c431		       2a 00		      DC.B	$2A,0
    196  c433		       aa 00		      DC.B	$AA,0
    197  c435		       a0 82 a0 a0*	      DC.B	$A0,$82,$A0,$A0,$A2,$A8,$2A,$A2,$8A,$00
    198  c43f		       2a 0a 00 00*	      DC.B	$2A,$0A,$00,$00,$0A,$28,$AA,$0A,$02,$A0
    199  c449		       a0 0a a8 a2*	      DC.B	$A0,$0A,$A8,$A2,$8A,$00,$AA,$82,$A0,$28
    200  c453		       2a 0a 00 aa*	      DC.B	$2A,$0A,$00,$AA,$82,$A0,$AA,$28,$A2,$AA,0
    201  c45e		       aa 02 a0 a0*	      DC.B	$AA,$02,$A0,$A0,$82,$A0,$2A,$00
    202  c466		       00 00 00 05*	      DC.B	$00,$00,$00,$05,$82,$09,$50,$10,$50,$55,$55,$15,$41
    203  c473		       00 0f ff c9*	      DC.B	$00,$0F,$FF,$C9,$54,$2A,$AA,$AA,$82,$AA,$AA,$AA,$8A
    204  c480		       55 54 35 55*	      DC.B	$55,$54,$35,$55,$80,$05,$55,$50,$82,$50,$00,$00,$00
    205  c48d		       aa aa 28 a5*	      DC.B	$AA,$AA,$28,$A5,$60,$2A,$AA,$A8,$15,$63,$FF,$F0,$00
    206  c49a		       3c 3c 0c 0c*	      DC.B	$3C,$3C,$0C,$0C,$FC,$0E,$AA,$AA,$80
    207  c4a3		       00 00 00 00*	      DC.B	0,0,0,0,0,0,0,0,0
    208  c4ac		       00 00		      DC.B	0,0
    209  c4ae		       a0 0a a0 aa*	      DC.B	$A0,$0A,$A0,$AA,$28,$A0,$A0,$AA,$8A,$28
    210  c4b8		       2a 0a 28 a0*	      DC.B	$2A,$0A,$28,$A0,$02,$80,$A8,$28,$A2,$AA,$2A,$80
    211  c4c4		       aa 00		      DC.B	$AA,0
    212  c4c6		       aa 80		      DC.B	$AA,$80
    213  c4c8		       2a 8a 28 a2*	      DC.B	$2A,$8A,$28,$A2,$8A,$A8,$AA,$8A
    214  c4d0		       a8 a0 82 a8*	      DC.B	$A8,$A0,$82,$A8,$AA,$28,$20,$AA
    215  c4d8		       a0 0a a8 a2*	      DC.B	$A0,$0A,$A8,$A2,$82,$A0,$AA,$8A,$28,$2A,0
    216  c4e3		       2a 02 82 8a*	      DC.B	$2A,$02,$82,$8A,$0A,$A2,$AA
    217  c4ea		       a2 8a a8 a2*	      DC.B	$A2,$8A,$A8,$A2,$8A,$A0,$2A,$00
    218  c4f2		       2a 8a 28 a2*	      DC.B	$2A,$8A,$28,$A2,$8A,$A8,$00,$A8,$02,$02,$AA,$28,$A0
    219  c4ff
    220  c500					      ORG	$C500	;		    ; 7 TH LINE
    221  c500		       c0 00 c0 	      DC.B	$C0,0,$C0
    222  c503		       ce 03 00 	      DC.B	$CE,3,0
    223  c506		       ee 22 10 	      DC.B	$EE,$22,$10
    224  c509		       fe aa 50 	      DC.B	$FE,$AA,$50
    225  c50c		       1f aa 50 	      DC.B	$1F,$AA,$50
    226  c50f		       1f a9 50 	      DC.B	$1F,$A9,$50
    227  c512		       07 e9 40 	      DC.B	$07,$E9,$40
    228  c515		       02 ea 00 	      DC.B	$02,$EA,0
    229  c518		       aa 8a a8 	      DC.B	$AA,$8A,$A8
    230  c51b		       aa aa 8a aa*	      DC.B	$AA,$AA,$8A,$AA,$AA,$A8
    231  c521		       aa 80		      DC.B	$AA,$80
    232  c523		       aa 00		      DC.B	$AA,0
    233  c525		       aa 80		      DC.B	$AA,$80
    234  c527		       aa 80		      DC.B	$AA,$80
    235  c529		       02 80		      DC.B	$02,$80
    236  c52b		       aa 80		      DC.B	$AA,$80
    237  c52d		       aa 80		      DC.B	$AA,$80
    238  c52f		       a0 00		      DC.B	$A0,$00
    239  c531		       aa 80		      DC.B	$AA,$80
    240  c533		       aa 80		      DC.B	$AA,$80
    241  c535		       a2 8a a8 a0*	      DC.B	$A2,$8A,$A8,$A0,$A2,$8A,$2A,$A2,$8A,$00
    242  c53f		       aa 8a 00 00*	      DC.B	$AA,$8A,$00,$00,$0A,$28,$28,$0A,$0A,$28
    243  c549		       a0 0a a8 a2*	      DC.B	$A0,$0A,$A8,$A2,$8A,$00,$AA,$8A,$A8,$28
    244  c553		       a2 8a 00 aa*	      DC.B	$A2,$8A,$00,$AA,$8A,$A8,$28,$28,$A2,$AA,0
    245  c55e		       aa 8a a8 a2*	      DC.B	$AA,$8A,$A8,$A2,$8A,$A8,$A2,$80
    246  c566		       00 00 00 01*	      DC.B	$00,$00,$00,$01,$6A,$01,$50,$18,$14,$15,$56,$15,$40
    247  c573		       00 00 00 28*	      DC.B	$00,$00,$00,$28,$58,$2A,$AA,$AA,$A2,$AA,$AA,$AA,$8A
    248  c580		       55 58 01 55*	      DC.B	$55,$58,$01,$55,$50,$01,$55,$60,$A9,$40,$00,$00,$00
    249  c58d		       aa aa aa a8*	      DC.B	$AA,$AA,$AA,$A8,$00,$2A,$AA,$AA,$25,$28,$00,$00,$00
    250  c59a		       30 cc 0c 0c*	      DC.B	$30,$CC,$0C,$0C,$CC,$0C,$55,$55,$60
    251  c5a3		       00 00 00 00*	      DC.B	0,0,0,0,0,0,0,0,0
    252  c5ac		       00 00		      DC.B	0,0
    253  c5ae		       a0 02 82 aa*	      DC.B	$A0,$02,$82,$AA,$28,$A0,$A0,$AA,$8A,$28
    254  c5b8		       aa 8a 28 a0*	      DC.B	$AA,$8A,$28,$A0,$02,$82,$AA,$28,$A2,$AA,$2A,$A0
    255  c5c4		       aa 00		      DC.B	$AA,0
    256  c5c6		       aa 80		      DC.B	$AA,$80
    257  c5c8		       aa 8a 28 a2*	      DC.B	$AA,$8A,$28,$A2,$8A,$A8,$AA,$8A
    258  c5d0		       a8 a2 8a a8*	      DC.B	$A8,$A2,$8A,$A8,$28,$28,$A2,$AA
    259  c5d8		       a0 0a a8 a2*	      DC.B	$A0,$0A,$A8,$A2,$82,$A0,$AA,$8A,$28,$A2,$80
    260  c5e3		       a2 82 82 8a*	      DC.B	$A2,$82,$82,$8A,$2A,$A2,$AA
    261  c5ea		       a2 8a a8 a2*	      DC.B	$A2,$8A,$A8,$A2,$8A,$A8,$2A,$00
    262  c5f2		       aa 8a 28 a2*	      DC.B	$AA,$8A,$28,$A2,$8A,$A8,$02,$AA,$0A,$82,$AA,$28,$A0
    263  c5ff
    264  c600					      ORG	$C600	;		    ; 6 TH LINE
    265  c600		       08 00 3c 	      DC.B	$08,0,$3C
    266  c603		       08 c0 d2 	      DC.B	$08,$C0,$D2
    267  c606		       e8 01 e8 	      DC.B	$E8,$1,$E8
    268  c609		       fa aa d8 	      DC.B	$FA,$AA,$D8
    269  c60c		       3f aa d0 	      DC.B	$3F,$AA,$D0
    270  c60f		       1f 6b d0 	      DC.B	$1F,$6B,$D0
    271  c612		       01 6b d0 	      DC.B	$1,$6B,$D0
    272  c615		       2a 48 80 	      DC.B	$2A,$48,$80
    273  c618		       a2 8a 28 	      DC.B	$A2,$8A,$28
    274  c61b		       28 a2 8a 2a*	      DC.B	$28,$A2,$8A,$2A,$2A,$28
    275  c621		       a2 80		      DC.B	$A2,$80
    276  c623		       28 00		      DC.B	$28,0
    277  c625		       2a 00		      DC.B	$2A,0
    278  c627		       a2 80		      DC.B	$A2,$80
    279  c629		       aa 80		      DC.B	$AA,$80
    280  c62b		       02 80		      DC.B	$02,$80
    281  c62d		       a2 80		      DC.B	$A2,$80
    282  c62f		       28 00		      DC.B	$28,0
    283  c631		       a2 80		      DC.B	$A2,$80
    284  c633		       02 80		      DC.B	$02,$80
    285  c635		       aa 8a 28 a0*	      DC.B	$AA,$8A,$28,$A0,$A2,$8A,$28,$02,$AA,$00
    286  c63f		       a2 8a 00 00*	      DC.B	$A2,$8A,$00,$00,$0A,$28,$28,$0A,$00,$28
    287  c649		       aa 0a 00 aa*	      DC.B	$AA,$0A,$00,$AA,$8A,$00,$A0,$0A,$28,$28
    288  c653		       02 8a a0 a0*	      DC.B	$02,$8A,$A0,$A0,$0A,$28,$28,$2A,$A2,$80,0
    289  c65e		       a2 8a 28 aa*	      DC.B	$A2,$8A,$28,$AA,$8A,$28,$02,$80
    290  c666		       00 00 00 00*	      DC.B	$00,$00,$00,$00,$55,$02,$54,$18,$04,$09,$58,$15,$40
    291  c673		       00 03 ff 60*	      DC.B	$00,$03,$FF,$60,$A9,$15,$55,$55,$55,$55,$55,$55,$45
    292  c680		       25 60 00 25*	      DC.B	$25,$60,$00,$25,$50,$00,$95,$80,$55,$00,$00,$00,$00
    293  c68d		       55 54 55 54*	      DC.B	$55,$54,$55,$54,$00,$15,$55,$50,$6A,$09,$FF,$C0,$00
    294  c69a		       33 0c 0c fc*	      DC.B	$33,$0C,$0C,$FC,$FC,$FC,$AA,$AA,$A0
    295  c6a3		       00 00 00 00*	      DC.B	0,0,0,0,0,0,0,0,0
    296  c6ac		       00 00		      DC.B	0,0
    297  c6ae		       a0 02 82 82*	      DC.B	$A0,$02,$82,$82,$28,$A0,$A0,$A0,$0A,$A8
    298  c6b8		       a2 8a a8 aa*	      DC.B	$A2,$8A,$A8,$AA,$02,$82,$8A,$2A,$A2,$80,$28,$A0
    299  c6c4		       28 00		      DC.B	$28,0
    300  c6c6		       a8 00		      DC.B	$A8,0
    301  c6c8		       a2 8a 28 aa*	      DC.B	$A2,$8A,$28,$AA,$8A,$00,$A0,$0A
    302  c6d0		       00 aa 8a 08*	      DC.B	$00,$AA,$8A,$08,$28,$2A,$A2,$82
    303  c6d8		       aa 0a 00 aa*	      DC.B	$AA,$0A,$00,$AA,$82,$A0,$A0,$0A,$A8,$02,$80
    304  c6e3		       02 82 82 aa*	      DC.B	$02,$82,$82,$AA,$28,$22,$80
    305  c6ea		       aa 8a 00 aa*	      DC.B	$AA,$8A,$00,$AA,$8A,$28,$2A,$00
    306  c6f2		       a0 8a a8 a2*	      DC.B	$A0,$8A,$A8,$A2,$8A,$00,$02,$8A,$2A,$A2,$80,$2A,$A0
    307  c6ff
    308  c700					      ORG	$C700	;		    ; 5 TH LINE
    309  c700		       30 00 00 	      DC.B	$30,0,0
    310  c703		       30 00 38 	      DC.B	$30,0,$38
    311  c706		       fa 22 3a 	      DC.B	$FA,$22,$3A
    312  c709		       fe a6 f8 	      DC.B	$FE,$A6,$F8
    313  c70c		       3f a6 f4 	      DC.B	$3F,$A6,$F4
    314  c70f		       04 57 f4 	      DC.B	$4,$57,$F4
    315  c712		       00 57 d0 	      DC.B	$0,$57,$D0
    316  c715		       0a 21 80 	      DC.B	$A,$21,$80
    317  c718		       a2 8a 28 	      DC.B	$A2,$8A,$28
    318  c71b		       28 a2 8a 2a*	      DC.B	$28,$A2,$8A,$2A,$2A,$28
    319  c721		       a2 80		      DC.B	$A2,$80
    320  c723		       28 00		      DC.B	$28,0
    321  c725		       0a 80		      DC.B	$0A,$80
    322  c727		       0a 80		      DC.B	$0A,$80
    323  c729		       a0 80		      DC.B	$A0,$80
    324  c72b		       aa 80		      DC.B	$AA,$80
    325  c72d		       a2 80		      DC.B	$A2,$80
    326  c72f		       28 00		      DC.B	$28,0
    327  c731		       a2 80		      DC.B	$A2,$80
    328  c733		       2a 80		      DC.B	$2A,$80
    329  c735		       aa 8a 28 aa*	      DC.B	$AA,$8A,$28,$AA,$A2,$A8,$2A,$82,$A8,$00
    330  c73f		       a2 8a a0 00*	      DC.B	$A2,$8A,$A0,$00,$0A,$A8,$28,$0A,$02,$A8
    331  c749		       aa 8a a0 aa*	      DC.B	$AA,$8A,$A0,$AA,$0A,$A0,$AA,$0A,$00,$28
    332  c753		       2a 8a a8 aa*	      DC.B	$2A,$8A,$A8,$AA,$0A,$00,$28,$2A,$A2,$80,0
    333  c75e		       aa 0a 28 aa*	      DC.B	$AA,$0A,$28,$AA,$8A,$28,$2A,$80
    334  c766		       00 00 00 00*	      DC.B	$00,$00,$00,$00,$96,$00,$54,$14,$00,$00,$00,$15,$40
    335  c773		       00 00 00 18*	      DC.B	$00,$00,$00,$18,$A9,$2A,$A2,$AA,$AA,$AA,$AA,$2A,$8A
    336  c780		       00 00 00 00*	      DC.B	$00,$00,$00,$00,$00,$00,$00,$00,$96,$00,$00,$00,$00
    337  c78d		       aa a8 aa aa*	      DC.B	$AA,$A8,$AA,$AA,$00,$2A,$AA,$A0,$6A,$24,$00,$00,$00
    338  c79a		       33 0c 0c cc*	      DC.B	$33,$0C,$0C,$CC,$CC,$CC,$28,$AA,$A0
    339  c7a3		       00 00 00 00*	      DC.B	0,0,0,0,0,0,0,0,0
    340  c7ac		       00 00		      DC.B	0,0
    341  c7ae		       aa 02 82 8a*	      DC.B	$AA,$02,$82,$8A,$2A,$A0,$A0,$AA,$0A,$A0
    342  c7b8		       a0 0a a8 aa*	      DC.B	$A0,$0A,$A8,$AA,$82,$82,$8A,$2A,$82,$A8,$28,$A0
    343  c7c4		       28 00		      DC.B	$28,0
    344  c7c6		       2a 00		      DC.B	$2A,0
    345  c7c8		       a2 8a a8 aa*	      DC.B	$A2,$8A,$A8,$AA,$8A,$00,$A0,$0A
    346  c7d0		       a0 aa 8a 28*	      DC.B	$A0,$AA,$8A,$28,$28,$2A,$A2,$8A
    347  c7d8		       aa 8a 00 aa*	      DC.B	$AA,$8A,$00,$AA,$8A,$A8,$AA,$0A,$A0,$2A,$80
    348  c7e3		       2a 82 82 aa*	      DC.B	$2A,$82,$82,$AA,$28,$A2,$A8
    349  c7ea		       aa 0a a0 aa*	      DC.B	$AA,$0A,$A0,$AA,$8A,$28,$AA,$80
    350  c7f2		       a2 8a a8 a2*	      DC.B	$A2,$8A,$A8,$A2,$8A,$A0,$02,$8A,$28,$A2,$A8,$2A,$80
    351  c7ff
    352  c800					      ORG	$C800	;		    ; 4 TH LINE
    353  c800		       00 00 02 	      DC.B	0,0,2
    354  c803		       20 02 02 	      DC.B	$20,2,2
    355  c806		       2b a0 3a 	      DC.B	$2B,$A0,$3A
    356  c809		       2b a9 fa 	      DC.B	$2B,$A9,$FA
    357  c80c		       07 a9 f4 	      DC.B	$7,$A9,$F4
    358  c80f		       00 a9 d4 	      DC.B	0,$A9,$D4
    359  c812		       00 01 40 	      DC.B	0,1,$40
    360  c815		       02 a0 20 	      DC.B	2,$A0,$20
    361  c818		       a2 8a 28 	      DC.B	$A2,$8A,$28
    362  c81b		       28 a2 8a 2a*	      DC.B	$28,$A2,$8A,$2A,$2A,$28
    363  c821		       a2 80		      DC.B	$A2,$80
    364  c823		       28 00		      DC.B	$28,0
    365  c825		       a2 80		      DC.B	$A2,$80
    366  c827		       0a 80		      DC.B	$0A,$80
    367  c829		       28 80		      DC.B	$28,$80
    368  c82b		       aa 00		      DC.B	$AA,0
    369  c82d		       aa 00		      DC.B	$AA,$00
    370  c82f		       0a 00		      DC.B	$0A,0
    371  c831		       2a 00		      DC.B	$2A,$00
    372  c833		       a2 80		      DC.B	$A2,$80
    373  c835		       aa 8a 28 aa*	      DC.B	$AA,$8A,$28,$AA,$A2,$8A,$2A,$82,$8A,$00
    374  c83f		       a2 8a a0 00*	      DC.B	$A2,$8A,$A0,$00,$0A,$A8,$28,$0A,$0A,$A0
    375  c849		       a2 8a a0 a2*	      DC.B	$A2,$8A,$A0,$A2,$8A,$A0,$AA,$0A,$00,$28
    376  c853		       aa 0a 28 aa*	      DC.B	$AA,$0A,$28,$AA,$0A,$00,$28,$28,$A2,$80,0
    377  c85e		       aa 8a 28 aa*	      DC.B	$AA,$8A,$28,$AA,$8A,$28,$AA,$00
    378  c866		       00 00 00 00*	      DC.B	$00,$00,$00,$00,$94,$00,$95,$16,$00,$00,$00,$15,$40
    379  c873		       00 0f ff c6*	      DC.B	$00,$0F,$FF,$C6,$A5,$2A,$80,$AA,$AA,$AA,$AA,$2A,$8A
    380  c880		       00 00 00 00*	      DC.B	$00,$00,$00,$00,$00,$00,$00,$00,$16,$80,$00,$00,$00
    381  c88d		       aa a8 aa aa*	      DC.B	$AA,$A8,$AA,$AA,$80,$2A,$AA,$A0,$5A,$93,$FF,$F0,$00
    382  c89a		       30 cc 0c fc*	      DC.B	$30,$CC,$0C,$FC,$FC,$CC,$05,$15,$58
    383  c8a3		       00 00 00 00*	      DC.B	$00,$00,$00,$00,$00,$0A,$80,$00,$00
    384  c8ac		       00 00		      DC.B	0,0
    385  c8ae		       aa 02 82 80*	      DC.B	$AA,$02,$82,$80,$2A,$A0,$A0,$AA,$0A,$28
    386  c8b8		       a0 0a 28 a2*	      DC.B	$A0,$0A,$28,$A2,$82,$82,$8A,$28,$A2,$A8,$28,$A0
    387  c8c4		       28 00		      DC.B	$28,$00
    388  c8c6		       0a 80		      DC.B	$0A,$80
    389  c8c8		       a0 0a a8 a2*	      DC.B	$A0,$0A,$A8,$A2,$8A,$00,$A0,$0A
    390  c8d0		       a0 aa 8a 00*	      DC.B	$A0,$AA,$8A,$00,$28,$2A,$A2,$80
    391  c8d8		       a2 8a 00 a2*	      DC.B	$A2,$8A,$00,$A2,$8A,$A8,$AA,$0A,$28,$AA,0
    392  c8e3		       aa 02 82 8a*	      DC.B	$AA,$02,$82,$8A,$28,$02,$A8
    393  c8ea		       a2 8a a0 a2*	      DC.B	$A2,$8A,$A0,$A2,$8A,$28,$AA,$80
    394  c8f2		       a0 0a 28 aa*	      DC.B	$A0,$0A,$28,$AA,$8A,$A0,$02,$8A,$28,$A2,$A8,$28,$A0
    395  c8ff
    396  c900					      ORG	$C900	;		    ; THIRD LINE
    397  c900		       40 0c 0c 	      DC.B	$40,$C,$C
    398  c903		       00 0c 0c 	      DC.B	0,$C,$C
    399  c906		       02 ac fe 	      DC.B	2,$AC,$FE
    400  c909		       02 af fe 	      DC.B	2,$AF,$FE
    401  c90c		       00 2f f0 	      DC.B	0,$2F,$F0
    402  c90f		       00 2f 00 	      DC.B	0,$2F,0
    403  c912		       00 00 00 	      DC.B	0,0,0
    404  c915		       08 20 00 	      DC.B	8,$20,0
    405  c918		       a2 8a 28 	      DC.B	$A2,$8A,$28
    406  c91b		       a8 a2 8a 2a*	      DC.B	$A8,$A2,$8A,$2A,$2A,$28
    407  c921		       a2 80		      DC.B	$A2,$80
    408  c923		       a8 00		      DC.B	$A8,0
    409  c925		       a2 80		      DC.B	$A2,$80
    410  c927		       a2 80		      DC.B	$A2,$80
    411  c929		       0a 80		      DC.B	$0A,$80
    412  c92b		       a0 00		      DC.B	$A0,0
    413  c92d		       a0 00		      DC.B	$A0,0
    414  c92f		       0a 00		      DC.B	$0A,0
    415  c931		       a2 80		      DC.B	$A2,$80
    416  c933		       a2 80		      DC.B	$A2,$80
    417  c935		       aa 8a 28 aa*	      DC.B	$AA,$8A,$28,$AA,$A2,$8A,$28,$02,$8A,$00
    418  c93f		       a2 8a 00 00*	      DC.B	$A2,$8A,$00,$00,$0A,$28,$28,$0A,$0A,$00
    419  c949		       a2 8a 00 a2*	      DC.B	$A2,$8A,$00,$A2,$8A,$00,$A0,$0A,$28,$28
    420  c953		       a0 0a 28 a0*	      DC.B	$A0,$0A,$28,$A0,$0A,$28,$28,$28,$A2,$80,0
    421  c95e		       a2 8a 28 aa*	      DC.B	$A2,$8A,$28,$AA,$8A,$28,$A0,$00
    422  c966		       00 00 00 02*	      DC.B	$00,$00,$00,$02,$98,$00,$15,$56,$00,$00,$00,$25,$40
    423  c973		       00 00 00 01*	      DC.B	$00,$00,$00,$01,$A6,$15,$40,$05,$54,$55,$15,$15,$41
    424  c980		       00 00 00 00*	      DC.B	$00,$00,$00,$00,$00,$00,$00,$00,$26,$80,$00,$00,$00
    425  c98d		       54 54 55 55*	      DC.B	$54,$54,$55,$55,$40,$05,$51,$50,$9A,$40,$00,$00,$00
    426  c99a		       3c 3c 00 00*	      DC.B	$3C,$3C,$00,$00,$00,$00,$0A,$2A,$A8
    427  c9a3		       00 cc 30 cc*	      DC.B	$00,$CC,$30,$CC,$CC,$CA,$A8,$00,$00
    428  c9ac		       00 00		      DC.B	0,0
    429  c9ae		       a0 02 82 8a*	      DC.B	$A0,$02,$82,$8A,$28,$A0,$A0,$A0,$0A,$28
    430  c9b8		       a2 8a 28 a2*	      DC.B	$A2,$8A,$28,$A2,$82,$82,$8A,$28,$A2,$80,$28,$A0
    431  c9c4		       28 00		      DC.B	$28,0
    432  c9c6		       a2 80		      DC.B	$A2,$80
    433  c9c8		       a2 8a 28 a2*	      DC.B	$A2,$8A,$28,$A2,$8A,$00,$A0,$0A
    434  c9d0		       00 aa 8a 28*	      DC.B	$00,$AA,$8A,$28,$28,$2A,$A2,$8A
    435  c9d8		       a2 8a 00 a2*	      DC.B	$A2,$8A,$00,$A2,$8A,$28,$A0,$0A,$28,$A0,0
    436  c9e3		       a0 02 82 8a*	      DC.B	$A0,$02,$82,$8A,$28,$A2,$80
    437  c9ea		       a2 8a 00 a2*	      DC.B	$A2,$8A,$00,$A2,$8A,$28,$A2,$80
    438  c9f2		       a2 8a 28 aa*	      DC.B	$A2,$8A,$28,$AA,$8A,$00,$02,$8A,$28,$A2,$80,$28,$A0
    439  c9ff
    440  ca00					      ORG	$CA00	;		    ; SECOND LINE
    441  ca00		       00 00 00 	      DC.B	0,0,0
    442  ca03		       02 00 00 	      DC.B	2,0,0
    443  ca06		       02 63 ff 	      DC.B	2,$63,$FF
    444  ca09		       00 83 fc 	      DC.B	0,$83,$FC
    445  ca0c		       04 03 c0 	      DC.B	$4,3,$C0
    446  ca0f		       00 00 00 	      DC.B	0,0,0
    447  ca12		       00 00 00 	      DC.B	0,0,0
    448  ca15		       00 00 00 	      DC.B	0,0,0
    449  ca18		       aa 8a a8 	      DC.B	$AA,$8A,$A8
    450  ca1b		       a8 aa 8a aa*	      DC.B	$A8,$AA,$8A,$AA,$AA,$A8
    451  ca21		       aa 80		      DC.B	$AA,$80
    452  ca23		       a8 00		      DC.B	$A8,0
    453  ca25		       aa 80		      DC.B	$AA,$80
    454  ca27		       aa 80		      DC.B	$AA,$80
    455  ca29		       0a 80		      DC.B	$0A,$80
    456  ca2b		       aa 80		      DC.B	$AA,$80
    457  ca2d		       aa 80		      DC.B	$AA,$80
    458  ca2f		       aa 80		      DC.B	$AA,$80
    459  ca31		       aa 80		      DC.B	$AA,$80
    460  ca33		       aa 80		      DC.B	$AA,$80
    461  ca35		       a2 8a 28 a0*	      DC.B	$A2,$8A,$28,$A0,$A2,$AA,$2A,$A2,$AA,$00
    462  ca3f		       aa 8a a8 00*	      DC.B	$AA,$8A,$A8,$00,$0A,$28,$28,$2A,$8A,$28
    463  ca49		       aa 8a a8 aa*	      DC.B	$AA,$8A,$A8,$AA,$8A,$A8,$AA,$8A,$A8,$AA
    464  ca53		       a2 8a a8 aa*	      DC.B	$A2,$8A,$A8,$AA,$8A,$A8,$28,$2A,$A2,$80,0
    465  ca5e		       aa 8a a8 a2*	      DC.B	$AA,$8A,$A8,$A2,$8A,$28,$A2,$80
    466  ca66		       00 00 00 2a*	      DC.B	$00,$00,$00,$2A,$50,$00,$05,$55,$00,$00,$00,$05,$40
    467  ca73		       00 ff ff f2*	      DC.B	$00,$FF,$FF,$F2,$A4,$2A,$80,$0A,$A0,$AA,$2A,$2A,$82
    468  ca80		       00 00 00 00*	      DC.B	$00,$00,$00,$00,$00,$00,$00,$00,$05,$A8,$00,$00,$00
    469  ca8d		       a8 a8 aa 2a*	      DC.B	$A8,$A8,$AA,$2A,$A0,$0A,$A2,$A0,$1A,$8F,$FF,$FF,$00
    470  ca9a		       0f f0 00 00*	      DC.B	$0F,$F0,$00,$00,$00,$00,$02,$AA,$A4
    471  caa3		       00 fc 30 fc*	      DC.B	$00,$FC,$30,$FC,$F0,$CA,$AA,$80,$00
    472  caac		       00 00		      DC.B	0,0
    473  caae		       aa 82 82 aa*	      DC.B	$AA,$82,$82,$AA,$28,$A2,$A8,$AA,$8A,$A8
    474  cab8		       aa 8a a8 aa*	      DC.B	$AA,$8A,$A8,$AA,$8A,$A2,$8A,$2A,$A2,$AA,$2A,$A0
    475  cac4		       a8 00		      DC.B	$A8,0
    476  cac6		       aa 80		      DC.B	$AA,$80
    477  cac8		       aa 8a 28 aa*	      DC.B	$AA,$8A,$28,$AA,$8A,$00,$A0,$0A
    478  cad0		       a8 a2 8a a8*	      DC.B	$A8,$A2,$8A,$A8,$28,$28,$A2,$AA
    479  cad8		       aa 8a 00 aa*	      DC.B	$AA,$8A,$00,$AA,$8A,$28,$AA,$8A,$28,$A2,$80
    480  cae3		       a2 8a a2 aa*	      DC.B	$A2,$8A,$A2,$AA,$2A,$A2,$AA
    481  caea		       aa 8a a8 aa*	      DC.B	$AA,$8A,$A8,$AA,$8A,$A8,$A2,$80
    482  caf2		       aa 8a a8 aa*	      DC.B	$AA,$8A,$A8,$AA,$8A,$A8,$02,$AA,$28,$A2,$AA,$2A,$A0
    483  caff
    484  cb00					      ORG	$CB00	;		    ;FIRST LINE
    485  cb00		       07 00 03 	      DC.B	7,0,3
    486  cb03		       07 80 cf 	      DC.B	7,$80,$CF
    487  cb06		       00 80 fc 	      DC.B	0,$80,$FC
    488  cb09		       10 00 f0 	      DC.B	$10,0,$F0
    489  cb0c		       00 00 00 	      DC.B	0,0,0
    490  cb0f		       00 00 00 	      DC.B	0,0,0
    491  cb12		       00 00 00 	      DC.B	0,0,0
    492  cb15		       00 00 00 	      DC.B	0,0,0
    493  cb18		       2a 02 a0 	      DC.B	$2A,$02,$A0
    494  cb1b		       28 2a 02 a2*	      DC.B	$28,$2A,$02,$A2,$A2,$A0
    495  cb21		       2a 00		      DC.B	$2A,0
    496  cb23		       28 00		      DC.B	$28,0
    497  cb25		       2a 00		      DC.B	$2A,0
    498  cb27		       2a 00		      DC.B	$2A,0
    499  cb29		       02 80		      DC.B	$02,$80
    500  cb2b		       aa 80		      DC.B	$AA,$80
    501  cb2d		       2a 80		      DC.B	$2A,$80
    502  cb2f		       aa 80		      DC.B	$AA,$80
    503  cb31		       2a 00		      DC.B	$2A,0
    504  cb33		       2a 00		      DC.B	$2A,0
    505  cb35		       82 8a 28 80*	      DC.B	$82,$8A,$28,$80,$22,$A8,$2A,$A2,$A8,$00
    506  cb3f		       2a 0a a8 00*	      DC.B	$2A,$0A,$A8,$00,$0A,$28,$AA,$2A,$82,$A0
    507  cb49		       aa 0a a8 aa*	      DC.B	$AA,$0A,$A8,$AA,$0A,$A8,$AA,$82,$A0,$AA
    508  cb53		       2a 0a a0 aa*	      DC.B	$2A,$0A,$A0,$AA,$82,$A0,$AA,$0A,$82,$80,0
    509  cb5e		       aa 02 a0 82*	      DC.B	$AA,$02,$A0,$82,$8A,$28,$2A,$00
    510  cb66		       00 00 2a a5*	      DC.B	$00,$00,$2A,$A5,$40,$00,$02,$54,$00,$00,$00,$09,$80
    511  cb73		       00 00 00 02*	      DC.B	$00,$00,$00,$02,$98,$15,$40,$05,$60,$55,$15,$15,$41
    512  cb80		       00 00 00 00*	      DC.B	$00,$00,$00,$00,$00,$00,$00,$00,$01,$5A,$A8,$00,$00
    513  cb8d		       54 54 56 05*	      DC.B	$54,$54,$56,$05,$50,$05,$51,$50,$26,$80,$00,$00,$00
    514  cb9a		       00 00 00 00*	      DC.B	$00,$00,$00,$00,$00,$00,$0A,$AA,$A4
    515  cba3		       00 cc 30 cc*	      DC.B	$00,$CC,$30,$CC,$CC,$CA,$AA,$A0,$00
    516  cbac		       ff ff		      DC.B	$FF,$FF
    517  cbae		       aa 8a a0 a8*	      DC.B	$AA,$8A,$A0,$A8,$28,$A2,$A8,$AA,$8A,$A0
    518  cbb8		       2a 02 a0 aa*	      DC.B	$2A,$02,$A0,$AA,$0A,$A2,$8A,$2A,$82,$AA,$2A,$80
    519  cbc4		       28 00		      DC.B	$28,$00
    520  cbc6		       2a 00		      DC.B	$2A,$00
    521  cbc8		       2a 0a 28 2a*	      DC.B	$2A,$0A,$28,$2A,$0A,$00,$A0,$0A
    522  cbd0		       a8 82 82 a0*	      DC.B	$A8,$82,$82,$A0,$AA,$20,$A0,$A8
    523  cbd8		       aa 0a 00 2a*	      DC.B	$AA,$0A,$00,$2A,$0A,$28,$AA,$8A,$A0,$2A,$00
    524  cbe3		       2a 0a a0 a8*	      DC.B	$2A,$0A,$A0,$A8,$0A,$82,$AA
    525  cbea		       aa 0a a8 2a*	      DC.B	$AA,$0A,$A8,$2A,$0A,$A0,$A2,$80
    526  cbf2		       2a 02 a0 a2*	      DC.B	$2A,$02,$A0,$A2,$8A,$A8,$00,$A8,$28,$A2,$AA,$2A,$80
------- FILE GLOAD.ASM
------- FILE GDAC1_2.ASM LEVEL 2 PASS 2
      0  cbff					      include	"GDAC1_2.ASM"
      1  cbff					      processor	6502
      2  cbff
      3  cbff							;   ORG     $CC00
      4  cbff
      5  cbff							;
      6  cbff							;THIS SUBROUTINE INITIALIZES A SHIP TO CAUSE A BOSS ATTACK
      7  cbff							;THE SHIP IS POINTED TO BY THE Y REGISTER
      8  cbff							;THE Y REG IS SAVED
      9  cbff							;
     10  cbff		       a5 a7	   ATTKBO     LDA	CAPQUAN	;		  ;SEE IF CAN DO A CAPTURE
     11  cc01		       f0 42		      BEQ	DONTCAP
     12  cc03		       a5 5e		      LDA	HEROREAP	;		 ;SEE IF HERO IS SET TO REAPPEAR
     13  cc05		       d0 3e		      BNE	DONTCAP
     14  cc07		       ad fb 1d 	      LDA	TYPE+40	;		  ;SEE IF HERO ALREADY CAPTURED
     15  cc0a		       d0 39		      BNE	DONTCAP
     16  cc0c		       ad 11 1e 	      LDA	TYPE+62
     17  cc0f		       d0 34		      BNE	DONTCAP
     18  cc11
     19  cc11		       a2 06		      LDX	#6	;		       ;POINT X TO FIRST BOSS
     20  cc13		       20 28 cc 	      JSR	TESTBOSS
     21  cc16		       a2 11		      LDX	#17
     22  cc18		       20 28 cc 	      JSR	TESTBOSS
     23  cc1b		       a2 1a		      LDX	#26
     24  cc1d		       20 28 cc 	      JSR	TESTBOSS
     25  cc20		       a2 23		      LDX	#35
     26  cc22		       20 28 cc 	      JSR	TESTBOSS
     27  cc25		       4c 16 cd 	      JMP	INITCAPX
     28  cc28
     29  cc28		       bd d3 1d    TESTBOSS   LDA	TYPE,X	;		   ;SEE IF BOSS ALIVE
     30  cc2b		       d0 01		      BNE	TESTBOS1
     31  cc2d		       60		      RTS
     32  cc2e		       bd 77 1f    TESTBOS1   LDA	MODE,X
     33  cc31		       10 01		      BPL	TESTBOS2
     34  cc33		       60		      RTS
     35  cc34		       29 0f	   TESTBOS2   AND	#$F
     36  cc36		       c9 02		      CMP	#2
     37  cc38		       10 01		      BPL	TESTBOS3
     38  cc3a		       60		      RTS
     39  cc3b		       c9 05	   TESTBOS3   CMP	#5
     40  cc3d		       10 05		      BPL	TESTBOS4
     41  cc3f		       68		      PLA
     42  cc40		       68		      PLA		;			      ;BOOT THE RTS
     43  cc41		       4c 45 cc 	      JMP	DONTCAP
     44  cc44		       60	   TESTBOS4   RTS
     45  cc45
     46  cc45
     47  cc45				   DONTCAP
     48  cc45		       a9 ff		      LDA	#$FF
     49  cc47		       85 a7		      STA	CAPQUAN	;		  ;RESET ABILITY TO CAPTURE
     50  cc49		       aa		      TAX
     51  cc4a		       85 e2		      STA	BOZO8
     52  cc4c
     53  cc4c
     54  cc4c		       a6 e2	   ESCLOOP    LDX	BOZO8
     55  cc4e		       e8		      INX
     56  cc4f		       e0 04		      CPX	#4
     57  cc51		       d0 01		      BNE	BIGBIRD
     58  cc53		       60		      RTS
     59  cc54				   BIGBIRD
     60  cc54		       bd f6 cc 	      LDA	ESCARG0,X
     61  cc57		       85 da		      STA	BOZO0
     62  cc59
     63  cc59		       bd fa cc 	      LDA	ESCARG1,X
     64  cc5c		       85 db		      STA	BOZO1
     65  cc5e
     66  cc5e		       bd fe cc 	      LDA	ESCARG2,X
     67  cc61		       85 dc		      STA	BOZO2
     68  cc63
     69  cc63		       bd 02 cd 	      LDA	ESCARG3,X
     70  cc66		       85 dd		      STA	BOZO3
     71  cc68
     72  cc68		       bd 06 cd 	      LDA	ESCARG4,X
     73  cc6b		       85 de		      STA	BOZO4
     74  cc6d
     75  cc6d		       bd 0a cd 	      LDA	ESCARG5,X
     76  cc70		       85 df		      STA	BOZO5
     77  cc72
     78  cc72		       bd 0e cd 	      LDA	ESCARG6,X
     79  cc75		       85 e0		      STA	BOZO6
     80  cc77
     81  cc77		       bd 12 cd 	      LDA	ESCARG7,X
     82  cc7a		       85 e1		      STA	BOZO7
     83  cc7c
     84  cc7c		       86 e2		      STX	BOZO8
     85  cc7e
     86  cc7e
     87  cc7e		       c4 da		      CPY	BOZO0	;		    ;;*0 SEE IF FIRST BOSS TO GET ESCORTS
     88  cc80		       d0 ca		      BNE	ESCLOOP
     89  cc82		       a2 28		      LDX	#40	;		      ;SEE IF OWNS CAPTURED HERO SHIP
     90  cc84		       bd d3 1d 	      LDA	TYPE,X
     91  cc87		       f0 14		      BEQ	NOESC1
     92  cc89		       a5 5d		      LDA	CHTAB40
     93  cc8b		       c5 db		      CMP	BOZO1	;		    ; ;*1
     94  cc8d		       d0 0e		      BNE	NOESC1
     95  cc8f		       bd 77 1f 	      LDA	MODE,X
     96  cc92		       f0 01		      BEQ	YES1
     97  cc94		       60		      RTS
     98  cc95
     99  cc95				   YES1
    100  cc95		       20 ea cc 	      JSR	STRTESCB	;		 ;YES, OWNS CAPTURED HERO SHIP
    101  cc98		       a9 ff		      LDA	#$FF
    102  cc9a		       9d ba 1f 	      STA	COUNTXY,X
    103  cc9d		       a6 dc	   NOESC1     LDX	BOZO2	;		    ;;*2 CAUSE BOSS TO ATTACK
    104  cc9f		       20 ea cc 	      JSR	STRTESCB
    105  cca2		       a9 0f		      LDA	#$0F
    106  cca4		       9d ba 1f 	      STA	COUNTXY,X
    107  cca7		       e6 88		      INC	AIRBORNE
    108  cca9		       a6 dd		      LDX	BOZO3	;		    ;;*3 SEE IF FIRST ESCORT AROUND
    109  ccab		       bd d3 1d 	      LDA	TYPE,X
    110  ccae		       f0 18		      BEQ	NOESC1A
    111  ccb0		       bd 77 1f 	      LDA	MODE,X
    112  ccb3		       d0 13		      BNE	NOESC1A
    113  ccb5		       20 ea cc 	      JSR	STRTESCB
    114  ccb8		       a5 de		      LDA	BOZO4	;		    ;;*4 SAY IS LEFT ESCORT GOING TO LEFT
    115  ccba		       9d ba 1f 	      STA	COUNTXY,X
    116  ccbd		       e6 88		      INC	AIRBORNE
    117  ccbf		       a9 10		      LDA	#$10	;		     ;SAY HAS ONE MORE ESCORT
    118  ccc1		       18		      CLC
    119  ccc2		       79 ba 1f 	      ADC	COUNTXY,Y
    120  ccc5		       99 ba 1f 	      STA	COUNTXY,Y
    121  ccc8		       a6 df	   NOESC1A    LDX	BOZO5	;		    ;;*5 SEE IF SECOND ESCORT AROUND
    122  ccca		       bd d3 1d 	      LDA	TYPE,X
    123  cccd		       f0 26		      BEQ	NOESC1B
    124  cccf		       bd 77 1f 	      LDA	MODE,X
    125  ccd2		       d0 21		      BNE	NOESC1B
    126  ccd4		       20 ea cc 	      JSR	STRTESCB
    127  ccd7		       a5 e0		      LDA	BOZO6	;		    ;;*6 SAY IS RIGHT ESCORT GOING TO LEFT
    128  ccd9		       9d ba 1f 	      STA	COUNTXY,X
    129  ccdc		       e6 88		      INC	AIRBORNE
    130  ccde		       a9 10		      LDA	#$10	;		     ;SAY HAS ONE MORE ESCORT
    131  cce0		       18		      CLC
    132  cce1		       79 ba 1f 	      ADC	COUNTXY,Y
    133  cce4		       99 ba 1f 	      STA	COUNTXY,Y
    134  cce7		       4c 4c cc 	      JMP	ESCLOOP
    135  ccea
    136  ccea				   STRTESCB
    137  ccea		       24 e1		      BIT	BOZO7
    138  ccec		       10 04		      BPL	SNUFFY
    139  ccee		       20 44 cd 	      JSR	STRTESCN
    140  ccf1		       60		      RTS
    141  ccf2		       20 34 cd    SNUFFY     JSR	STRTESCP
    142  ccf5		       60	   NOESC1B    RTS
    143  ccf6
    144  ccf6
    145  ccf6		       06 1a 23 11 ESCARG0    DC	6,26,35,17
    146  ccfa		       03 04 05 06 ESCARG1    DC	3,4,5,6
    147  ccfe		       06 1a 23 11 ESCARG2    DC	6,26,35,17
    148  cd02		       14 1d 26 27 ESCARG3    DC	20,29,38,39
    149  cd06		       00 00 02 02 ESCARG4    DC	0,0,2,2
    150  cd0a		       26 27 1e 15 ESCARG5    DC	38,39,30,21
    151  cd0e		       01 01 03 03 ESCARG6    DC	1,1,3,3
    152  cd12		       00 00 80 80 ESCARG7    DC	0,0,$80,$80	;	       ; P OR N
    153  cd16
    154  cd16		       a9 00	   INITCAPX   LDA	#0
    155  cd18		       85 a7		      STA	CAPQUAN	;		  ;DISABLE FURTHER CAPTURES
    156  cd1a		       a9 04		      LDA	#<PEELOFF
    157  cd1c		       99 f3 1e 	      STA	ML,Y
    158  cd1f		       a9 93		      LDA	#>PEELOFF
    159  cd21		       99 36 1f 	      STA	MH,Y
    160  cd24		       b9 d3 1d 	      LDA	TYPE,Y
    161  cd27		       09 80		      ORA	#$80
    162  cd29		       99 d3 1d 	      STA	TYPE,Y
    163  cd2c		       a9 02		      LDA	#2
    164  cd2e		       99 77 1f 	      STA	MODE,Y
    165  cd31		       e6 88		      INC	AIRBORNE
    166  cd33		       60		      RTS
    167  cd34
    168  cd34
    169  cd34							;
    170  cd34							;THIS SUBROUTINE INITIATES A SHIP POINTED TO BY THE X REG TO A POSITIVE BOSS
    171  cd34							;ATTACK
    172  cd34							;
    173  cd34		       a9 31	   STRTESCP   LDA	#<BOTBL1	;	       ;INIT TABLE POINTERS TO PEELOFF
    174  cd36		       9d f3 1e 	      STA	ML,X
    175  cd39		       a9 df		      LDA	#>BOTBL1
    176  cd3b		       9d 36 1f 	      STA	MH,X
    177  cd3e		       a9 85		      LDA	#$85
    178  cd40		       9d 77 1f 	      STA	MODE,X
    179  cd43		       60		      RTS
    180  cd44
    181  cd44
    182  cd44							;
    183  cd44							;THIS SUBROUTINE INITIATES A SHIP POINTED TO BY THE X REG TO A NEGATIVE BOSS
    184  cd44							;ATTACK
    185  cd44							;
    186  cd44		       a9 31	   STRTESCN   LDA	#<BOTBL1	;	       ;INIT TABLE POINTERS TO PEELOFF
    187  cd46		       9d f3 1e 	      STA	ML,X
    188  cd49		       a9 df		      LDA	#>BOTBL1
    189  cd4b		       9d 36 1f 	      STA	MH,X
    190  cd4e		       a9 c5		      LDA	#$C5
    191  cd50		       9d 77 1f 	      STA	MODE,X
    192  cd53		       60		      RTS
    193  cd54
    194  cd54
    195  cd54							;
    196  cd54							;THIS SUBROUTINE INITIALIZES A SHIP TO CAUSE A CONTINUED BOSS ATTACK
    197  cd54							;THE SHIP IS POINTED TO BY THE Y REGISTER
    198  cd54							;THE Y REG IS SAVED
    199  cd54							;
    200  cd54				   ATTKBO1
    201  cd54		       a2 28	   DONTCAP1   LDX	#40	;		      ;SEE IF OWNS CAPTURED HERO
    202  cd56		       bd d3 1d 	      LDA	TYPE,X
    203  cd59		       f0 1a		      BEQ	FINIBOAT
    204  cd5b		       c0 28		      CPY	#40
    205  cd5d		       d0 04		      BNE	DONTCCC
    206  cd5f		       a5 5d		      LDA	CHTAB40
    207  cd61		       10 03		      BPL	DONTCCC1
    208  cd63		       b9 7d 93    DONTCCC    LDA	CHTAB,Y
    209  cd66		       c5 5d	   DONTCCC1   CMP	CHTAB40
    210  cd68		       d0 0b		      BNE	FINIBOAT
    211  cd6a		       bd 77 1f 	      LDA	MODE,X	;		   ;SEE IF HERO READY
    212  cd6d		       c9 05		      CMP	#5
    213  cd6f		       f0 01		      BEQ	YEHP
    214  cd71		       60		      RTS
    215  cd72		       20 7b cd    YEHP       JSR	COTBOATK
    216  cd75		       98	   FINIBOAT   TYA		;			      ;CAUSE BOSS TO CONTINUE REGULAR BOSS
    217  cd76		       aa		      TAX		;			      ;ATTACK
    218  cd77		       20 7b cd 	      JSR	COTBOATK
    219  cd7a		       60		      RTS
    220  cd7b
    221  cd7b							;
    222  cd7b							;THIS SUBROUTINE INITIATES A CONTINUED REGULAR BOSS ATTACK
    223  cd7b							;THE SHIP INITIATED IS IN THE X REG
    224  cd7b							;
    225  cd7b				   COTBOATK
    226  cd7b		       e0 28		      CPX	#40
    227  cd7d		       d0 04		      BNE	COTB1
    228  cd7f		       a5 5d		      LDA	CHTAB40
    229  cd81		       10 03		      BPL	COTB2
    230  cd83		       bd 7d 93    COTB1      LDA	CHTAB,X	;		  ;SEE IF STARTED ON LEFT
    231  cd86		       c9 05	   COTB2      CMP	#5	;		       ;OR RIGHT
    232  cd88		       10 09		      BPL	RIGATK2
    233  cd8a		       a9 48		      LDA	#72	;		      ;LEFT SIDE, SO GO TO LEFT CORNER
    234  cd8c		       38		      SEC
    235  cd8d		       fd 1b 1e 	      SBC	XCORD,X
    236  cd90		       4c 99 cd 	      JMP	YGO2
    237  cd93		       a9 58	   RIGATK2    LDA	#88	;		      ;RIGHT SIDE, SO GO TO RIGHT CORNER
    238  cd95		       38		      SEC
    239  cd96		       fd 1b 1e 	      SBC	XCORD,X
    240  cd99		       9d f3 1e    YGO2       STA	ML,X
    241  cd9c		       a9 4f		      LDA	#79
    242  cd9e		       9d 36 1f 	      STA	MH,X
    243  cda1		       a9 86		      LDA	#$86
    244  cda3		       9d 77 1f 	      STA	MODE,X
    245  cda6		       a9 0f		      LDA	#$0F
    246  cda8		       9d ba 1f 	      STA	COUNTXY,X
    247  cdab		       60		      RTS
    248  cdac
    249  cdac
    250  cdac							;
    251  cdac							;
    252  cdac							;THIS SUBROUTINE MOVES A BOSS SHIP POINTED TO BY Y REG ONE STEP BY CALLING
    253  cdac							;A SUBROUTINE THAT USES A MOTION TABLE.  IT IS PHASE ONE OF BOSS ATTACK.
    254  cdac							;
    255  cdac							;IT HAS NO PERMANENT LOCAL VARIBLES
    256  cdac							;ITS TEMPORARY VARIBLES ARE:
    257  cdac							;TEMP1    DS	   2;			   ;0 PAGE
    258  cdac							;
    259  cdac							;CONSTANTS ARE
    260  cdac							;
    261  cdac							;Y REGISTER IS SAVED, ALL OTHER
    262  cdac							;REGISTERS ARE DESTROYED
    263  cdac							;
    264  cdac		       20 9c 9a    BOSSATK1   JSR	MSHBTBL	;		  ;CALL SUBROUTINE TO MOVE SHIP BY TABLE
    265  cdaf		       8a		      TXA		;			      ;SEE IF END OF TABLE
    266  cdb0		       d0 01		      BNE	ISEND
    267  cdb2		       60		      RTS
    268  cdb3		       b9 ba 1f    ISEND      LDA	COUNTXY,Y	;		;SEE IF IS BOSS SHIP
    269  cdb6		       c9 0f		      CMP	#$0F
    270  cdb8		       90 28		      BCC	ESCORT1
    271  cdba		       c0 28		      CPY	#40
    272  cdbc		       d0 04		      BNE	RIG1
    273  cdbe		       a5 5d		      LDA	CHTAB40
    274  cdc0		       10 03		      BPL	RIG2
    275  cdc2		       b9 7d 93    RIG1       LDA	CHTAB,Y	;		  ;BOSS SHIP, SEE IF STARTED ON LEFT
    276  cdc5		       c9 05	   RIG2       CMP	#5	;		       ;OR RIGHT
    277  cdc7		       10 05		      BPL	RIGATK
    278  cdc9		       a9 48		      LDA	#72	;		      ;LEFT SIDE, SO GO TO LEFT CORNER
    279  cdcb		       4c d0 cd 	      JMP	YGO
    280  cdce		       a9 58	   RIGATK     LDA	#88	;		      ;RIGHT SIDE, SO GO TO RIGHT CORNER
    281  cdd0		       38	   YGO	      SEC
    282  cdd1		       f9 1b 1e 	      SBC	XCORD,Y
    283  cdd4		       99 f3 1e 	      STA	ML,Y
    284  cdd7		       a9 4f		      LDA	#79
    285  cdd9		       99 36 1f 	      STA	MH,Y
    286  cddc		       a9 86		      LDA	#$86
    287  cdde		       99 77 1f 	      STA	MODE,Y
    288  cde1		       60		      RTS
    289  cde2		       c9 00	   ESCORT1    CMP	#0	;		       ;SEE IF LEFT ESCORT GOING TO LEFT
    290  cde4		       d0 05		      BNE	NOTLL
    291  cde6		       a9 41		      LDA	#65
    292  cde8		       4c d0 cd 	      JMP	YGO
    293  cdeb		       c9 01	   NOTLL      CMP	#1	;		       ;SEE IF RIGHT ESCORT GOING TO LEFT
    294  cded		       d0 05		      BNE	NOTRL
    295  cdef		       a9 4f		      LDA	#79
    296  cdf1		       4c d0 cd 	      JMP	YGO
    297  cdf4		       c9 02	   NOTRL      CMP	#2	;		       ;SEE IF LEFT ESCORT GOING TO RIGHT
    298  cdf6		       d0 05		      BNE	NOTLR
    299  cdf8		       a9 51		      LDA	#81
    300  cdfa		       4c d0 cd 	      JMP	YGO
    301  cdfd		       a9 5f	   NOTLR      LDA	#95	;		      ;IS RIGHT ESCORT GOING RIGHT
    302  cdff		       4c d0 cd 	      JMP	YGO
    303  ce02
    304  ce02
    305  ce02							;
    306  ce02							;THIS SUBROUTINE OPERATES PHASE TWO OF BOSS ATTACK. IT BRINGS THE SHIP TO THE
    307  ce02							;LOOP
    308  ce02							;THE SHIP IS POINTED TO BY THE Y REGISTER
    309  ce02							;THE Y REGISTER IS SAVED
    310  ce02							;
    311  ce02		       20 a2 ce    BOSSATK2   JSR	MOVBOS	;		   ;CALL SUBROUTINE TO MOVE SHIP BY STEPS
    312  ce05		       b9 36 1f 	      LDA	MH,Y	;		     ;SEE IF FINISHED PHASE 2
    313  ce08		       f0 01		      BEQ	CHAGAT
    314  ce0a		       60		      RTS
    315  ce0b		       a9 bc	   CHAGAT     LDA	#<BOTBL2	;	       ;FINISHED PHASE 2, INITIALIZE FOR LOOP
    316  ce0d		       99 f3 1e 	      STA	ML,Y
    317  ce10		       a9 9f		      LDA	#>BOTBL2
    318  ce12		       99 36 1f 	      STA	MH,Y
    319  ce15		       b9 ba 1f 	      LDA	COUNTXY,Y	;		;SEE IF IS BOSS SHIP
    320  ce18		       c9 0f		      CMP	#$0F
    321  ce1a		       90 1a		      BCC	ESCORT2
    322  ce1c		       c0 28		      CPY	#40
    323  ce1e		       d0 04		      BNE	POSS1
    324  ce20		       a5 5d		      LDA	CHTAB40
    325  ce22		       10 03		      BPL	POSS2
    326  ce24		       b9 7d 93    POSS1      LDA	CHTAB,Y	;		  ;BOSS SHIP, SEE IF STARTED ON LEFT
    327  ce27		       c9 05	   POSS2      CMP	#5	;		       ;OR RIGHT
    328  ce29		       10 05		      BPL	NEGATTK1
    329  ce2b		       a9 87	   POSATTK1   LDA	#$87
    330  ce2d		       4c 32 ce 	      JMP	MAKEATK1
    331  ce30		       a9 c7	   NEGATTK1   LDA	#$C7
    332  ce32		       99 77 1f    MAKEATK1   STA	MODE,Y
    333  ce35		       60		      RTS
    334  ce36		       c9 02	   ESCORT2    CMP	#2	;		       ;ESCORTS, SEE IF GOING LEFT
    335  ce38		       10 f6		      BPL	NEGATTK1
    336  ce3a		       4c 2b ce 	      JMP	POSATTK1
    337  ce3d
    338  ce3d
    339  ce3d							;
    340  ce3d							;
    341  ce3d							;THIS SUBROUTINE MOVES A BOSS SHIP POINTED TO BY Y REG ONE STEP BY CALLING
    342  ce3d							;A SUBROUTINE THAT USES A MOTION TABLE.  IT IS PHASE THREE OF BOSS ATTACK.
    343  ce3d							;IT IS THE LOOP.
    344  ce3d							;IT HAS NO PERMANENT LOCAL VARIBLES
    345  ce3d							;ITS TEMPORARY VARIBLES ARE:
    346  ce3d							;TEMP1    DS	   2;			   ;0 PAGE
    347  ce3d							;
    348  ce3d							;CONSTANTS ARE
    349  ce3d							;
    350  ce3d							;Y REGISTER IS SAVED, ALL OTHER
    351  ce3d							;REGISTERS ARE DESTROYED
    352  ce3d							;
    353  ce3d		       20 9c 9a    BOSSATK3   JSR	MSHBTBL	;		  ;CALL SUBROUTINE TO MOVE SHIP BY TABLE
    354  ce40		       8a		      TXA		;			      ;SEE IF END OF TABLE
    355  ce41		       d0 01		      BNE	ISEND1
    356  ce43		       60		      RTS
    357  ce44		       b9 ba 1f    ISEND1     LDA	COUNTXY,Y	;		;SEE IF IS BOSS SHIP
    358  ce47		       c9 0f		      CMP	#$0F
    359  ce49		       90 28		      BCC	ESCORT3
    360  ce4b		       c0 28		      CPY	#40
    361  ce4d		       d0 04		      BNE	POOT1
    362  ce4f		       a5 5d		      LDA	CHTAB40
    363  ce51		       10 03		      BPL	POOT2
    364  ce53		       b9 7d 93    POOT1      LDA	CHTAB,Y	;		  ;BOSS SHIP, SEE IF STARTED ON LEFT
    365  ce56		       c9 05	   POOT2      CMP	#5	;		       ;OR RIGHT
    366  ce58		       10 05		      BPL	RIGATK1
    367  ce5a		       a9 0a		      LDA	#10	;		      ;LEFT SIDE, SO GO TO LEFT CORNER
    368  ce5c		       4c 61 ce 	      JMP	YGO1
    369  ce5f		       a9 96	   RIGATK1    LDA	#150	;		     ;RIGHT SIDE, SO GO TO RIGHT CORNER
    370  ce61		       38	   YGO1       SEC
    371  ce62		       f9 1b 1e 	      SBC	XCORD,Y
    372  ce65		       99 f3 1e 	      STA	ML,Y
    373  ce68		       a9 64		      LDA	#100
    374  ce6a		       99 36 1f 	      STA	MH,Y
    375  ce6d		       a9 88		      LDA	#$88
    376  ce6f		       99 77 1f 	      STA	MODE,Y
    377  ce72		       60		      RTS
    378  ce73		       c9 00	   ESCORT3    CMP	#0	;		       ;SEE IF LEFT ESCORT GOING TO LEFT
    379  ce75		       d0 05		      BNE	NOTLL1
    380  ce77		       a9 03		      LDA	#3
    381  ce79		       4c 61 ce 	      JMP	YGO1
    382  ce7c		       c9 01	   NOTLL1     CMP	#1	;		       ;SEE IF RIGHT ESCORT GOING TO LEFT
    383  ce7e		       d0 05		      BNE	NOTRL1
    384  ce80		       a9 11		      LDA	#17
    385  ce82		       4c 61 ce 	      JMP	YGO1
    386  ce85		       c9 02	   NOTRL1     CMP	#2	;		       ;SEE IF LEFT ESCORT GOING TO RIGHT
    387  ce87		       d0 05		      BNE	NOTLR1
    388  ce89		       a9 8f		      LDA	#143
    389  ce8b		       4c 61 ce 	      JMP	YGO1
    390  ce8e		       a9 9d	   NOTLR1     LDA	#157	;		     ;IS RIGHT ESCORT GOING RIGHT
    391  ce90		       4c 61 ce 	      JMP	YGO1
    392  ce93
    393  ce93
    394  ce93							;
    395  ce93							;THIS SUBROUTINE OPERATES PHASE FOUR OF BOSS ATTACK. IT BRINGS THE SHIP TO THE
    396  ce93							;END
    397  ce93							;THE SHIP IS POINTED TO BY THE Y REGISTER
    398  ce93							;THE Y REGISTER IS SAVED
    399  ce93							;
    400  ce93		       20 a2 ce    BOSSATK4   JSR	MOVBOS	;		   ;CALL SUBROUTINE TO MOVE SHIP BY STEPS
    401  ce96		       b9 36 1f 	      LDA	MH,Y	;		     ;SEE IF FINISHED PHASE 4
    402  ce99		       f0 01		      BEQ	CHAGAT1
    403  ce9b		       60		      RTS
    404  ce9c		       a9 82	   CHAGAT1    LDA	#$82	;		     ;FINISHED PHASE 4, RETURN SHIP TO TOP
    405  ce9e		       99 77 1f 	      STA	MODE,Y
    406  cea1		       60		      RTS
    407  cea2
    408  cea2
    409  cea2							;
    410  cea2							;THIS SUBROUTINE IS FOR BOSS GALAGAS, IT MOVES THE SHIP BY STEPS
    411  cea2							;
    412  cea2				   MOVBOS
    413  cea2		       a9 ff		      LDA	#$FF
    414  cea4		       85 da		      STA	BOZO0	;		    ;USED AS A TEMP COUNTER
    415  cea6		       98	   MOVBOS2    TYA		;			      ;TRANSFER Y REG TO X REG
    416  cea7		       aa		      TAX
    417  cea8		       bd f3 1e 	      LDA	ML,X	;		     ;GET XTOGO
    418  ceab		       f0 18		      BEQ	MBOSZER1	;		 ;SEE IF XTOGO IS ZERO
    419  cead		       10 0b		      BPL	MBOSPOS	;		  ;SEE IF XTOGO IS POSITIVE
    420  ceaf		       de 1b 1e 	      DEC	XCORD,X	;		  ;XTOGO IS NEGATIVE
    421  ceb2		       fe f3 1e 	      INC	ML,X
    422  ceb5		       a9 05		      LDA	#5	;		       ;SET ANGLE
    423  ceb7		       4c c7 ce 	      JMP	MBOSZER
    424  ceba		       fe 1b 1e    MBOSPOS    INC	XCORD,X	;		  ;XTOGO IS POSITIVE
    425  cebd		       de f3 1e 	      DEC	ML,X
    426  cec0		       a9 03		      LDA	#3	;		       ;SET ANGLE
    427  cec2		       4c c7 ce 	      JMP	MBOSZER
    428  cec5		       a9 04	   MBOSZER1   LDA	#4	;		       ;SET ANGLE
    429  cec7		       9d ab 1e    MBOSZER    STA	ANGLE,X	;		  ;STORE ANGLE
    430  ceca		       fe 63 1e 	      INC	YCORD,X	;		  ;MAKE SHIP GO DOWN ONE STEP
    431  cecd		       de 36 1f 	      DEC	MH,X
    432  ced0		       f0 09		      BEQ	ENDMBOS
    433  ced2		       b9 40 01 	      LDA	MOMENTUM,Y	;	       ;SEE IF TWICE AS FAST
    434  ced5		       10 04		      BPL	ENDMBOS
    435  ced7		       e6 da		      INC	BOZO0
    436  ced9		       f0 cb		      BEQ	MOVBOS2
    437  cedb		       60	   ENDMBOS    RTS
------- FILE GLOAD.ASM
------- FILE GDAC2.ASM LEVEL 2 PASS 2
      0  cedc					      include	"GDAC2.ASM"
      1  cedc					      processor	6502
      2  cedc							;  GDAC2.S
      3  cedc							;THIS SUBROUTINE DETECTS A COLLISION BETWEEN A HERO MISSLE AND AN ENEMY SHIP
      4  cedc							;
      5  cedc							;
      6  cedc		       a2 38	   COLDET1    LDX	#56	;		      ;INIT PTR TO BEGINNING OF HERO MISSLES
      7  cede		       bd d3 1d    NEWMIS     LDA	TYPE,X	;		   ;SEE IF MISSLE EXISTS
      8  cee1		       f0 72		      BEQ	NXMIS
      9  cee3		       a0 00		      LDY	#0
     10  cee5		       b9 d3 1d    NXEN       LDA	TYPE,Y	;		   ;SEE IF ENEMY EXISTS
     11  cee8		       f0 56		      BEQ	NXENMY
     12  ceea		       bd 63 1e 	      LDA	YCORD,X	;		  ;TEST FOR COLLISION
     13  ceed		       18		      CLC		;			      ;IF: (YSHIP < YMIS+7) AND
     14  ceee		       69 04		      ADC	#4	;		       ;    (YSHIP+10 > YMIS) AND
     15  cef0		       d9 63 1e 	      CMP	YCORD,Y	;		  ;    (XSHIP < XMIS+4 < XSHIP+7)
     16  cef3		       90 4b		      BCC	NXENMY
     17  cef5		       b9 63 1e 	      LDA	YCORD,Y
     18  cef8		       18		      CLC
     19  cef9		       69 06		      ADC	#6
     20  cefb		       dd 63 1e 	      CMP	YCORD,X
     21  cefe		       90 40		      BCC	NXENMY
     22  cf00		       ad 11 1e 	      LDA	TYPE+62	;		  ;SEE IF SECOND SHIP ACTIVE
     23  cf03		       f0 21		      BEQ	MONODTCT
     24  cf05		       b9 1b 1e 	      LDA	XCORD,Y
     25  cf08		       18		      CLC
     26  cf09		       69 03		      ADC	#3
     27  cf0b		       dd 1b 1e 	      CMP	XCORD,X
     28  cf0e		       90 30		      BCC	NXENMY
     29  cf10		       bd 1b 1e 	      LDA	XCORD,X
     30  cf13		       18		      CLC
     31  cf14		       69 03		      ADC	#3	;		       ;SEE IF SHIP IS BETWEEN MISSILES
     32  cf16		       d9 1b 1e 	      CMP	XCORD,Y
     33  cf19		       f0 25		      BEQ	NXENMY
     34  cf1b		       69 06		      ADC	#6
     35  cf1d		       d9 1b 1e 	      CMP	XCORD,Y
     36  cf20		       90 1e		      BCC	NXENMY
     37  cf22		       20 5f cf 	      JSR	COLLIS1
     38  cf25		       60		      RTS
     39  cf26							;	   JMP	   NXMIS
     40  cf26		       bd 1b 1e    MONODTCT   LDA	XCORD,X
     41  cf29		       18		      CLC
     42  cf2a		       69 03		      ADC	#3
     43  cf2c		       d9 1b 1e 	      CMP	XCORD,Y
     44  cf2f		       90 0f		      BCC	NXENMY
     45  cf31		       b9 1b 1e 	      LDA	XCORD,Y
     46  cf34		       18		      CLC
     47  cf35		       69 02		      ADC	#2
     48  cf37		       dd 1b 1e 	      CMP	XCORD,X
     49  cf3a		       90 04		      BCC	NXENMY
     50  cf3c		       20 5f cf 	      JSR	COLLIS1	;		  ;FOUND A COLLISION
     51  cf3f		       60		      RTS
     52  cf40							;	   JMP	   NXMIS
     53  cf40		       c8	   NXENMY     INY		;			      ;INC ELISTPTR TO NEXT ENEMY
     54  cf41		       c0 28		      CPY	#40	;		      ;SEE IF CAPTD HERO
     55  cf43		       d0 0c		      BNE	CHKPHERO
     56  cf45		       ad 9f 1f 	      LDA	MODE+40
     57  cf48		       c9 06		      CMP	#6
     58  cf4a		       90 05		      BCC	CHKPHERO
     59  cf4c		       c9 0a		      CMP	#10	;		      ;MODES 6 - 9 ARE SAFE FROM EXPLOSION
     60  cf4e		       b0 01		      BCS	CHKPHERO
     61  cf50		       c8	   SKIPHERO   INY		;			      ;IF SO, DON"T CHECK FOR COLLISION
     62  cf51		       c0 2d	   CHKPHERO   CPY	#45	;		      ;AND SEE IF AT END OF ENMYLIST
     63  cf53		       d0 90		      BNE	NXEN
     64  cf55		       e0 39	   NXMIS      CPX	#57	;		      ;INC MISPTR TO NEXT MISSLE AND SEE
     65  cf57		       d0 01		      BNE	NDONCOL	;		  ;IF AT END OF HMISLST
     66  cf59		       60		      RTS		;			      ;YES, SO RETURN FROM SUBROUTINE
     67  cf5a		       a2 39	   NDONCOL    LDX	#57	;		      ;NO, SO CHECK NEW MISSLE AGAINST ALL
     68  cf5c		       4c de ce 	      JMP	NEWMIS	;		   ;OF ENMYLIST
     69  cf5f
     70  cf5f
     71  cf5f							;
     72  cf5f							;
     73  cf5f							;THIS SUBROUTINE IS CALLED BY COLDET1 WHEN A COLLISION IS FOUND BETWEEN A HERO
     74  cf5f							;MISSLE (POINTED TO BY X REG) AND AN ENEMY SHIP (POINTED TO BY Y REG).
     75  cf5f							;
     76  cf5f		       b9 d3 1d    COLLIS1    LDA	TYPE,Y	;		   ;SEE IF IS BOSS SHIP AND FIRST SHOT
     77  cf62		       29 7f		      AND	#$7F	;		     ;TO HIT IT
     78  cf64		       c9 03		      CMP	#3
     79  cf66		       f0 17		      BEQ	COLLIXY
     80  cf68		       c9 04		      CMP	#4	;		       ;SEE IF BLUE BOSS
     81  cf6a		       d0 27		      BNE	COLLIXZ
     82  cf6c		       b9 77 1f 	      LDA	MODE,Y	;		   ;SEE IF IN BOSS WAIT MODE
     83  cf6f		       29 8f		      AND	#$8F	;		     ;LOOK AT MSB AND LOW 4 BITS
     84  cf71		       c9 03		      CMP	#3
     85  cf73		       d0 1e		      BNE	COLLIXZ
     86  cf75		       a9 00		      LDA	#0
     87  cf77		       85 b4		      STA	WAITCNT	;		  ;CLEAR WAITCNT
     88  cf79		       20 d0 d3 	      JSR	SCRAPALL	;		 ;KILL TRACTOR BEAM
     89  cf7c		       4c ee cf 	      JMP	COLLIXX	;		  ;NOW HANDLE EXPLOSION
     90  cf7f		       b9 d3 1d    COLLIXY    LDA	TYPE,Y	;		   ;CHANGE TO BLUE BOSS
     91  cf82		       18		      CLC
     92  cf83		       69 01		      ADC	#1
     93  cf85		       99 d3 1d 	      STA	TYPE,Y
     94  cf88		       a9 0e		      LDA	#14	;		      ;BOSS HIT SOUND
     95  cf8a		       20 03 d4 	      JSR	TUNIN
     96  cf8d		       a9 00		      LDA	#0	;		       ;ZERO OUT MISSLE
     97  cf8f		       9d d3 1d 	      STA	TYPE,X
     98  cf92		       60		      RTS
     99  cf93				   COLLIXZ
    100  cf93		       c9 10		      CMP	#16	;		      ;GREEN BOSS W/ CAPTURED HERO
    101  cf95		       d0 14		      BNE	DAK1
    102  cf97		       b9 d3 1d 	      LDA	TYPE,Y
    103  cf9a		       18		      CLC
    104  cf9b		       69 01		      ADC	#1
    105  cf9d		       99 d3 1d 	      STA	TYPE,Y	;		   ;CHANGE TYPE TO BLUE BOSS W/ HERO
    106  cfa0		       a9 0e		      LDA	#14
    107  cfa2		       20 03 d4 	      JSR	TUNIN
    108  cfa5		       a9 00		      LDA	#0
    109  cfa7		       9d d3 1d 	      STA	TYPE,X	;		   ;ZERO OUT MISSILE
    110  cfaa		       60		      RTS
    111  cfab		       c9 11	   DAK1       CMP	#17	;		      ;BLUE BOSS W/ CAPTURED HERO
    112  cfad		       d0 3f		      BNE	COLLIXX
    113  cfaf		       a5 b4		      LDA	WAITCNT	;		  ;SEE IF FIRST PICKED UP
    114  cfb1		       f0 0e		      BEQ	NOTRACTR
    115  cfb3		       a9 00		      LDA	#0
    116  cfb5		       85 b4		      STA	WAITCNT	;		  ;BOOT TRACTOR BEAM IF FIRST PICKED UP
    117  cfb7		       20 d0 d3 	      JSR	SCRAPALL	;		 ;BOOT TRACTOR BEAM TUNE
    118  cfba		       a9 0b		      LDA	#11	;		      ;PUT IN "PUT HERO BACK DOWN" MODE
    119  cfbc		       8d 9f 1f 	      STA	MODE+40
    120  cfbf		       d0 28		      BNE	BIRDBUG1
    121  cfc1				   NOTRACTR
    122  cfc1		       b9 77 1f 	      LDA	MODE,Y	;		   ;GET MODE OF BOSS
    123  cfc4		       f0 04		      BEQ	HREAPR
    124  cfc6		       c9 01		      CMP	#1
    125  cfc8		       d0 10		      BNE	NOTHRP
    126  cfca		       a9 05	   HREAPR     LDA	#5
    127  cfcc		       85 5e		      STA	HEROREAP	;		 ;SET HERO REAPPEAR MODE
    128  cfce							;MAY NEED TO STORE A 5 TO THE MODE HERE
    129  cfce		       86 da		      STX	BOZO0
    130  cfd0		       a2 28		      LDX	#40
    131  cfd2		       20 7b cd 	      JSR	COTBOATK
    132  cfd5		       a6 da		      LDX	BOZO0	;		    ;NEED TO SAVE THE X VALUE
    133  cfd7		       4c e9 cf 	      JMP	BIRDBUG1	;		 ;CONTINUE TO KILL BOSS
    134  cfda		       a9 08	   NOTHRP     LDA	#8	;		       ;HERO SPIN MODE
    135  cfdc		       8d 9f 1f 	      STA	MODE+40
    136  cfdf		       a9 05		      LDA	#5
    137  cfe1		       20 03 d4 	      JSR	TUNIN	;		   ;TUNE 5 IS RELEASED HERO TUNE
    138  cfe4		       a9 06		      LDA	#6
    139  cfe6		       20 03 d4 	      JSR	TUNIN	;		   ;TUNE 6 IS OTHER CHANNEL OF TUNE
    140  cfe9		       a9 04	   BIRDBUG1   LDA	#4
    141  cfeb		       99 d3 1d 	      STA	TYPE,Y	;		   ;HANDLE LIKE REGULAR BLUE BOSS
    142  cfee		       c0 28	   COLLIXX    CPY	#40	;		      ;SEE IF CAPTURED HERO SHIP
    143  cff0		       f0 0b		      BEQ	NOATC
    144  cff2							;	   DEC	   NUMFLY
    145  cff2		       b9 77 1f 	      LDA	MODE,Y	;		   ;SEE IF IN SHIFT OR EXPAND MODE
    146  cff5		       f0 06		      BEQ	NOATC
    147  cff7		       c9 01		      CMP	#1	;		       ;DEC AIRBORNE IF WAS FLYING
    148  cff9		       f0 02		      BEQ	NOATC
    149  cffb							;NOW, DEC IF SHOT WHILE IN ORIENT MODE
    150  cffb		       c6 88		      DEC	AIRBORNE
    151  cffd		       c0 28	   NOATC      CPY	#40	;		      ;SEE WHAT TYPE ENEMY SHIP WAS KILLED
    152  cfff		       d0 1f		      BNE	NOTHER	;		   ;SEE IF HERO SHIP
    153  d001		       a9 1b		      LDA	#27	;		      ;HERO DEATH SOUND
    154  d003		       20 03 d4 	      JSR	TUNIN
    155  d006		       a9 1c		      LDA	#28	;		      ;HERO DEATH SOUND
    156  d008		       20 03 d4 	      JSR	TUNIN
    157  d00b		       a9 00		      LDA	#$00	;		     ;HERO DEATH SCORE
    158  d00d		       85 5e		      STA	HEROREAP
    159  d00f		       8d 9f 1f 	      STA	MODE+40	;		  ;RESET MODE OF DEAD HERO
    160  d012		       20 6b d3 	      JSR	CLEARBOS	;		 ;CLEAR BOSS WHICH CARRIED HERO
    161  d015		       a9 01		      LDA	#$01
    162  d017		       85 6d		      STA	TEMP4
    163  d019		       a9 0b		      LDA	#11	;		      ;ONE THOUSAND TYPE
    164  d01b		       85 94		      STA	SCRTEMP
    165  d01d		       4c 96 d0 	      JMP	NOATCX
    166  d020		       a5 61	   NOTHER     LDA	CHALSTG	;		  ;SEE IF CHALLENGING STAGE
    167  d022		       f0 0b		      BEQ	NOTHER0
    168  d024		       f8		      SED
    169  d025		       a5 8a		      LDA	CHALSCR
    170  d027		       18		      CLC
    171  d028		       69 01		      ADC	#1	;		       ;INCREMENT SCORE FOR CHLNGING STAGE
    172  d02a		       85 8a		      STA	CHALSCR
    173  d02c		       d8		      CLD
    174  d02d		       e6 63		      INC	WAVESCR	;		  ;INCREMENT SCORE FOR THIS WAVE
    175  d02f		       b9 d3 1d    NOTHER0    LDA	TYPE,Y
    176  d032		       29 7f		      AND	#$7F
    177  d034		       c9 01		      CMP	#1	;		       ;SEE IF BLUE SHIP
    178  d036		       f0 1a		      BEQ	META10
    179  d038		       c9 0d		      CMP	#13
    180  d03a		       d0 30		      BNE	NOTBLU
    181  d03c		       a5 61		      LDA	CHALSTG
    182  d03e		       d0 12		      BNE	META10	;		   DONT GIVE 1000 BONUS IF CHAL STAGE
    183  d040		       e6 e3		      INC	SCORPCNT
    184  d042		       a5 e3		      LDA	SCORPCNT
    185  d044		       c9 03		      CMP	#3	;		       ;SEE IF HAVE 2 ALREADY
    186  d046		       d0 0a		      BNE	META10
    187  d048		       a9 0b		      LDA	#11
    188  d04a		       85 94		      STA	SCRTEMP	;		  ;GIVE THOUSAND BONUS
    189  d04c		       a9 01		      LDA	#$01
    190  d04e		       85 6d		      STA	TEMP4
    191  d050		       d0 44		      BNE	NOATCX
    192  d052		       a9 0c	   META10     LDA	#12	;		      ;BLUE DEATH SOUND
    193  d054		       20 03 d4 	      JSR	TUNIN
    194  d057		       b9 77 1f 	      LDA	MODE,Y	;		   ;GET MODE OF DEAD SHIP
    195  d05a		       f0 0a		      BEQ	LOWBLUE	;		  ;SEE IF IN SHIFTING MODE
    196  d05c		       c9 01		      CMP	#1	;		       ;SEE IF IN EXPANSION MODE
    197  d05e		       f0 06		      BEQ	LOWBLUE	;		  ;IF SO, SCORE = 50
    198  d060		       a9 10		      LDA	#$10	;		     ;BLUE DEATH SCORE
    199  d062		       85 6e		      STA	TEMP5
    200  d064		       d0 30		      BNE	NOATCX
    201  d066		       a9 05	   LOWBLUE    LDA	#$05
    202  d068		       85 6e		      STA	TEMP5	;		    ;GIVE SCORE OF 50
    203  d06a		       d0 2a		      BNE	NOATCX
    204  d06c		       c9 02	   NOTBLU     CMP	#2	;		       ;SEE IF RED SHIP
    205  d06e		       f0 04		      BEQ	ISREDX
    206  d070		       c9 32		      CMP	#50
    207  d072		       d0 1a		      BNE	NOTREDX
    208  d074		       a9 0b	   ISREDX     LDA	#11	;		      ;RED DEATH SOUND
    209  d076		       20 03 d4 	      JSR	TUNIN
    210  d079		       b9 77 1f 	      LDA	MODE,Y	;		   ;GET MODE OF DEAD SHIP
    211  d07c		       f0 0a		      BEQ	LOWRED
    212  d07e		       c9 01		      CMP	#1
    213  d080		       f0 06		      BEQ	LOWRED	;		   ;SEE IF IN SHIFT OR EXPAND MODE
    214  d082		       a9 16		      LDA	#$16	;		     ;RED DEATH SCORE
    215  d084		       85 6e		      STA	TEMP5
    216  d086		       d0 0e		      BNE	NOATCX
    217  d088		       a9 08	   LOWRED     LDA	#$08
    218  d08a		       85 6e		      STA	TEMP5	;		    ;GIVE SCORE OF 80
    219  d08c		       d0 08		      BNE	NOATCX
    220  d08e
    221  d08e				   NOTREDX
    222  d08e		       a9 0a		      LDA	#10	;		      ;BOSS DEATH SOUND (MUST BE BOSS)
    223  d090		       20 03 d4 	      JSR	TUNIN
    224  d093		       20 9e d2 	      JSR	ABOSSHIT
    225  d096
    226  d096							;	   ENTRY POINT FROM OTHER CODE SEGMENTS (I"M SORRY TO SAY)
    227  d096				   NOATCX
    228  d096		       a5 63		      LDA	WAVESCR	;		  ;CHECK SCORE OF WAVE
    229  d098		       c9 08		      CMP	#8	;		       ;SEE IF PERFECT
    230  d09a		       d0 1e		      BNE	NOTHOBON	;		 ;NO THOUSAND BONUS
    231  d09c		       a9 00		      LDA	#0
    232  d09e		       85 63		      STA	WAVESCR
    233  d0a0		       a9 80		      LDA	#$80
    234  d0a2		       85 44		      STA	BORNCNT	;		  PUT DELAY BEFORE NEXT WAVE
    235  d0a4		       a9 01		      LDA	#$01
    236  d0a6		       85 6d		      STA	TEMP4
    237  d0a8		       a5 5a		      LDA	CHALNUM	;		  ;SEE WHAT STAGE THIS IS
    238  d0aa		       c9 04		      CMP	#4
    239  d0ac		       30 08		      BMI	THOBON
    240  d0ae		       a9 60		      LDA	#$60
    241  d0b0		       85 6e		      STA	TEMP5
    242  d0b2		       a9 0c		      LDA	#12
    243  d0b4		       d0 02		      BNE	SIXTNBON
    244  d0b6		       a9 0b	   THOBON     LDA	#11
    245  d0b8		       85 94	   SIXTNBON   STA	SCRTEMP	;		  ;STORE 1000 SCORE BONUS
    246  d0ba		       a9 00	   NOTHOBON   LDA	#0	;		       ;ZERO OUT MISSLE
    247  d0bc		       9d d3 1d 	      STA	TYPE,X
    248  d0bf		       99 d3 1d 	      STA	TYPE,Y	;		   ;ZERO OUT ENEMY SHIP
    249  d0c2
    250  d0c2		       20 e3 d2 	      JSR	ENMYBOOM
    251  d0c5		       60		      RTS
    252  d0c6
    253  d0c6
    254  d0c6							;
    255  d0c6							;THIS SUBROUTINE DETECTS A COLLISION BETWEEN THE HERO SHIP AND ANY ENEMY
    256  d0c6							;SHIP
    257  d0c6							;
    258  d0c6		       ad 12 1e    COLDET2    LDA	TYPE+63	;		  ;SEE IF HERO SHIP EXISTS
    259  d0c9		       d0 01		      BNE	CONTC2
    260  d0cb		       60	   NONIE      RTS
    261  d0cc		       ad 2a 27    CONTC2     LDA	FARREN
    262  d0cf		       30 fa		      BMI	NONIE
    263  d0d1		       a5 61		      LDA	CHALSTG	;		  DONT DETECT IF CHALLENGING STAGE
    264  d0d3		       d0 f6		      BNE	NONIE
    265  d0d5		       a0 00		      LDY	#0	;		       ;INIT PTR TO BEGINNING OF ENEMY SHIPS
    266  d0d7		       b9 d3 1d    NXSHP      LDA	TYPE,Y	;		   ;SEE IF ENEMY SHIP EXISTS
    267  d0da		       f0 44		      BEQ	NXESHIP
    268  d0dc		       b9 63 1e 	      LDA	YCORD,Y	;		  ;TEST FOR COLLISION
    269  d0df		       c9 a2		      CMP	#162	;		     ;IF: 161 < YSHIP < 181 AND
    270  d0e1		       90 3d		      BCC	NXESHIP	;		  ;    (HEROX + 7) > XSHIP AND
    271  d0e3		       c9 b5		      CMP	#181	;		     ;	  (XSHIP + 7) > HEROX
    272  d0e5		       b0 39		      BCS	NXESHIP
    273  d0e7		       ad 5a 1e 	      LDA	XCORD+63	;		 ;(HEROX)
    274  d0ea		       18		      CLC
    275  d0eb		       69 06		      ADC	#6
    276  d0ed		       d9 1b 1e 	      CMP	XCORD,Y
    277  d0f0		       90 0f		      BCC	HERO2TST
    278  d0f2		       b9 1b 1e 	      LDA	XCORD,Y
    279  d0f5		       18		      CLC
    280  d0f6		       69 06		      ADC	#6
    281  d0f8		       cd 5a 1e 	      CMP	XCORD+63	;		 ;(HEROX)
    282  d0fb		       90 23		      BCC	NXESHIP
    283  d0fd		       20 d2 d1 	      JSR	COLLIS2
    284  d100		       60		      RTS		;			      NEW CODE
    285  d101		       ad 11 1e    HERO2TST   LDA	TYPE+62
    286  d104		       f0 1a		      BEQ	NXESHIP
    287  d106		       ad 59 1e 	      LDA	XCORD+62
    288  d109		       18		      CLC
    289  d10a		       69 06		      ADC	#6
    290  d10c		       d9 1b 1e 	      CMP	XCORD,Y	;		  ;MAKE SURE Y ISN"T TRASHED
    291  d10f		       90 0f		      BCC	NXESHIP
    292  d111		       b9 1b 1e 	      LDA	XCORD,Y
    293  d114		       18		      CLC
    294  d115		       69 06		      ADC	#6
    295  d117		       cd 59 1e 	      CMP	XCORD+62	;		 ;(HEROX)
    296  d11a		       90 04		      BCC	NXESHIP
    297  d11c		       20 cc d1 	      JSR	COLLIS2A
    298  d11f		       60		      RTS
    299  d120		       c8	   NXESHIP    INY		;			      ;INC ELISTPTR TO NEXT ENEMY
    300  d121		       c0 2d		      CPY	#45	;		      ;AND SEE IF AT END OF ENMYLIST
    301  d123		       30 b2		      BMI	NXSHP
    302  d125							;THIS CHECKS FOR COLLISION BETWEEN AN ENEMY MISSILE AND THE HERO SHIP
    303  d125		       a0 2e		      LDY	#46
    304  d127		       b9 d3 1d    NXEMIS1    LDA	TYPE,Y	;		   ;SEE IF ENEMY MISSLE EXISTS
    305  d12a		       f0 47		      BEQ	NXEMIS
    306  d12c		       b9 63 1e 	      LDA	YCORD,Y	;		  ;TEST FOR COLLISION
    307  d12f		       18		      CLC		;			      ;IF:  (171 < YMIS+7) AND
    308  d130		       69 06		      ADC	#6	;			     (181 > YMIS) AND
    309  d132		       c9 ab		      CMP	#171	;		     ;	   (XHERO < XMIS+4 < XHERO+7)
    310  d134		       90 3d		      BCC	NXEMIS
    311  d136		       a9 b4		      LDA	#180
    312  d138		       d9 63 1e 	      CMP	YCORD,Y
    313  d13b		       90 36		      BCC	NXEMIS
    314  d13d		       b9 1b 1e 	      LDA	XCORD,Y
    315  d140		       18		      CLC
    316  d141		       69 04		      ADC	#4
    317  d143		       cd 5a 1e 	      CMP	XCORD+63
    318  d146		       90 2b		      BCC	NXEMIS	;		   ;MISSILE TOO FAR TO LEFT OF SHIP
    319  d148		       ad 5a 1e 	      LDA	XCORD+63
    320  d14b		       18		      CLC
    321  d14c		       69 04		      ADC	#4
    322  d14e		       d9 1b 1e 	      CMP	XCORD,Y
    323  d151		       90 04		      BCC	HERO2CHK	;		 ;MISSILE TOO FAR TO RIGHT OF SHIP
    324  d153		       20 2d d3 	      JSR	COLLIS3
    325  d156		       60		      RTS
    326  d157		       ad 11 1e    HERO2CHK   LDA	TYPE+62	;		  ;SEE IF 2ND HERO ACTIVE
    327  d15a		       f0 17		      BEQ	NXEMIS
    328  d15c		       ad 59 1e 	      LDA	XCORD+62	;		 ;CHECK FOR HIT ON 2ND HERO
    329  d15f		       38		      SEC
    330  d160		       e9 04		      SBC	#4
    331  d162		       d9 1b 1e 	      CMP	XCORD,Y
    332  d165		       b0 0c		      BCS	NXEMIS
    333  d167		       18		      CLC
    334  d168		       69 07		      ADC	#7
    335  d16a		       d9 1b 1e 	      CMP	XCORD,Y
    336  d16d		       90 04		      BCC	NXEMIS
    337  d16f		       20 27 d3 	      JSR	COLLIS3A
    338  d172		       60		      RTS
    339  d173		       c8	   NXEMIS     INY		;			      ;INC ELISTPTR TO NEXT ENEMY
    340  d174		       c0 38		      CPY	#56	;		      ;AND SEE IF AT END OF ENMYLIST
    341  d176		       d0 af		      BNE	NXEMIS1
    342  d178		       60		      RTS
    343  d179
    344  d179		       a9 00	   H2BOOM     LDA	#0	;		       ;ZERO OUT SECOND SHIP
    345  d17b		       8d 11 1e 	      STA	TYPE+62
    346  d17e		       8d b6 1f 	      STA	MODE+63	;		  ;RESET DUAL MODE
    347  d181		       a9 34		      LDA	#52	;		      ;STORE HERO EXPLOSION TYPE
    348  d183		       8d 14 1e 	      STA	TYPE+65
    349  d186		       ad 59 1e 	      LDA	XCORD+62
    350  d189		       38		      SEC
    351  d18a		       e9 04		      SBC	#4
    352  d18c		       8d 5c 1e 	      STA	XCORD+65	;		 ;STORE XCORD FOR EXPLOSION
    353  d18f		       a9 07		      LDA	#7
    354  d191		       8d ec 1e 	      STA	ANGLE+65
    355  d194		       a9 a8		      LDA	#168
    356  d196		       8d a4 1e 	      STA	YCORD+65
    357  d199		       a9 05		      LDA	#5
    358  d19b		       8d 34 1f 	      STA	ML+65
    359  d19e		       a9 00		      LDA	#0
    360  d1a0		       8d b8 1f 	      STA	MODE+65
    361  d1a3		       60		      RTS
    362  d1a4
    363  d1a4		       a9 00	   H1BOOM     LDA	#0	;		       ;ZERO OUT HERO SHIP
    364  d1a6		       8d 12 1e 	      STA	TYPE+63
    365  d1a9		       a9 34		      LDA	#52	;		      ;STORE HERO EXPLOSION TYPE
    366  d1ab		       8d 15 1e 	      STA	TYPE+66
    367  d1ae		       ad 5a 1e 	      LDA	XCORD+63
    368  d1b1		       38		      SEC
    369  d1b2		       e9 04		      SBC	#4
    370  d1b4		       8d 5d 1e 	      STA	XCORD+66	;		 ;STORE XCORD FOR EXPLOSION
    371  d1b7		       a9 07		      LDA	#7
    372  d1b9		       8d ed 1e 	      STA	ANGLE+66
    373  d1bc		       a9 a8		      LDA	#168
    374  d1be		       8d a5 1e 	      STA	YCORD+66
    375  d1c1		       a9 05		      LDA	#5
    376  d1c3		       8d 35 1f 	      STA	ML+66
    377  d1c6		       a9 00		      LDA	#0
    378  d1c8		       8d b9 1f 	      STA	MODE+66
    379  d1cb		       60		      RTS
    380  d1cc							;
    381  d1cc							;THIS SUBROUTINE IS CALLED WHEN AN ENEMY SHIP RUNS INTO THE HERO SHIP
    382  d1cc							;
    383  d1cc		       20 79 d1    COLLIS2A   JSR	H2BOOM
    384  d1cf		       4c f9 d1 	      JMP	COLLIS2B
    385  d1d2		       c0 28	   COLLIS2    CPY	#40
    386  d1d4		       d0 08		      BNE	COLLIS2M
    387  d1d6		       ad 9f 1f 	      LDA	MODE+40	;		  ;GET MODE OF SHIP
    388  d1d9		       c9 09		      CMP	#9	;		       ;SEE IF IN REUNITE MODE
    389  d1db		       d0 01		      BNE	COLLIS2M
    390  d1dd		       60		      RTS		;			      ;DON"T DO ANYTHING
    391  d1de		       20 a4 d1    COLLIS2M   JSR	H1BOOM
    392  d1e1		       ad 11 1e 	      LDA	TYPE+62	;		  ;SEE IF 2ND HERO ACTIVE
    393  d1e4		       f0 13		      BEQ	COLLIS2B	;		 ;NO, GO ON
    394  d1e6		       a9 05		      LDA	#5	;		       ;RESET HERO SHIP
    395  d1e8		       8d 12 1e 	      STA	TYPE+63
    396  d1eb		       ad 59 1e 	      LDA	XCORD+62
    397  d1ee							;	   STA	   XCORD+63;		   ;SWITCH XCORDS
    398  d1ee		       8d 5a 1e 	      STA	HEROX
    399  d1f1		       a9 00		      LDA	#0
    400  d1f3		       8d 11 1e 	      STA	TYPE+62	;		  ;KILL 2ND SHIP
    401  d1f6		       8d b6 1f 	      STA	MODE+63	;		  ;RESET DUAL MODE
    402  d1f9		       b9 d3 1d    COLLIS2B   LDA	TYPE,Y	;		   ;SEE IF IS BOSS SHIP AND FIRST TIME
    403  d1fc		       29 7f		      AND	#$7F	;		     ;HIT
    404  d1fe		       c9 03		      CMP	#3
    405  d200		       f0 0c		      BEQ	COLL21
    406  d202		       c9 10		      CMP	#16	;		      ;SEE IF GREEN BOSS W/ HERO
    407  d204		       d0 1c		      BNE	COLLIS2G
    408  d206		       a9 11		      LDA	#17
    409  d208		       99 d3 1d 	      STA	TYPE,Y	;		   ;CHANGE TO BLUE BOSS W/ HERO
    410  d20b		       4c 13 d2 	      JMP	COLL22
    411  d20e		       a9 04	   COLL21     LDA	#4
    412  d210		       99 d3 1d 	      STA	TYPE,Y	;		   ;CHANGE TO BLUE BOSS
    413  d213		       a9 09	   COLL22     LDA	#9	;		       ;HERO DEATH SOUND
    414  d215		       20 03 d4 	      JSR	TUNIN
    415  d218		       a9 0e		      LDA	#14	;		      ;CHANGE TO BLUE BOSS SOUND
    416  d21a		       20 03 d4 	      JSR	TUNIN
    417  d21d		       a2 3a		      LDX	#58
    418  d21f		       4c 9a d2 	      JMP	TRYNXSP1
    419  d222		       c9 11	   COLLIS2G   CMP	#17	;		      ;SEE IF IS BLUE BOSS W/ HERO
    420  d224		       d0 14		      BNE	COLLIS2H
    421  d226		       a9 08		      LDA	#8
    422  d228		       8d 9f 1f 	      STA	MODE+40	;		  ;SET TO HERO SPIN MODE
    423  d22b		       a9 04		      LDA	#4	;		       ;SET TO REG BLUE BOSS
    424  d22d		       99 d3 1d 	      STA	TYPE,Y
    425  d230		       a9 05		      LDA	#5
    426  d232		       20 03 d4 	      JSR	TUNIN
    427  d235		       a9 06		      LDA	#6
    428  d237		       20 03 d4 	      JSR	TUNIN	;		    ;HERO RELEASE SOUND
    429  d23a		       c0 28	   COLLIS2H   CPY	#40	;		      ;SEE IF IS CAPTURED HERO SHIP
    430  d23c		       d0 12		      BNE	NOTCAPH
    431  d23e		       20 6b d3 	      JSR	CLEARBOS	;		 ;CLEAR BOSS THAT CARRIED HERO
    432  d241		       a9 01		      LDA	#$01
    433  d243		       85 6d		      STA	TEMP4
    434  d245		       a9 0b		      LDA	#11	;		      ;ONE THOUSAND TYPE
    435  d247		       85 94		      STA	SCRTEMP
    436  d249		       a9 00		      LDA	#0
    437  d24b		       85 5e		      STA	HEROREAP
    438  d24d		       4c 90 d2 	      JMP	ZAPHERO
    439  d250				   NOTCAPH
    440  d250							;	   DEC	   NUMFLY;		   ;DEC NUMBER SHPS FLYING
    441  d250		       c6 88		      DEC	AIRBORNE
    442  d252		       b9 d3 1d 	      LDA	TYPE,Y	;		   ;SEE WHAT TYPE OF ENEMY SHIP IT WAS
    443  d255		       29 7f		      AND	#$7F
    444  d257		       c9 01		      CMP	#1	;		       ;SEE IF BLUE SHIP
    445  d259		       f0 04		      BEQ	META11
    446  d25b		       c9 0d		      CMP	#13
    447  d25d		       d0 23		      BNE	NOTBLUG
    448  d25f		       a9 10	   META11     LDA	#$10	;		     ;BLUE DEATH SCORE
    449  d261		       85 6e		      STA	TEMP5
    450  d263		       ad 2a 27 	      LDA	FARREN
    451  d266		       c9 04		      CMP	#4
    452  d268		       d0 10		      BNE	DSBLFAR
    453  d26a		       ad 80 02 	      LDA	SWCHA
    454  d26d		       0a		      ASL
    455  d26e		       0a		      ASL
    456  d26f		       0a		      ASL
    457  d270		       b0 08		      BCS	DSBLFAR
    458  d272		       a9 ff		      LDA	#$FF
    459  d274		       8d 2a 27 	      STA	FARREN
    460  d277		       4c 90 d2 	      JMP	ZAPHERO
    461  d27a		       a9 00	   DSBLFAR    LDA	#0
    462  d27c		       8d 2a 27 	      STA	FARREN
    463  d27f		       4c 90 d2 	      JMP	ZAPHERO
    464  d282
    465  d282				   NOTBLUG
    466  d282		       c9 02		      CMP	#2	;		       ;SEE IF RED SHIP
    467  d284		       d0 07		      BNE	NOTREDXG
    468  d286		       a9 16		      LDA	#$16	;		     ;RED DEATH SCORE
    469  d288		       85 6e		      STA	TEMP5
    470  d28a		       4c 90 d2 	      JMP	ZAPHERO
    471  d28d				   NOTREDXG
    472  d28d		       20 9e d2 	      JSR	ABOSSHIT	;		 ; HOW YOU PRONOUNCE IT IS YOUR OWN
    473  d290							;				 ; BUSINESS
    474  d290
    475  d290							;	   THIS IS AN ENTRY POINT FOR BIZARRE CODE SEGMENTS ABOVE
    476  d290		       a9 00	   ZAPHERO    LDA	#0	;		       ; FORMERLY COLLIS2X
    477  d292		       99 d3 1d 	      STA	TYPE,Y	;		   ;ZERO OUT ENEMY SHIP
    478  d295		       a9 09		      LDA	#9	;		       ;HERO DEATH SOUND
    479  d297		       20 03 d4 	      JSR	TUNIN
    480  d29a
    481  d29a				   TRYNXSP1
    482  d29a		       20 e3 d2 	      JSR	ENMYBOOM
    483  d29d		       60		      RTS		;			      ;
    484  d29e
    485  d29e							;	   COMBINED NOTREDXG AND NOTREDX
    486  d29e				   ABOSSHIT
    487  d29e		       b9 77 1f 	      LDA	MODE,Y	;		   ;MUST BE BOSS
    488  d2a1		       10 2b		      BPL	FOURHX	;		   ;SEE IF WAS ATTACKING WITH ESCORTS
    489  d2a3		       29 0f		      AND	#$0F
    490  d2a5		       c9 05		      CMP	#5
    491  d2a7		       30 25		      BMI	FOURHX
    492  d2a9		       c9 09		      CMP	#9
    493  d2ab		       10 21		      BPL	FOURHX
    494  d2ad		       b9 ba 1f 	      LDA	COUNTXY,Y	;		;SEE HOW MANY ESCORTS IT HAD
    495  d2b0		       c9 0f		      CMP	#$0F
    496  d2b2		       f0 1a		      BEQ	FOURHX	;		   ;GO TO NO ESCORT
    497  d2b4		       c9 1f		      CMP	#$1F
    498  d2b6		       d0 09		      BNE	SIXTENHX
    499  d2b8		       a9 80		      LDA	#$80	;		     ;ONE ESCORT
    500  d2ba		       85 6e		      STA	TEMP5
    501  d2bc		       a9 0a		      LDA	#10	;		      ;EIGHT HUNDRED TYPE
    502  d2be		       85 94		      STA	SCRTEMP
    503  d2c0		       60		      RTS
    504  d2c1		       a9 60	   SIXTENHX   LDA	#$60	;		     ;TWO ESCORTS
    505  d2c3		       85 6e		      STA	TEMP5
    506  d2c5		       a9 01		      LDA	#$01
    507  d2c7		       85 6d		      STA	TEMP4
    508  d2c9		       a9 0c		      LDA	#12	;		      ;SIXTEEN HUNDRED TYPE
    509  d2cb		       85 94		      STA	SCRTEMP
    510  d2cd		       60		      RTS
    511  d2ce
    512  d2ce		       b9 63 1e    FOURHX     LDA	YCORD,Y	;		  ;GET YCORD OF BOSS
    513  d2d1		       c9 0d		      CMP	#13	;		      ;SEE IF AT RESTING YCORD
    514  d2d3		       f0 09		      BEQ	FOURH1	;		   ;SCORE IS 150 IF SO
    515  d2d5		       a9 40		      LDA	#$40	;		     ;NO ESCORTS
    516  d2d7		       85 6e		      STA	TEMP5	;		    ;SCORE
    517  d2d9		       a9 09		      LDA	#9	;		       ;FOUR HUNDRED TYPE
    518  d2db		       85 94		      STA	SCRTEMP
    519  d2dd		       60		      RTS
    520  d2de		       a9 15	   FOURH1     LDA	#$15
    521  d2e0		       85 6e		      STA	TEMP5	;		    ;GIVE SCORE OF 150
    522  d2e2		       60		      RTS
    523  d2e3
    524  d2e3							;	   ENEMY BOOM !
    525  d2e3		       a2 3a	   ENMYBOOM   LDX	#58
    526  d2e5		       bd d3 1d    BOOMLOOP   LDA	TYPE,X	;		   ; IT IS NOW TIME FOR THE GALAGA ON
    527  d2e8		       f0 15		      BEQ	GOTSP1	;		   ; YOUR TELEVISION TO EXPLODE
    528  d2ea		       e8		      INX
    529  d2eb		       e0 3e		      CPX	#62
    530  d2ed		       d0 f6		      BNE	BOOMLOOP
    531  d2ef		       a2 3a		      LDX	#58	;		      ;ALL SPACES TAKEN, JUST USE FIRST SPACE
    532  d2f1		       bd d3 1d    BOMLOP     LDA	TYPE,X	;		   ;FIND A USABLE SPOT
    533  d2f4		       c9 09		      CMP	#9
    534  d2f6		       10 07		      BPL	GOTSP1	;		   USE A "NUMBER" SPOT
    535  d2f8		       e8		      INX
    536  d2f9		       e0 3e		      CPX	#62
    537  d2fb		       d0 f4		      BNE	BOMLOP
    538  d2fd		       a2 3a		      LDX	#58
    539  d2ff		       a9 08	   GOTSP1     LDA	#8	;		       ;CHANGE ENEMY SHIP INTO EXPLOSION
    540  d301		       9d d3 1d 	      STA	TYPE,X
    541  d304		       b9 1b 1e 	      LDA	XCORD,Y
    542  d307		       38		      SEC
    543  d308		       e9 03		      SBC	#3	;		       ;CENTER THE EXPLOSION
    544  d30a		       9d 1b 1e 	      STA	XCORD,X
    545  d30d		       b9 63 1e 	      LDA	YCORD,Y
    546  d310		       9d 63 1e 	      STA	YCORD,X
    547  d313		       a9 05		      LDA	#5
    548  d315		       9d f3 1e 	      STA	ML,X
    549  d318		       a9 07		      LDA	#7
    550  d31a		       9d ab 1e 	      STA	ANGLE,X
    551  d31d		       a5 94		      LDA	SCRTEMP
    552  d31f		       9d 77 1f 	      STA	MODE,X
    553  d322		       a9 00		      LDA	#0
    554  d324		       85 94		      STA	SCRTEMP
    555  d326		       60		      RTS
    556  d327
    557  d327
    558  d327							;
    559  d327							;THIS SUBROUTINE IS CALLED WHEN AN ENEMY MISSLE RUNS INTO THE HERO SHIP
    560  d327							;
    561  d327		       20 79 d1    COLLIS3A   JSR	H2BOOM	;		   ;ZERO OUT 2ND HERO
    562  d32a		       4c 48 d3 	      JMP	COLLIS3B
    563  d32d		       20 a4 d1    COLLIS3    JSR	H1BOOM	;		   ;ZERO OUT HERO SHIP
    564  d330		       ad 11 1e 	      LDA	TYPE+62	;		  ;SEE IF 2ND SHIP ACTIVE
    565  d333		       f0 13		      BEQ	COLLIS3B	;		 ;NO, GO ON
    566  d335		       a9 00		      LDA	#0
    567  d337		       8d b6 1f 	      STA	MODE+63	;		  ;PUT BACK IN SINGLE MODE
    568  d33a		       8d 11 1e 	      STA	TYPE+62	;		  ;KILL 2ND SHIP
    569  d33d		       a9 05		      LDA	#5
    570  d33f		       8d 12 1e 	      STA	TYPE+63	;		  ;SWITCH TO HERO SHIP
    571  d342		       ad 59 1e 	      LDA	XCORD+62
    572  d345							;	   STA	   XCORD+63;		   ;SET NEW XCORD
    573  d345		       8d 5a 1e 	      STA	HEROX
    574  d348		       a9 00	   COLLIS3B   LDA	#0
    575  d34a		       99 d3 1d 	      STA	TYPE,Y	;		   ;ZERO OUT MISSLE
    576  d34d		       a9 09		      LDA	#9	;		       ;HERO DEATH SOUND
    577  d34f		       20 03 d4 	      JSR	TUNIN
    578  d352		       ad 2a 27 	      LDA	FARREN
    579  d355		       f0 13		      BEQ	NON1
    580  d357		       ad 80 02 	      LDA	SWCHA
    581  d35a		       0a		      ASL
    582  d35b		       0a		      ASL
    583  d35c		       0a		      ASL
    584  d35d		       0a		      ASL
    585  d35e		       b0 05		      BCS	DISFAR
    586  d360		       ee 2a 27 	      INC	FARREN
    587  d363		       d0 05		      BNE	NON1
    588  d365		       a9 00	   DISFAR     LDA	#0
    589  d367		       8d 2a 27 	      STA	FARREN
    590  d36a		       60	   NON1       RTS
    591  d36b
    592  d36b							;THIS SUBROUTINE CLEARS THE BOSS GALAGA WHICH WAS CARRYING A HERO SHIP
    593  d36b							; IT IS CALLED WHEN THE CAPTURED HERO IS KILLED
    594  d36b		       84 b8	   CLEARBOS   STY	KEEPY
    595  d36d		       a4 5c		      LDY	CAPBOS1
    596  d36f		       b9 d3 1d 	      LDA	TYPE,Y	;		   ;GET TYPE OF CAPTURING HERO
    597  d372		       29 7f		      AND	#$7F	;		     ;BOOT HIGH BIT
    598  d374		       c9 10		      CMP	#16	;		      ;SEE IF HAS HERO
    599  d376		       30 09		      BMI	ENDCLRBS
    600  d378		       b9 d3 1d 	      LDA	TYPE,Y
    601  d37b		       38		      SEC
    602  d37c		       e9 0d		      SBC	#13
    603  d37e		       99 d3 1d 	      STA	TYPE,Y
    604  d381		       a4 b8	   ENDCLRBS   LDY	KEEPY
    605  d383		       60		      RTS
    606  d384							;
    607  d384							;THIS SUBROUTINE HANDLES EXPLOSIONS.  THE EXPLOSION IS POINTED TO BY THE
    608  d384							;Y REG
    609  d384							;THE Y REG IS SAVED
    610  d384							;
    611  d384		       98	   EXPLO      TYA		;			      ;TRANSFER Y REG TO X REG
    612  d385		       aa		      TAX
    613  d386		       bd d3 1d 	      LDA	TYPE,X	;		   ;CHECK TYPE
    614  d389		       c9 08		      CMP	#8	;		       ;SEE IF EXPLOSION
    615  d38b		       f0 04		      BEQ	BUGEXPLO
    616  d38d		       c9 34		      CMP	#52
    617  d38f		       d0 29		      BNE	SHOWNUM
    618  d391		       de f3 1e    BUGEXPLO   DEC	ML,X
    619  d394		       10 39		      BPL	ENDNUM
    620  d396		       c0 3c		      CPY	#60	;		      ;SEE IF IS HERO EXPLOSION
    621  d398		       30 04		      BMI	BUGEX1
    622  d39a		       a9 07		      LDA	#7
    623  d39c		       d0 02		      BNE	BUGEX2
    624  d39e		       a9 03	   BUGEX1     LDA	#3
    625  d3a0		       9d f3 1e    BUGEX2     STA	ML,X
    626  d3a3		       de ab 1e 	      DEC	ANGLE,X
    627  d3a6		       d0 27		      BNE	ENDNUM
    628  d3a8		       bd 77 1f 	      LDA	MODE,X
    629  d3ab		       9d d3 1d 	      STA	TYPE,X
    630  d3ae		       a9 64		      LDA	#100
    631  d3b0		       9d f3 1e 	      STA	ML,X
    632  d3b3		       a9 01		      LDA	#1
    633  d3b5		       9d ab 1e 	      STA	ANGLE,X	;		  ;PREVENT FLAPPING
    634  d3b8		       d0 15		      BNE	ENDNUM
    635  d3ba		       c9 09	   SHOWNUM    CMP	#9
    636  d3bc		       30 11		      BMI	ENDNUM	;		   ;NOT A SCORE
    637  d3be		       c9 0d		      CMP	#13
    638  d3c0		       10 0d		      BPL	ENDNUM	;		   ;NOT A SCORE
    639  d3c2		       de f3 1e 	      DEC	ML,X
    640  d3c5		       d0 08		      BNE	ENDNUM
    641  d3c7		       a9 00		      LDA	#0
    642  d3c9		       9d d3 1d 	      STA	TYPE,X
    643  d3cc		       9d 77 1f 	      STA	MODE,X
    644  d3cf		       60	   ENDNUM     RTS
    645  d3d0
    646  d3d0
    647  d3d0							;*;*;*;*;*;*;*;*;*;*;*;*;*;*;*;*;*;*;*;*;*;*;*;*;*;*;*;*;*;*;*;*;*;*;*;*;*;*;*;*;*;*;*;*;*;*;*;*;*;*;*;*;*;*;*;*;*;*;*;*;*;*;*;*;*;*;*;*;*;*;*;*;*;*;*;*;*;*;*
    648  d3d0							;*
    649  d3d0							;*	    SOUND.S	  by Kevin G. Osborn
    650  d3d0							;*	    Contains subroutines
    651  d3d0							;*		    TUNER
    652  d3d0							;*		    SCRAPALL
    653  d3d0							;*		    SCRAPONE
    654  d3d0							;*		    TUNIN
    655  d3d0							;*;*;*;*;*;*;*;*;*;*;*;*;*;*;*;*;*;*;*;*;*;*;*;*;*;*;*;*;*;*;*;*;*;*;*;*;*;*;*;*;*;*;*;*;*;*;*;*;*;*;*;*;*;*;*;*;*;*;*;*;*;*;*;*;*;*;*;*;*;*;*;*;*;*;*;*;*;*;*
    656  d3d0							;*;*;*;*;*;*;*;*;*;*;*;*;*;*;*;*;*;*;*;*;*;*;*;*;*;*;*;*;*;*;*;*;*;*;*;*;*;*;*;*;*;*;*;*;*;*;*;*;*;*;*;*;*;*;*;*;*;*;*;*;*;*;*;*;*;*;*;*;*;*;*;*;*;*;*;*;*;*;*;*
    657  d3d0							;* SIMPSONG VERSION 0.03
    658  d3d0							;*
    659  d3d0							;* THIS SIMPLE SOUND DRIVER HAS, IN SOME WAYS, FEWER FEATURES BUT USES LESS RAM
    660  d3d0							;* AND ROM AND DOES NOT BACK UP SOUNDS FOR LATER (SOMETIMES MUCH LATER)
    661  d3d0							;* CONTINUATION. IT FEATURES 256 NOTE TUNES, SINGLE DURATION PER TUNE, ENDLESS
    662  d3d0							;* TUNES. IF A VALUE IN THE CONTROL OR VOLUME TABLES HAS THE HIGH BIT SET, THAT
    663  d3d0							;* VOLUME OR CONTROL WILL REMAIN IN EFFECT TILL THE END OF THE TUNE.
    664  d3d0							;* AN FF IN THE FREQUENCY TABLE WILL TERMINATE THE TUNE, AN FE WILL CAUSE IT TO
    665  d3d0							;* RESTART.  AN FD WILL CALL THE TUNE NUMBER FOLLOWING (IN THE FREQ TABLE).
    666  d3d0							;*
    667  d3d0							;* SUBROUTINES:
    668  d3d0							;*	SCRAPALL -- KILL ALL TUNES. SHOULD BE CALLED AT POWERUP, CHANGING PLAYERS,
    669  d3d0							;*		   AND GAME OVER
    670  d3d0							;*
    671  d3d0							;*	SCRAPONE -- KILL A PARTICULAR TUNE. PUT THE NUMBER OF THE TUNE YA WANNA
    672  d3d0							;*		    AXE IN THE ACCUMULATOR.
    673  d3d0							;*
    674  d3d0							;*	TUNIN	--  START THAT TUNE YOU PUT IN ACC.
    675  d3d0							;*
    676  d3d0							;* THE ABOVE ROUTINES PRESERVE THE X AND Y REGS
    677  d3d0							;*
    678  d3d0							;* TABLES NEEDED ARE:
    679  d3d0							;* RAM:
    680  d3d0							;*DCH0      DS      1; 		     ONE BYTE--DURATION CNTR CHAN. 0
    681  d3d0							;*DCH1      DS      1; 		     ONE BYTE--DURATION CNTR CHAN. 1
    682  d3d0							;*TUNNUM    DS      1; 		     ONE BYTE--TUNE NUM FOR CHAN. 0
    683  d3d0							;*TUNNUM1   DS      1; 		     ONE BYTE--TUNE NUM FOR CHAN. 1
    684  d3d0							;*TINDEX0   DS      1; 		     ONE BYTE--NOTE POINTER 0
    685  d3d0							;*TINDEX1   DS      1; 		     ONE BYTE--NOTE POINTER 1
    686  d3d0							;*CINDEX0   DS      1; 		     CONTROL INDEX
    687  d3d0							;*CINDEX1   DS      1
    688  d3d0							;*VINDEX0   DS      1; 		     VOLUME INDEX
    689  d3d0							;*VINDEX1   DS      1
    690  d3d0							;*MPTRL     EQU     KTEMP0;		     ZERO PAGE TEMP(NOT GAMEPLAY)
    691  d3d0							;*MPTRH     EQU     KTEMP1;		     ZERO PAGE TEMP(NOT GAMEPLAY)
    692  d3d0							;*TUNTEMP   EQU     TEMP0;		     ANY GAMEPLAY TEMP
    693  d3d0							;* ROM:
    694  d3d0							;*   DURTABL	    ONE DURATION IN FRAMES PER TUNE
    695  d3d0							;*   TBASE	    LOW ADDRESS OF THE START OF FREQ DATA BY TUNE NUMBER
    696  d3d0							;*   TBASEH	    DITTO FOR HIGH ADDRESS
    697  d3d0							;*   VBASE	    LOW ADDRESS OF THE START OF VOL DATA BY TUNE NUMBER
    698  d3d0							;*   VBASEH	    DITTO FOR HIGH ADDRESS
    699  d3d0							;*   CBASE	    LOW ADDRESS OF THE START OF CTRL DATA BY TUNE NUMBER
    700  d3d0							;*   CBASEH	    DITTO FOR HIGH ADDRESS
    701  d3d0							;*   PRYOR	    PRIORITY BY TUNE NUMBERS  --  ZERO THE LOWEST
    702  d3d0							;*   VOLTABL	    VOLUMES
    703  d3d0							;*   FREQTABL	    FREQUENCIES
    704  d3d0							;*   CTLTABL	    CONTROLS
    705  d3d0
    706  d3d0							;*;*;*;*;*;*;*;*;*;*;*;*;*;*;*;*;*;*;*;*;*;*;*;*;*;*;*;*;*;*;*;*;*;*;*;*;*;*;*;*;*;*;*;*;*;*;*;*;*;*;*;*;*;*;*;*;*;*;*;*;*;*;*;*;*;*;*;*;*;*;*;*;*;*;*;*;*;*;*;*
    707  d3d0							;* SCRAPALL
    708  d3d0							;*	    KILL ALL TUNES. SHOULD BE CALLED AT POWERUP, CHANGING PLAYERS,
    709  d3d0							;*		   AND GAME OVER
    710  d3d0							;*   ALSO BEFORE INITIATING A TUNE WITH TWO VOICES
    711  d3d0
    712  d3d0		       98	   SCRAPALL   TYA
    713  d3d1		       48		      PHA
    714  d3d2		       8a		      TXA
    715  d3d3		       48		      PHA
    716  d3d4		       a0 00		      LDY	#0
    717  d3d6		       84 19		      STY	AUDV0
    718  d3d8		       84 1a		      STY	AUDV1
    719  d3da		       88		      DEY
    720  d3db		       8c 54 27 	      STY	TUNNUM
    721  d3de		       8c 55 27 	      STY	TUNNUM1
    722  d3e1		       68		      PLA
    723  d3e2		       aa		      TAX
    724  d3e3		       68		      PLA
    725  d3e4		       a8		      TAY
    726  d3e5		       60		      RTS
    727  d3e6
    728  d3e6							; IF YOU WANT, LOOP THIS UP
    729  d3e6
    730  d3e6							;*;*;*;*;*;*;*;*;*;*;*;*;*;*;*;*;*;*;*;*;*;*;*;*;*;*;*;*;*;*;*;*;*;*;*;*;*;*;*;*;*;*;*;*;*;*;*;*;*;*;*;*;*;*;*;*;*;*;*;*;*;*;*;*;*;*;*;*;*;*;*;*;*;*;*;*;*;*;*;*
    731  d3e6							;* SCRAPONE
    732  d3e6							;*	    KILL A PARTICULAR TUNE. PUT THE NUMBER OF THE TUNE YA WANNA
    733  d3e6							;*		    AXE IN THE ACCUMULATOR.
    734  d3e6		       cd 54 27    SCRAPONE   CMP	TUNNUM
    735  d3e9		       d0 0a		      BNE	CKCH1
    736  d3eb		       a9 00		      LDA	#0
    737  d3ed		       85 19		      STA	AUDV0
    738  d3ef		       a9 ff		      LDA	#$FF
    739  d3f1		       8d 54 27 	      STA	TUNNUM
    740  d3f4		       60		      RTS
    741  d3f5		       38	   CKCH1      SEC
    742  d3f6		       ed 55 27 	      SBC	TUNNUM1
    743  d3f9		       d0 07		      BNE	REETS
    744  d3fb		       85 1a		      STA	AUDV1
    745  d3fd		       a9 ff		      LDA	#$FF
    746  d3ff		       8d 55 27 	      STA	TUNNUM1
    747  d402		       60	   REETS      RTS
    748  d403
    749  d403							;*;*;*;*;*;*;*;*;*;*;*;*;*;*;*;*;*;*;*;*;*;*;*;*;*;*;*;*;*;*;*;*;*;*;*;*;*;*;*;*;*;*;*;*;*;*;*;*;*;*;*;*;*;*;*;*;*;*;*;*;*;*;*;*;*;*;*;*;*;*;*;*;*;*;*;*;*;*;*;*
    750  d403							;* TUNIN
    751  d403							;*	    START THAT TUNE YOU PUT IN ACC.
    752  d403
    753  d403		       8d 51 27    TUNIN      STA	TUNTEMP
    754  d406		       98		      TYA
    755  d407		       48		      PHA
    756  d408		       8a		      TXA
    757  d409		       48		      PHA
    758  d40a
    759  d40a		       a0 01		      LDY	#1
    760  d40c		       ae 51 27 	      LDX	TUNTEMP
    761  d40f
    762  d40f		       b9 54 27    TROIK1     LDA	TUNNUM,Y
    763  d412		       cd 51 27 	      CMP	TUNTEMP	;		  ;SEE IF TUNE IS ALREADY IN
    764  d415		       f0 2f		      BEQ	DO	;		       ;GO AHEAD AND LOAD
    765  d417		       88		      DEY
    766  d418		       10 f5		      BPL	TROIK1
    767  d41a
    768  d41a		       a0 01		      LDY	#1
    769  d41c		       b9 54 27    TROIKA     LDA	TUNNUM,Y	;		 ;FIRST CHECK FOR AN EMPTY CHANNEL
    770  d41f		       c9 ff		      CMP	#$FF
    771  d421		       f0 23		      BEQ	DO
    772  d423		       88	   TRKNX      DEY
    773  d424		       10 f6		      BPL	TROIKA
    774  d426		       ad 55 27 	      LDA	TUNNUM1	;		  ;THIS IS DONE TO PREVENT GLITCHINESS
    775  d429		       29 7f		      AND	#$7F
    776  d42b		       a8		      TAY
    777  d42c		       bd cb d5 	      LDA	PRYOR,X
    778  d42f		       d9 cb d5 	      CMP	PRYOR,Y	;		 ;CHECK FOR LOWEST PRIORITY
    779  d432		       a0 01		      LDY	#1
    780  d434		       b0 10		      BCS	DO
    781  d436		       ad 54 27 	      LDA	TUNNUM	;		  ;THIS IS DONE TO PREVENT GLITCHINESS
    782  d439		       29 7f		      AND	#$7F
    783  d43b		       a8		      TAY
    784  d43c		       bd cb d5 	      LDA	PRYOR,X
    785  d43f		       d9 cb d5 	      CMP	PRYOR,Y	;		 ;CHECK FOR LOWEST PRIORITY
    786  d442		       90 08		      BCC	ROOTS
    787  d444		       a0 00		      LDY	#0
    788  d446		       8a	   DO	      TXA
    789  d447		       09 80		      ORA	#$80
    790  d449		       99 54 27 	      STA	TUNNUM,Y
    791  d44c		       68	   ROOTS      PLA
    792  d44d		       aa		      TAX
    793  d44e		       68		      PLA
    794  d44f		       a8		      TAY
    795  d450		       60		      RTS
    796  d451
    797  d451							;*;*;*;*;*;*;*;*;*;*;*;*;*;*;*;*;*;*;*;*;*;*;*;*;*;*;*;*;*;*;*;*;*;*;*;*;*;*;*;*;*;*;*;*;*;*;*;*;*;*;*;*;*;*;*;*;*;*;*;*;*;*;*;*;*;*;*;*;*;*;*;*;*;*;*;*;*;*;*;*
    798  d451							;*TUNER SHOULD BE CALLED ONCE PER FRAME, NO INPUTS, AND IT OPERATES WITH
    799  d451							;*A TOTAL DISREGARD FOR REGISTER SANCTITY. EACH TUNE CAN BE 256 NOTES LONG
    800  d451							;*IF YOUR TUNES ARE VERY SMALL, YOU COULD DO AWAY WITH ALL THE INDIRECT STUFF
    801  d451				   TUNER
    802  d451							; TEST FOR ATTRACT
    803  d451		       a5 b0		      LDA	AUTOPLAY
    804  d453		       d0 ad		      BNE	REETS
    805  d455							; TEST FOR PAUSE
    806  d455		       a5 e4		      LDA	PAUSE
    807  d457		       30 a9		      BMI	REETS	;		    ;MINUS IF IN PAUSE
    808  d459
    809  d459		       a2 01		      LDX	#1
    810  d45b		       bc 54 27    TUNLOP     LDY	TUNNUM,X
    811  d45e		       c8		      INY
    812  d45f		       d0 03		      BNE	NETN	;		     ;TUNNUM=FF DO NEXT CHANNEL
    813  d461		       4c 16 d5    JNXTCH     JMP	NXTCH
    814  d464		       88	   NETN       DEY
    815  d465		       10 17		      BPL	BOOGIE
    816  d467		       98		      TYA		;			      ;NEW TUNE--INTITIATE
    817  d468		       29 7f		      AND	#$7F
    818  d46a		       9d 54 27 	      STA	TUNNUM,X
    819  d46d		       a8		      TAY
    820  d46e		       b9 91 d5 	      LDA	CTRLTABL,Y
    821  d471		       95 15		      STA	AUDC0,X	;		  ; IN EFFECT UNTIL CHANGED
    822  d473		       a9 ff		      LDA	#$FF
    823  d475		       9d 52 27 	      STA	DCH0,X	;		   ;START
    824  d478		       9d 56 27 	      STA	TINDEX0,X
    825  d47b							;*	    STA     CINDEX0,X
    826  d47b		       9d 5a 27 	      STA	VINDEX0,X
    827  d47e		       b9 1d d5    BOOGIE     LDA	TBASE,Y
    828  d481		       85 c2		      STA	MPTRL
    829  d483		       b9 3a d5 	      LDA	TBASEH,Y
    830  d486		       85 c3		      STA	MPTRH
    831  d488		       de 52 27 	      DEC	DCH0,X
    832  d48b		       10 d4		      BPL	JNXTCH
    833  d48d		       b9 ae d5 	      LDA	DURTABL,Y
    834  d490		       9d 52 27 	      STA	DCH0,X
    835  d493		       bc 56 27 	      LDY	TINDEX0,X
    836  d496							;*	    INC     CINDEX0,X
    837  d496		       fe 5a 27 	      INC	VINDEX0,X
    838  d499		       c8		      INY
    839  d49a		       b9 c2 00 	      LDA	MPTRL,Y	;		;FREQ
    840  d49d		       c9 ff		      CMP	#$FF
    841  d49f		       d0 09		      BNE	CKENL
    842  d4a1		       9d 54 27 	      STA	TUNNUM,X	;		 ;END THIS FUNKY TUNE
    843  d4a4		       a9 00		      LDA	#0
    844  d4a6		       95 19		      STA	AUDV0,X
    845  d4a8		       f0 b7		      BEQ	JNXTCH
    846  d4aa		       c9 fe	   CKENL      CMP	#$FE	;		    ; TEST FOR REPEATS
    847  d4ac		       f0 18		      BEQ	FOOBEQ
    848  d4ae		       c9 fd	   CKNXTT     CMP	#$FD	;		     ; CONTINUE WITH THE NEXT TUNE
    849  d4b0		       d0 1d		      BNE	STFREQ
    850  d4b2		       c8		      INY		;			      ; NEXT BYTE IS TUNE INDEX
    851  d4b3		       b9 c2 00 	      LDA	MPTRL,Y
    852  d4b6		       a8		      TAY
    853  d4b7		       09 80		      ORA	#$80	;		     ; SO THAT NEW CTRL AND VOLUME GET READ
    854  d4b9		       9d 54 27 	      STA	TUNNUM,X
    855  d4bc		       b9 1d d5 	      LDA	TBASE,Y	;		  ; GET ADDRESS OF NEW TUNE
    856  d4bf		       85 c2		      STA	MPTRL
    857  d4c1		       b9 3a d5 	      LDA	TBASEH,Y
    858  d4c4		       85 c3		      STA	MPTRH
    859  d4c6		       a0 00	   FOOBEQ     LDY	#0	;		       ; JUMP HERE FOR REPEAT
    860  d4c8		       98		      TYA		;			      ; Y MUST BE 0, IT"S THE FREQ. INDEX
    861  d4c9							;*	    STA     CINDEX0,X
    862  d4c9		       9d 5a 27 	      STA	VINDEX0,X
    863  d4cc		       b9 c2 00    FRQLOOP    LDA	MPTRL,Y
    864  d4cf				   STFREQ		; BPL	   SKIP0;		   ; IF BIT 7 SET, GET NEW DURATION
    865  d4cf							;	   INY
    866  d4cf							;	  LDA	  (MPTRL),Y;		  ;DURATION CHANGES ARE DISABLED
    867  d4cf							;	 STA	 DCH0,X
    868  d4cf							;	DEY
    869  d4cf							;     LDA     (MPTRL),Y
    870  d4cf							;    INY
    871  d4cf							;   JMP     STIT0
    872  d4cf		       0a	   SKIP0      ASL
    873  d4d0		       10 13		      BPL	SKIP1	;		    ; IF BIT 6 SET, THIS IS A REST
    874  d4d2		       4a		      LSR
    875  d4d3		       29 bf		      AND	#$BF
    876  d4d5		       9d 52 27 	      STA	DCH0,X
    877  d4d8		       98		      TYA
    878  d4d9		       9d 56 27 	      STA	TINDEX0,X
    879  d4dc		       de 5a 27 	      DEC	VINDEX0,X
    880  d4df							;*	    DEC     CINDEX0,X
    881  d4df		       a9 00		      LDA	#0
    882  d4e1		       95 19		      STA	AUDV0,X
    883  d4e3		       f0 31		      BEQ	NXTCH
    884  d4e5		       0a	   SKIP1      ASL
    885  d4e6		       10 0a		      BPL	STIT	;		     ; IF BIT 5 IS SET, THIS IS A NEW CTRL
    886  d4e8		       4a		      LSR
    887  d4e9		       4a		      LSR
    888  d4ea		       29 1f		      AND	#$1F
    889  d4ec		       95 15		      STA	AUDC0,X
    890  d4ee		       c8		      INY
    891  d4ef		       4c cc d4 	      JMP	FRQLOOP	;		  ; DO NEXT BYTE BEFORE RETURNING
    892  d4f2		       4a	   STIT       LSR
    893  d4f3		       4a		      LSR
    894  d4f4		       95 17	   STIT0      STA	AUDF0,X
    895  d4f6		       98		      TYA
    896  d4f7		       9d 56 27 	      STA	TINDEX0,X
    897  d4fa		       bc 54 27 	      LDY	TUNNUM,X
    898  d4fd		       b9 57 d5 	      LDA	VBASE,Y
    899  d500		       85 c2		      STA	MPTRL
    900  d502		       b9 74 d5 	      LDA	VBASEH,Y
    901  d505		       85 c3		      STA	MPTRH
    902  d507		       bc 5a 27 	      LDY	VINDEX0,X
    903  d50a		       b9 c2 00 	      LDA	MPTRL,Y
    904  d50d		       10 01		      BPL	STVL
    905  d50f		       88		      DEY
    906  d510		       95 19	   STVL       STA	AUDV0,X
    907  d512		       98		      TYA
    908  d513		       9d 5a 27 	      STA	VINDEX0,X
    909  d516		       ca	   NXTCH      DEX
    910  d517		       30 03		      BMI	ROTS
    911  d519		       4c 5b d4 	      JMP	TUNLOP
    912  d51c		       60	   ROTS       RTS
    913  d51d
    914  d51d
    915  d51d							;*;*;*;*;*;*;*;*;*;*;*;*;*;*;*;*;*;*;*;*;*;*;*;*;*;*;*;*;*;*;*;*;*;*;*;*;*;*;*;*;*;*;*;*;*;*;*;*;*;*;*;*;*;*;*;*;*;*;*;*;*;*;*;*;*;*;*;*;*;*;*;*;*;*;*;*;*;*;*;*
    916  d51d
    917  d51d
    918  d51d							;*;*;*;*;*;*;*;*;*;*;*;*;*;*;*;*;*;*;*;*;*;*;*;*;*;*;*;*;*;*;*;*;*;*;*;*;*;*;*;*;*;*;*;*;*;*;*;*;*;*;*;*;*;*;*;*;*;*;*;*;*;*;*;*;*;*;*;*;*;*;*;*;*;*;*;*;*;*;*;*
    919  d51d							;*	    POINTER TABLES.
    920  d51d
    921  d51d		       e8 1d 48 55*TBASE      DC.B	<TTITLE0,<TTITLE1,<TSTACHA,<TFREE1,<TFREE2
    922  d522		       65 ab e9 0b	      DC.B	<TRELEAS1,<TRELEAS2,<THERSHOT,<TBIRDSWO
    923  d526		       2a 3f 49 53	      DC.B	<THERDEA,<TBOSDEA,<TREDDEA,<TBLUDEA
    924  d52a		       5d 66 6f 78	      DC.B	<TTRANSFM,<TBOSCHNG,<TCHALNG1,<TCHALNG2
    925  d52e		       81 f3 64 9b	      DC.B	<TPERFEC1,<TPERFEC2,<TSTATS1,<TSTATS2
    926  d532		       d1 e3 26 6b	      DC.B	<TTRACTOR,<TCAPTURE,<TKIDNAP1,<TKIDNAP2
    927  d536		       ac da 05 3b	      DC.B	<TBACMUS,<TTRAC2,<TSUIC,<TSUIC2
    928  d53a
    929  d53a		       d5 d6 d6 d6*TBASEH     DC.B	>TTITLE0,>TTITLE1,>TSTACHA,>TFREE1,>TFREE2
    930  d53f		       d6 d6 d6 d7	      DC.B	>TRELEAS1,>TRELEAS2,>THERSHOT,>TBIRDSWO
    931  d543		       d7 d7 d7 d7	      DC.B	>THERDEA,>TBOSDEA,>TREDDEA,>TBLUDEA
    932  d547		       d7 d7 d7 d7	      DC.B	>TTRANSFM,>TBOSCHNG,>TCHALNG1,>TCHALNG2
    933  d54b		       d7 d7 d8 d8	      DC.B	>TPERFEC1,>TPERFEC2,>TSTATS1,>TSTATS2
    934  d54f		       d8 d8 d9 d9	      DC.B	>TTRACTOR,>TCAPTURE,>TKIDNAP1,>TKIDNAP2
    935  d553		       d9 d8 da da	      DC.B	>TBACMUS,>TTRAC2,>TSUIC,>TSUIC2
    936  d557
    937  d557		       1c 47 54 5c*VBASE      DC.B	<TTITLE0V,<TTITLE1V,<TSTACHAV,<TFREE1V,<TFREE2V
    938  d55c		       aa e8 fa 1c	      DC.B	<TRELES1V,<TRELES2V,<THERSHOV,<TBIRDSWV
    939  d560		       33 1c 1c 1c	      DC.B	<THERDEAV,<TBOSDEAV,<TREDDEAV,<TBLUDEAV
    940  d564		       aa 1c 1c 1c	      DC.B	<TTRNSFMV,<TBOSCHGV,<TCHLNG1V,<TCHLNG2V
    941  d568		       1c e8 1c e8	      DC.B	<TPERFC1V,<TPERFC2V,<TSTATS1V,<TSTATS2V
    942  d56c		       1c ec 54 e8	      DC.B	<TTRACTRV,<TCAPTURV,<TKIDNP1V,<TKIDNP2V
    943  d570		       5d 47 1c 47	      DC.B	<TBACMUSV,<TTRAC2V,<TSUICV,<TSUIC2V
    944  d574
    945  d574		       d6 d6 d6 d6*VBASEH     DC.B	>TTITLE0V,>TTITLE1V,>TSTACHAV,>TFREE1V,>TFREE2V
    946  d579		       d6 d6 d6 d6	      DC.B	>TRELES1V,>TRELES2V,>THERSHOV,>TBIRDSWV
    947  d57d		       d7 d6 d6 d6	      DC.B	>THERDEAV,>TBOSDEAV,>TREDDEAV,>TBLUDEAV
    948  d581		       d6 d6 d6 d6	      DC.B	>TTRNSFMV,>TBOSCHGV,>TCHLNG1V,>TCHLNG2V
    949  d585		       d6 d6 d6 d6	      DC.B	>TPERFC1V,>TPERFC2V,>TSTATS1V,>TSTATS2V
    950  d589		       d6 d8 d6 d6	      DC.B	>TTRACTRV,>TCAPTURV,>TKIDNP1V,>TKIDNP2V
    951  d58d		       d6 d6 d6 d6	      DC.B	>TBACMUSV,>TTRAC2V,>TSUICV,>TSUIC2V
    952  d591
    953  d591
    954  d591							;*;*;*;*;*;*;*;*;*;*;*;*;*;*;*;*;*;*;*;*;*;*;*;*;*;*;*;*;*;*;*;*;*;*;*;*;*;*;*;*;*;*;*;*;*;*;*;*;*;*;*;*;*;*;*;*;*;*;*;*;*;*;*;*;*;*;*;*;*;*;*;*;*;*;*;*;*;*;*;*
    955  d591		       0d 0d 04 04*CTRLTABL   DC.B	$0D,$0D,4,4,4
    956  d596		       04 0d 04 04	      DC.B	4,$D,4,4
    957  d59a		       08 04 01 01	      DC.B	8,4,1,1
    958  d59e		       04 04 04 04	      DC.B	4,4,4,4
    959  d5a2		       04 0d 0d 0d	      DC.B	4,$D,$D,$D
    960  d5a6		       04 04 04 0d	      DC.B	4,4,4,$D
    961  d5aa		       0d 04 04 0d	      DC.B	$D,4,4,$D	;29 TUNES
    962  d5ae
    963  d5ae		       08 08 00 03*DURTABL    DC.B	$08,$08,$00,$03,$03
    964  d5b3		       02 02 00 03	      DC.B	$02,$02,$00,$03
    965  d5b7		       09 02 01 01	      DC.B	$09,$02,$01,$01
    966  d5bb		       03 00 05 05	      DC.B	$03,$00,$05,$05
    967  d5bf		       02 02 08 08	      DC.B	$02,$02,$08,$08
    968  d5c3		       01 02 02 02	      DC.B	$01,$02,$02,$02
    969  d5c7		       03 01 00 00	      DC.B	$03,$01,$00,$00
    970  d5cb
    971  d5cb
    972  d5cb		       06 05 07 08*PRYOR      DC.B	6,5,7,8,7
    973  d5d0		       0d 0c 03 04	      DC.B	13,12,3,4
    974  d5d4		       07 05 05 05	      DC.B	7,5,5,5
    975  d5d8		       09 05 08 07	      DC.B	9,5,8,7
    976  d5dc		       0f 0e 0f 0e	      DC.B	15,14,15,14
    977  d5e0		       09 09 0b 0a	      DC.B	9,9,11,10
    978  d5e4		       01 08 08 01	      DC.B	1,8,8,1
    979  d5e8							;*;*;*;*;*;*;*;*;*;*;*;*;*;*;*;*;*;*;*;*;*;*;*;*;*;*;*;*;*;*;*;*;*;*;*;*;*;*;*;*;*;*;*;*;*;*;*;*;*;*;*;*;*;*;*;*;*;*;*;*;*;*;*;*;*;*;*;*;*;*;*;*;*;*;*;*;*;*;*;*
    980  d5e8
    981  d5e8							;* FREQTABL
    982  d5e8							;TUNE 0: TITLE SONG
    983  d5e8		       0d 0d 24 1f*TTITLE0    DC.B	$0D,$0D,$24,$1F,$1B,$1B,$17,$18,$18,$1F,$1B,$1B,$12,$14,$14
    984  d5f7		       1f 1b 1b 17*	      DC.B	$1F,$1B,$1B,$17,$18,$18,$1F,$1B,$1B,$10,$0F,$0F,$11,$13,$13
    985  d606		       14 17 17 1a*	      DC.B	$14,$17,$17,$1A,$1B,$1B,$2D,$0B,$24,$11,$11,$0F,$11,$11,$14
    986  d615		       12 17 1b 14*	      DC.B	$12,$17,$1B,$14,$14,$14,$FF
    987  d61c
    988  d61c				   TREDDEAV
    989  d61c				   TBLUDEAV
    990  d61c				   TTITLE0V
    991  d61c				   TBIRDSWV
    992  d61c				   TBOSDEAV
    993  d61c				   TBOSCHGV
    994  d61c				   TCHLNG1V
    995  d61c				   TCHLNG2V
    996  d61c				   TPERFC1V
    997  d61c				   TSTATS1V
    998  d61c				   TTRACTRV
    999  d61c		       89	   TSUICV     DC.B	$89
   1000  d61d
   1001  d61d							;TUNE1: TITLE SONG
   1002  d61d		       10 51 0f 51*TTITLE1    DC.B	$10,$51,$0F,$51,$0D,$51,$0F,$51,$10,$51
   1003  d627		       0f 51 0d 51*	      DC.B	$0F,$51,$0D,$51,$0F,$48,$0F,$11,$11,$12,$14,$14
   1004  d633		       17 1a 1a 1b*	      DC.B	$17,$1A,$1A,$1B,$1F,$1F,$1B,$12,$12,$11,$12,$12,$16,$18,$18
   1005  d642		       18 1b 1b 1b*	      DC.B	$18,$1B,$1B,$1B,$FF
   1006  d647
   1007  d647				   TTITLE1V
   1008  d647				   TTRAC2V
   1009  d647		       84	   TSUIC2V    DC.B	$84
   1010  d648
   1011  d648							;TUNE2: STAGE CHANGE
   1012  d648		       0f 40 13 40*TSTACHA    DC.B	$0F,$40,$13,$40,$11,$43
   1013  d64e		       0f 40 13 40*	      DC.B	$0F,$40,$13,$40,$11,$FF
   1014  d654
   1015  d654				   TSTACHAV
   1016  d654				   TKIDNP1V
   1017  d654		       87	   TFREE2V    DC.B	$87
   1018  d655
   1019  d655							;TUNE3: EXTRA SHIP FANFARE
   1020  d655		       13 17 13 0e*TFREE1     DC.B	$13,$17,$13,$0E,$0B,$09,$FF
   1021  d65c
   1022  d65c		       8a	   TFREE1V    DC.B	$8A
   1023  d65d		       83	   TBACMUSV   DC.B	$83	;		      ;LOWERED THIS VOLUME
   1024  d65e
   1025  d65e							;TUNE4: EXTRA SHIP FANFARE
   1026  d65e		       17 1d 17 13*TFREE2     DC.B	$17,$1D,$17,$13,$0F,$11,$FF
   1027  d665
   1028  d665
   1029  d665							;TUNE5: CAPTURED SHIP RELEASED, PLAYS UNTIL UNITED
   1030  d665		       0d 42 10 42*TRELEAS1   DC.B	$D,$42,$10,$42,$F,$42,$12,$42
   1031  d66d		       10 42 14 42*	      DC.B	$10,$42,$14,$42,$12,$42,$15,$42
   1032  d675		       14 42 19 42*	      DC.B	$14,$42,$19,$42,$1C,$42,$1F,$42
   1033  d67d		       2d 0a 42 0c*	      DC.B	$2D,$A,$42,$C,$42,$D,$42,$E,$42
   1034  d686		       0d 42 0a 42*	      DC.B	$D,$42,$A,$42,$C,$42,$24,$1F,$42
   1035  d68f		       2d 0a 42 24*	      DC.B	$2D,$A,$42,$24,$1C,$42,$1F,$42,$19,$42
   1036  d699		       1c 42 14 42*	      DC.B	$1C,$42,$14,$42,$15,$42,$14,$42
   1037  d6a1		       12 42 1c 42*	      DC.B	$12,$42,$1C,$42,$19,$42,$16,$42,$FE
   1038  d6aa
   1039  d6aa
   1040  d6aa				   TRELES1V
   1041  d6aa		       88	   TTRNSFMV   DC.B	$88
   1042  d6ab
   1043  d6ab							;TUNE6: SAME AS 4
   1044  d6ab		       1c 1c 1c 1c*TRELEAS2   DC.B	$1C,$1C,$1C,$1C,$12,$12,$12,$12
   1045  d6b3		       0d 0d 0d 0d*	      DC.B	$D,$D,$D,$D,$D,$D,$10,$10
   1046  d6bb		       12 12 14 14*	      DC.B	$12,$12,$14,$14,$15,$15,$18,$18
   1047  d6c3		       1c 1c 1d 1d*	      DC.B	$1C,$1C,$1D,$1D,$1C,$1C,$18,$18
   1048  d6cb		       15 15 45 14*	      DC.B	$15,$15,$45,$14,$14,$45
   1049  d6d1		       12 12 45 10*	      DC.B	$12,$12,$45,$10,$10,$45
   1050  d6d7		       12 12 12 41*	      DC.B	$12,$12,$12,$41,$14,$14,$15,$15
   1051  d6df		       18 18 1c 1c*	      DC.B	$18,$18,$1C,$1C,$1D,$1D,$18,$18,$FE
   1052  d6e8
   1053  d6e8				   TPERFC2V
   1054  d6e8				   TRELES2V
   1055  d6e8				   TSTATS2V
   1056  d6e8		       85	   TKIDNP2V   DC.B	$85
   1057  d6e9
   1058  d6e9							;TUNE7: HERO SHOT
   1059  d6e9		       06 07 08 09*THERSHOT   DC.B	6,7,8,9,$A,$B,$C,$D	;FREQ
   1060  d6f1		       0f 11 13 15*	      DC.B	$F,$11,$13,$15,$17,$19,$1C,$1F
   1061  d6f9		       ff		      DC.B	$FF
   1062  d6fa
   1063  d6fa		       03 04 05 05*THERSHOV   DC.B	3,4,5,5,5,5,5,5,5,5,4,4,3,3,4,4,$FF
   1064  d70b
   1065  d70b							;TUNE8: BIRDSWOOPING SOUND
   1066  d70b		       0a 0b 0c 0d*TBIRDSWO   DC.B	$0A,$0B,$0C,$0D,$0E	;FREQ
   1067  d710		       0f 10 11 12*	      DC.B	$0F,$10,$11,$12,$13
   1068  d715		       14 15 17 18*	      DC.B	$14,$15,$17,$18,$1A
   1069  d71a		       1b 1d 1f 2d*	      DC.B	$1B,$1D,$1F,$2D,$0B,$0C
   1070  d720		       0d 0e 0f 10*	      DC.B	$0D,$0E,$0F,$10,$11
   1071  d725		       12 13 14 15*	      DC.B	$12,$13,$14,$15,$FF
   1072  d72a
   1073  d72a
   1074  d72a							;TUNE9: HERO DEATH SOUND
   1075  d72a		       1f 1f 1f 1f*THERDEA    DC.B	$1F,$1F,$1F,$1F,$1F,$1F,$1F,$1F,$FF
   1076  d733
   1077  d733		       0b 0d 0c 0b*THERDEAV   DC.B	$B,$D,$C,$B,$A,9,7,5,3,2,1,$FF
   1078  d73f
   1079  d73f							;TUNE10: BOSS DEATH SOUND
   1080  d73f		       1f 1c 1a 1c*TBOSDEA    DC.B	$1F,$1C,$1A,$1C,$1A
   1081  d744		       19 1a 19 18*	      DC.B	$19,$1A,$19,$18,$FF
   1082  d749
   1083  d749
   1084  d749							;TUNE11: RED DEATH SOUND
   1085  d749		       09 08 07 05*TREDDEA    DC.B	$09,$08,$07,$05,$41	;FREQ
   1086  d74e		       06 07 08 0b*	      DC.B	$06,$07,$08,$0B,$FF
   1087  d753
   1088  d753
   1089  d753							;TUNE12: BLUE DEATH SOUND
   1090  d753		       0d 0b 0a 09*TBLUDEA    DC.B	$0D,$0B,$0A,$09,$41	;FREQ
   1091  d758		       0a 0b 0d 0f*	      DC.B	$0A,$0B,$0D,$0F,$FF
   1092  d75d
   1093  d75d
   1094  d75d							;TUNE13: ONE BIRD INTO THREE BIRDS
   1095  d75d		       1d 1a 1d 1a*TTRANSFM   DC.B	$1D,$1A,$1D,$1A,$16,$13,$16,3,$FF
   1096  d766
   1097  d766
   1098  d766							;TUNE14: BOSS GOING TO BLUE
   1099  d766		       1f 1e 40 1c*TBOSCHNG   DC.B	$1F,$1E,$40,$1C,$1B
   1100  d76b		       40 19 18 ff	      DC.B	$40,$19,$18,$FF
   1101  d76f
   1102  d76f
   1103  d76f							;TUNE15: CHALLENGING STAGE CHANNEL 1
   1104  d76f		       13 4b 13 12 TCHALNG1   DC.B	$13,$4B,$13,$12
   1105  d773		       10 0e 0e 0e*	      DC.B	$10,$0E,$0E,$0E,$FF
   1106  d778
   1107  d778
   1108  d778							;TUNE16: CHALLENGING STAGE CHANNEL 2
   1109  d778		       1f 4b 1f 1d TCHALNG2   DC.B	$1F,$4B,$1F,$1D
   1110  d77c		       1a 17 17 17*	      DC.B	$1A,$17,$17,$17,$FF
   1111  d781
   1112  d781
   1113  d781							;TUNE17: PERFECT SCORE FANFARE
   1114  d781		       12 12 12 12*TPERFEC1   DC.B	$12,$12,$12,$12,$12,$00,$12,$00
   1115  d789		       12 12 12 12*	      DC.B	$12,$12,$12,$12,$14,$14,$14,$14
   1116  d791		       14 14 14 00*	      DC.B	$14,$14,$14,$00,$14,$14,$14,$14
   1117  d799		       14 14 14 00*	      DC.B	$14,$14,$14,$00,$14,$14,$14,$14
   1118  d7a1		       11 11 11 11*	      DC.B	$11,$11,$11,$11,$11,$00,$11,$00
   1119  d7a9		       11 11 11 11*	      DC.B	$11,$11,$11,$11,$12,$12,$12,$12
   1120  d7b1		       12 12 12 00*	      DC.B	$12,$12,$12,$00,$12,$12,$12,$12
   1121  d7b9		       12 12 12 00*	      DC.B	$12,$12,$12,$00,$12,$12,$12,$00
   1122  d7c1		       11 00 11 11*	      DC.B	$11,$00,$11,$11,$11,$00,$11,$00
   1123  d7c9		       11 11 11 11*	      DC.B	$11,$11,$11,$11,$0F,$00,$0F,$0F
   1124  d7d1		       0f 00 0f 00*	      DC.B	$0F,$00,$0F,$00,$0F,$0F,$0F,$00
   1125  d7d9		       0f 0f 0f 00*	      DC.B	$0F,$0F,$0F,$00,$0F,$0F,$0F,$00
   1126  d7e1		       0d 0d 0d 0d*	      DC.B	$0D,$0D,$0D,$0D,$0D,$0D,$0D,$0D
   1127  d7e9		       0d 0d 0d 0d*	      DC.B	$0D,$0D,$0D,$0D,$0D,$0D,$0D,$0D
   1128  d7f1		       fd 08		      DC.B	$FD,8	;CALL BIRD SWOOP SOUND
   1129  d7f3
   1130  d7f3							;TUNE18: PERFECT SCORE FANFARE
   1131  d7f3		       1f 1f 18 18*TPERFEC2   DC.B	$1F,$1F,$18,$18,$14,$14,$0F,$0F
   1132  d7fb		       1f 1f 18 18*	      DC.B	$1F,$1F,$18,$18,$14,$14,$0F,$0F
   1133  d803		       1f 1f 18 18*	      DC.B	$1F,$1F,$18,$18,$14,$14,$0F,$0F
   1134  d80b		       1f 1f 18 18*	      DC.B	$1F,$1F,$18,$18,$14,$14,$0F,$0F
   1135  d813		       1f 1f 18 18*	      DC.B	$1F,$1F,$18,$18,$14,$14,$0F,$0F
   1136  d81b		       1f 1f 18 18*	      DC.B	$1F,$1F,$18,$18,$14,$14,$0F,$0F
   1137  d823		       1f 1f 18 18*	      DC.B	$1F,$1F,$18,$18,$14,$14,$0F,$0F
   1138  d82b		       1f 1f 18 18*	      DC.B	$1F,$1F,$18,$18,$14,$14,$0F,$0F
   1139  d833		       1d 42 1d 1d*	      DC.B	$1D,$42,$1D,$1D,$1D,$42,$1D,$42
   1140  d83b		       1d 1d 1d 1d*	      DC.B	$1D,$1D,$1D,$1D,$1A,$42,$1A,$1A
   1141  d843		       1a 42 1a 42*	      DC.B	$1A,$42,$1A,$42,$1A,$1A,$1A,$42
   1142  d84b		       1a 1a 1a 42*	      DC.B	$1A,$1A,$1A,$42,$1A,$1A,$1A,$42
   1143  d853		       17 17 14 14*	      DC.B	$17,$17,$14,$14,$12,$12,$0F,$0F
   1144  d85b		       12 12 12 12*	      DC.B	$12,$12,$12,$12,$17,$17,$17,$17,$FF
   1145  d864
   1146  d864							;TUNE19: STATISTICS DISPLAY SOUND
   1147  d864		       0d 0d 24 1f*TSTATS1    DC.B	$D,$D,$24,$1F,$1B,$1B,$17,$18,$18
   1148  d86d		       1f 1b 1b 12*	      DC.B	$1F,$1B,$1B,$12,$14,$14,$1F,$1B
   1149  d875		       1b 17 18 18*	      DC.B	$1B,$17,$18,$18,$1F,$1B,$1B,$10
   1150  d87d		       0f 0f 11 13*	      DC.B	$F,$F,$11,$13,$13,$14,$17,$17
   1151  d885		       1a 1b 1b 2d*	      DC.B	$1A,$1B,$1B,$2D,$B,$24,$11,$11,$F,$11
   1152  d88f		       11 14 12 17*	      DC.B	$11,$14,$12,$17,$1B,$14,$14,$14
   1153  d897		       14 14 14 ff ABCD       DC.B	$14,$14,$14,$FF
   1154  d89b
   1155  d89b
   1156  d89b							;TUNE20: STATISTICS DISPLAY SOUND
   1157  d89b		       51 0d 0d 24*TSTATS2    DC.B	$51,$D,$D,$24,$1F,$1B,$1B,$17
   1158  d8a3		       18 18 1f 1b*	      DC.B	$18,$18,$1F,$1B,$1B,$12,$14,$14
   1159  d8ab		       1f 1b 1b 17*	      DC.B	$1F,$1B,$1B,$17,$18,$18,$1F,$1B
   1160  d8b3		       1b 10 0f 0f*	      DC.B	$1B,$10,$F,$F,$11,$13,$13,$14
   1161  d8bb		       17 17 1a 1b*	      DC.B	$17,$17,$1A,$1B,$1B,$2D,$B,$24,$11,$11
   1162  d8c5		       0f 11 11 14*	      DC.B	$F,$11,$11,$14,$12,$17,$1B,$14
   1163  d8cd		       14 14 14 ff ABCDE      DC.B	$14,$14,$14,$FF
   1164  d8d1
   1165  d8d1
   1166  d8d1							;TUNE21: TRACTOR BEAM
   1167  d8d1		       0e 41 0f 41*TTRACTOR   DC.B	$0E,$41,$0F,$41,$11,$41,$13,$41,$FE	;	    ;REPEATS
   1168  d8da
   1169  d8da							;TUNE26   SECOND CHANNEL OF TRACTOR BEAM SOUND
   1170  d8da		       41 11 41 13*TTRAC2     DC.B	$41,$11,$41,$13,$41,$16,$41,$17,$FE	;REPEATS
   1171  d8e3
   1172  d8e3
   1173  d8e3							;TUNE22: HERO SHIP BEING CAPTURED
   1174  d8e3		       17 13 10 0d*TCAPTURE   DC.B	$17,$13,$10,$0D,$0B
   1175  d8e8		       0d 10 13 fe	      DC.B	$0D,$10,$13,$FE	;REPEATS
   1176  d8ec
   1177  d8ec		       02 04 06 08*TCAPTURV   DC.B	$02,$04,$06,$08,$08,$06,$04,$02
   1178  d8f4		       03 03 03 03*	      DC.B	$03,$03,$03,$03,$03,$03,$03,$03
   1179  d8fc		       07 09 0a 0a*	      DC.B	$07,$09,$0A,$0A,$0A,$0A,$09,$07
   1180  d904		       04 04 04 04*	      DC.B	$04,$04,$04,$04,$04,$04,$04,$04
   1181  d90c		       03 05 07 09*	      DC.B	$03,$05,$07,$09,$09,$07,$05,$03
   1182  d914		       04 04 04 04*	      DC.B	$04,$04,$04,$04,$04,$04,$04,$04
   1183  d91c		       0a 0a 0a 0a*	      DC.B	$0A,$0A,$0A,$0A,$0A,$0A,$0A,$0A
   1184  d924		       03 fe		      DC.B	$03,$FE	;		  ;REPEATS
   1185  d926
   1186  d926							;TUNE23: HERO BEING TAKEN TO TOP OF SCREEN
   1187  d926		       0d 42 11 42*TKIDNAP1   DC.B	$0D,$42,$11,$42,$0F,$42,$12,$42
   1188  d92e		       11 42 14 42*	      DC.B	$11,$42,$14,$42,$12,$42,$15
   1189  d935		       42 14 42 1a*	      DC.B	$42,$14,$42,$1A,$42,$1C,$42,$1F
   1190  d93d		       42 2d 0b 42*	      DC.B	$42,$2D,$0B,$42,$0C,$42,$0D,$42
   1191  d945		       0e 42 0d 42*	      DC.B	$0E,$42,$0D,$42,$0B,$42,$0C,$42
   1192  d94d		       24 1f 42 2d*	      DC.B	$24,$1F,$42,$2D,$0B,$42,$24,$1C,$42,$1F
   1193  d957		       42 1a 42 1c*	      DC.B	$42,$1A,$42,$1C,$42,$14,$42,$16
   1194  d95f		       42 14 42 12*	      DC.B	$42,$14,$42,$12,$42,$1C,$42
   1195  d966		       19 42 16 42*	      DC.B	$19,$42,$16,$42,$FF	;MAY END ABRUPTLY???
   1196  d96b
   1197  d96b
   1198  d96b							;TUNE24: HERO BEING TAKEN TO TOP OF SCREEN
   1199  d96b		       1c 1c 1c 1c*TKIDNAP2   DC.B	$1C,$1C,$1C,$1C,$12,$12,$12,$12
   1200  d973		       0d 0d 0d 0d*	      DC.B	$0D,$0D,$0D,$0D,$0D,$0D,$11
   1201  d97a		       11 12 12 14*	      DC.B	$11,$12,$12,$14,$14,$17,$17,$18
   1202  d982		       18 1c 1c 1e*	      DC.B	$18,$1C,$1C,$1E,$1E,$1C,$1C
   1203  d989		       18 18 17 17*	      DC.B	$18,$18,$17,$17,$17,$17,$14,$14
   1204  d991		       14 14 12 12*	      DC.B	$14,$14,$12,$12,$12,$12,$11
   1205  d998		       11 11 11 12*	      DC.B	$11,$11,$11,$12,$12,$12,$12,$14
   1206  d9a0		       14 17 17 18*	      DC.B	$14,$17,$17,$18,$18,$1C,$1C
   1207  d9a7		       1d 1d 18 18*	      DC.B	$1D,$1D,$18,$18,$FF	;MAY END ABRUPTLY???
   1208  d9ac
   1209  d9ac
   1210  d9ac							;TUNE25: BACKGROUND MUSIC
   1211  d9ac		       1f 1d 1b 1a*TBACMUS    DC.B	$1F,$1D,$1B,$1A,$18	;FREQ
   1212  d9b1		       17 15 14 13*	      DC.B	$17,$15,$14,$13,$12
   1213  d9b6		       15 14 13 12*	      DC.B	$15,$14,$13,$12,$1F
   1214  d9bb		       1d 1b 1a 18*	      DC.B	$1D,$1B,$1A,$18,$17
   1215  d9c0		       15 14 13 12*	      DC.B	$15,$14,$13,$12,$1F
   1216  d9c5		       1d 1b 1a 18*	      DC.B	$1D,$1B,$1A,$18,$17
   1217  d9ca		       15 14 13 12*	      DC.B	$15,$14,$13,$12,$1F
   1218  d9cf		       1d 1b 1a 18*	      DC.B	$1D,$1B,$1A,$18,$17
   1219  d9d4		       15 14 13 12*	      DC.B	$15,$14,$13,$12,$13
   1220  d9d9		       14 15 17 12*	      DC.B	$14,$15,$17,$12,$13
   1221  d9de		       14 15 17 18*	      DC.B	$14,$15,$17,$18,$1A
   1222  d9e3		       1b 1d 1f 12*	      DC.B	$1B,$1D,$1F,$12,$13
   1223  d9e8		       14 15 17 18*	      DC.B	$14,$15,$17,$18,$1A
   1224  d9ed		       1b 1d 1f 12*	      DC.B	$1B,$1D,$1F,$12,$13
   1225  d9f2		       14 15 17 18*	      DC.B	$14,$15,$17,$18,$1A
   1226  d9f7		       1b 1d 1f 12*	      DC.B	$1B,$1D,$1F,$12,$13
   1227  d9fc		       14 15 17 18*	      DC.B	$14,$15,$17,$18,$1A
   1228  da01		       1b 1d 1f fe	      DC.B	$1B,$1D,$1F,$FE
   1229  da05
   1230  da05
   1231  da05							;TUNE27   SUICIDE CHANNEL 1
   1232  da05		       0d 40 11 40*TSUIC      DC.B	$0D,$40,$11,$40,$F,$40,$12,$40
   1233  da0d		       11 40 14 40*	      DC.B	$11,$40,$14,$40,$12,$40,$15,$40
   1234  da15		       14 40 1c 40*	      DC.B	$14,$40,$1C,$40,$1A,$40,$1F,$40
   1235  da1d		       1c 40 2d 0b*	      DC.B	$1C,$40,$2D,$0B,$40,$24,$15,$40,$1A,$40
   1236  da27		       14 40 1c 40*	      DC.B	$14,$40,$1C,$40,$1A,$40,$1F,$40
   1237  da2f		       1c 40 2d 0b*	      DC.B	$1C,$40,$2D,$0B,$40,$15,$40,$1F,$40
   1238  da38		       14 40 ff 	      DC.B	$14,$40,$FF
   1239  da3b
   1240  da3b
   1241  da3b							;TUNE28   SUICIDE CHANNEL 2
   1242  da3b		       1c 1c 1c 1c*TSUIC2     DC.B	$1C,$1C,$1C,$1C,$12,$12,$12,$12
   1243  da43		       0d 0d 0d 0d*	      DC.B	$D,$D,$D,$D,$D,$D,$11,$11
   1244  da4b		       12 12 12 12*	      DC.B	$12,$12,$12,$12,$14,$14,$14,$14
   1245  da53		       17 17 17 17*	      DC.B	$17,$17,$17,$17,$18,$18,$18,$18
   1246  da5b		       17 17 17 17*	      DC.B	$17,$17,$17,$17,$14,$14,$14,$14
   1247  da63		       12 12 00 00*	      DC.B	$12,$12,0,0,$12,$12,0,0
   1248  da6b		       1c 1c		      DC.B	$1C,$1C
   1249  da6d		       ff		      DC.B	$FF
   1250  da6e
------- FILE GLOAD.ASM
------- FILE GDAC3.ASM LEVEL 2 PASS 2
      0  da6e					      include	"GDAC3.ASM"
      1  da6e					      processor	6502
      2  da6e							;GDAC3.S
      3  da6e							;
      4  da6e							;THE FOLLOWING TABLE GIVES SINGLE OR DOUBLE BIRTH INFORMATION
      5  da6e		       00 02 01 01*LOWPAIR    DC.B	0,2,1,1,1,1	;2,2,2,2,2
      6  da74		       02 02 02 02*HIGHPAIR   DC.B	2,2,2,2,2,2,2,1,1,1,1,2,2	;,2,2
      7  da81		       02 02 01 01*CHALPAIR   DC.B	2,2,1,1,1,1
      8  da87		       02 02 02 01*	      DC.B	2,2,2,1,1
      9  da8c		       01 02 02 01*	      DC.B	1,2,2,1,1
     10  da91		       02 01 01 02*	      DC.B	2,1,1,2,2
     11  da96		       01 01 01 01*	      DC.B	1,1,1,1,1
     12  da9b		       01 02 02 01*	      DC.B	1,2,2,1,1
     13  daa0		       01 01 01 01*	      DC.B	1,1,1,1,1
     14  daa5		       02 01 01 02	      DC.B	2,1,1,2	;		  ;LAST MEMBER IS @ LOCATION ZERO
     15  daa9
     16  daa9							;THE FOLLOWING TABLE INDEXED BY SHIPCNT GIVES THE SHIP NUMBER OF EACH SHIP
     17  daa9							;AS IT IS BORN.  NON-FORMATION SHIPS HOLD A SPECIAL CODE
     18  daa9		       26	   SHPNUTB    DC.B	38	;		       ;1
     19  daaa		       24		      DC.B	36	;		       ;
     20  daab		       27		      DC.B	39	;		       ;
     21  daac		       25		      DC.B	37	;		       ;
     22  daad		       21		      DC.B	33	;		       ;
     23  daae		       1f		      DC.B	31	;		       ;
     24  daaf		       22		      DC.B	34	;		       ;
     25  dab0		       20		      DC.B	32	;		       ;
     26  dab1		       ff		      DC.B	<NOTFOSH	;	       ;
     27  dab2		       ff		      DC.B	<NOTFOSH	;	       ;10
     28  dab3		       ff		      DC.B	<NOTFOSH	;	       ;
     29  dab4		       ff		      DC.B	<NOTFOSH	;	       ;
     30  dab5		       06		      DC.B	6	;			;
     31  dab6		       1d		      DC.B	29	;		       ;
     32  dab7		       1a		      DC.B	26	;		       ;
     33  dab8		       1e		      DC.B	30	;		       ;
     34  dab9		       23		      DC.B	35	;		       ;
     35  daba		       18		      DC.B	24	;		       ;
     36  dabb		       11		      DC.B	17	;		       ;
     37  dabc		       19		      DC.B	25	;		       ;20
     38  dabd		       ff		      DC.B	<NOTFOSH	;	       ;
     39  dabe		       ff		      DC.B	<NOTFOSH	;	       ;
     40  dabf		       ff		      DC.B	<NOTFOSH	;	       ;
     41  dac0		       ff		      DC.B	<NOTFOSH	;	       ;
     42  dac1		       0c		      DC.B	12	;		       ;
     43  dac2		       15		      DC.B	21	;		       ;
     44  dac3		       10		      DC.B	16	;		       ;
     45  dac4		       05		      DC.B	5	;			;
     46  dac5		       0b		      DC.B	11	;		       ;
     47  dac6		       14		      DC.B	20	;		       ;30
     48  dac7		       0f		      DC.B	15	;		       ;
     49  dac8		       04		      DC.B	4	;			;
     50  dac9		       ff		      DC.B	<NOTFOSH	;	       ;
     51  daca		       ff		      DC.B	<NOTFOSH	;	       ;
     52  dacb		       ff		      DC.B	<NOTFOSH	;	       ;
     53  dacc		       ff		      DC.B	<NOTFOSH	;	       ;
     54  dacd		       13		      DC.B	19	;		       ;
     55  dace		       1c		      DC.B	28	;		       ;
     56  dacf		       0e		      DC.B	14	;		       ;
     57  dad0		       17		      DC.B	23	;		       ;40
     58  dad1		       1b		      DC.B	27	;		       ;
     59  dad2		       12		      DC.B	18	;		       ;
     60  dad3		       16		      DC.B	22	;		       ;
     61  dad4		       0d		      DC.B	13	;		       ;
     62  dad5		       ff		      DC.B	<NOTFOSH	;	       ;
     63  dad6		       ff		      DC.B	<NOTFOSH	;	       ;
     64  dad7		       ff		      DC.B	<NOTFOSH	;	       ;
     65  dad8		       ff		      DC.B	<NOTFOSH	;	       ;
     66  dad9		       02		      DC.B	2	;			;
     67  dada		       09		      DC.B	9	;			;50
     68  dadb		       00		      DC.B	0	;			;
     69  dadc		       07		      DC.B	7	;			;
     70  dadd		       0a		      DC.B	10	;		       ;
     71  dade		       03		      DC.B	3	;			;
     72  dadf		       08		      DC.B	8	;			;
     73  dae0		       01		      DC.B	1	;			;
     74  dae1		       ff		      DC.B	<NOTFOSH	;	       ;
     75  dae2		       ff		      DC.B	<NOTFOSH	;	       ;
     76  dae3		       ff		      DC.B	<NOTFOSH	;	       ;
     77  dae4		       ff		      DC.B	<NOTFOSH	;	       ;60
     78  dae5		       01		      DC.B	1	;			;
     79  dae6
     80  dae6							;THIS TABLE GIVES THE INDEX INTO THE CHALTBL, LOWREGTBL, OR HIREGTBL
     81  dae6							;  ACCORDING TO THE SHIP"S SHIPCNT
     82  dae6		       00 02 00 02*SHIPINDX   DC.B	0,2,0,2,0,2,0,2,0,2,22,22
     83  daf2		       04 06 04 06*	      DC.B	4,6,4,6,4,6,4,6,4,6,22,22
     84  dafe		       08 0a 08 0a*	      DC.B	8,10,8,10,8,10,8,10,8,10,22,22
     85  db0a		       0c 0e 0c 0e*	      DC.B	12,14,12,14,12,14,12,14,12,14,22,22
     86  db16		       10 12 10 12*	      DC.B	16,18,16,18,16,18,16,18,18,16,22,22
     87  db22		       14		      DC.B	20
     88  db23
     89  db23							;THIS TABLE GIVES A CHALLENGING STAGE SEQUENCE
     90  db23		       33 db	   CHALTBL    DC.B	<RACK3,>RACK3
     91  db25		       4b db		      DC.B	<RACK7,>RACK7
     92  db27		       63 db		      DC.B	<RACK11,>RACK11
     93  db29		       7b db		      DC.B	<RACK15,>RACK15
     94  db2b		       93 db		      DC.B	<RACK19,>RACK19
     95  db2d		       ab db		      DC.B	<RACK23,>RACK23
     96  db2f		       c3 db		      DC.B	<RACK27,>RACK27
     97  db31		       db db		      DC.B	<RACK31,>RACK31
     98  db33
     99  db33		       7e dc	   RACK3      DC.B	<SHTY9,>SHTY9
    100  db35		       77 dc		      DC.B	<SHTY8,>SHTY8
    101  db37		       8c dc		      DC.B	<SHTY11,>SHTY11
    102  db39		       93 dc		      DC.B	<SHTY12,>SHTY12
    103  db3b		       9a dc		      DC.B	<SHTY13,>SHTY13
    104  db3d		       9a dc		      DC.B	<SHTY13,>SHTY13
    105  db3f		       77 dc		      DC.B	<SHTY8,>SHTY8
    106  db41		       77 dc		      DC.B	<SHTY8,>SHTY8
    107  db43		       85 dc		      DC.B	<SHTY10,>SHTY10
    108  db45		       85 dc		      DC.B	<SHTY10,>SHTY10
    109  db47		       46 dc		      DC.B	<SHTY1,>SHTY1
    110  db49		       45 dc		      DC.B	<SHTY0,>SHTY0
    111  db4b
    112  db4b		       bd dc	   RACK7      DC.B	<SHTY18,>SHTY18
    113  db4d		       c4 dc		      DC.B	<SHTY19,>SHTY19
    114  db4f		       cb dc		      DC.B	<SHTY20,>SHTY20
    115  db51		       d2 dc		      DC.B	<SHTY21,>SHTY21
    116  db53		       b2 dd		      DC.B	<SHTY53,>SHTY53
    117  db55		       d2 dc		      DC.B	<SHTY21,>SHTY21
    118  db57		       c4 dc		      DC.B	<SHTY19,>SHTY19
    119  db59		       c4 dc		      DC.B	<SHTY19,>SHTY19
    120  db5b		       bd dc		      DC.B	<SHTY18,>SHTY18
    121  db5d		       bd dc		      DC.B	<SHTY18,>SHTY18
    122  db5f		       46 dc		      DC.B	<SHTY1,>SHTY1
    123  db61		       45 dc		      DC.B	<SHTY0,>SHTY0
    124  db63
    125  db63		       d9 dc	   RACK11     DC.B	<SHTY22,>SHTY22
    126  db65		       e0 dc		      DC.B	<SHTY23,>SHTY23
    127  db67		       e7 dc		      DC.B	<SHTY24,>SHTY24
    128  db69		       ee dc		      DC.B	<SHTY25,>SHTY25
    129  db6b		       b9 dd		      DC.B	<SHTY54,>SHTY54
    130  db6d		       ee dc		      DC.B	<SHTY25,>SHTY25
    131  db6f		       d9 dc		      DC.B	<SHTY22,>SHTY22
    132  db71		       e0 dc		      DC.B	<SHTY23,>SHTY23
    133  db73		       f5 dc		      DC.B	<SHTY26,>SHTY26
    134  db75		       fc dc		      DC.B	<SHTY27,>SHTY27
    135  db77		       46 dc		      DC.B	<SHTY1,>SHTY1
    136  db79		       45 dc		      DC.B	<SHTY0,>SHTY0
    137  db7b
    138  db7b		       0a dd	   RACK15     DC.B	<SHTY29,>SHTY29
    139  db7d		       03 dd		      DC.B	<SHTY28,>SHTY28
    140  db7f		       11 dd		      DC.B	<SHTY30,>SHTY30
    141  db81		       9d dd		      DC.B	<SHTY50,>SHTY50
    142  db83		       18 dd		      DC.B	<SHTY31,>SHTY31
    143  db85		       a4 dd		      DC.B	<SHTY51,>SHTY51
    144  db87		       03 dd		      DC.B	<SHTY28,>SHTY28
    145  db89		       0a dd		      DC.B	<SHTY29,>SHTY29
    146  db8b		       1f dd		      DC.B	<SHTY32,>SHTY32
    147  db8d		       26 dd		      DC.B	<SHTY33,>SHTY33
    148  db8f		       46 dc		      DC.B	<SHTY1,>SHTY1
    149  db91		       45 dc		      DC.B	<SHTY0,>SHTY0
    150  db93
    151  db93		       2d dd	   RACK19     DC.B	<SHTY34,>SHTY34
    152  db95		       2d dd		      DC.B	<SHTY34,>SHTY34
    153  db97		       34 dd		      DC.B	<SHTY35,>SHTY35
    154  db99		       c0 dd		      DC.B	<SHTY55,>SHTY55
    155  db9b		       3b dd		      DC.B	<SHTY36,>SHTY36
    156  db9d		       3b dd		      DC.B	<SHTY36,>SHTY36
    157  db9f		       2d dd		      DC.B	<SHTY34,>SHTY34
    158  dba1		       2d dd		      DC.B	<SHTY34,>SHTY34
    159  dba3		       42 dd		      DC.B	<SHTY37,>SHTY37
    160  dba5		       42 dd		      DC.B	<SHTY37,>SHTY37
    161  dba7		       46 dc		      DC.B	<SHTY1,>SHTY1
    162  dba9		       45 dc		      DC.B	<SHTY0,>SHTY0
    163  dbab
    164  dbab		       49 dd	   RACK23     DC.B	<SHTY38,>SHTY38
    165  dbad		       49 dd		      DC.B	<SHTY38,>SHTY38
    166  dbaf		       50 dd		      DC.B	<SHTY39,>SHTY39
    167  dbb1		       57 dd		      DC.B	<SHTY40,>SHTY40
    168  dbb3		       c7 dd		      DC.B	<SHTY56,>SHTY56
    169  dbb5		       57 dd		      DC.B	<SHTY40,>SHTY40
    170  dbb7		       5e dd		      DC.B	<SHTY41,>SHTY41
    171  dbb9		       5e dd		      DC.B	<SHTY41,>SHTY41
    172  dbbb		       49 dd		      DC.B	<SHTY38,>SHTY38
    173  dbbd		       49 dd		      DC.B	<SHTY38,>SHTY38
    174  dbbf		       46 dc		      DC.B	<SHTY1,>SHTY1
    175  dbc1		       45 dc		      DC.B	<SHTY0,>SHTY0
    176  dbc3
    177  dbc3		       65 dd	   RACK27     DC.B	<SHTY42,>SHTY42
    178  dbc5		       65 dd		      DC.B	<SHTY42,>SHTY42
    179  dbc7		       6c dd		      DC.B	<SHTY43,>SHTY43
    180  dbc9		       ce dd		      DC.B	<SHTY57,>SHTY57
    181  dbcb		       73 dd		      DC.B	<SHTY44,>SHTY44
    182  dbcd		       73 dd		      DC.B	<SHTY44,>SHTY44
    183  dbcf		       7a dd		      DC.B	<SHTY45,>SHTY45
    184  dbd1		       7a dd		      DC.B	<SHTY45,>SHTY45
    185  dbd3		       65 dd		      DC.B	<SHTY42,>SHTY42
    186  dbd5		       65 dd		      DC.B	<SHTY42,>SHTY42
    187  dbd7		       46 dc		      DC.B	<SHTY1,>SHTY1
    188  dbd9		       45 dc		      DC.B	<SHTY0,>SHTY0
    189  dbdb
    190  dbdb		       81 dd	   RACK31     DC.B	<SHTY46,>SHTY46
    191  dbdd		       88 dd		      DC.B	<SHTY47,>SHTY47
    192  dbdf		       d5 dd		      DC.B	<SHTY58,>SHTY58
    193  dbe1		       8f dd		      DC.B	<SHTY48,>SHTY48
    194  dbe3		       96 dd		      DC.B	<SHTY49,>SHTY49
    195  dbe5		       96 dd		      DC.B	<SHTY49,>SHTY49
    196  dbe7		       81 dd		      DC.B	<SHTY46,>SHTY46
    197  dbe9		       88 dd		      DC.B	<SHTY47,>SHTY47
    198  dbeb		       81 dd		      DC.B	<SHTY46,>SHTY46
    199  dbed		       88 dd		      DC.B	<SHTY47,>SHTY47
    200  dbef		       46 dc		      DC.B	<SHTY1,>SHTY1
    201  dbf1		       45 dc		      DC.B	<SHTY0,>SHTY0
    202  dbf3
    203  dbf3		       fd db	   LOWREGTB   DC.B	<RACK1,>RACK1
    204  dbf5		       15 dc		      DC.B	<RACK2,>RACK2
    205  dbf7
    206  dbf7		       2d dc	   HIREGTB    DC.B	<RACK4,>RACK4
    207  dbf9		       15 dc		      DC.B	<RACK5,>RACK5
    208  dbfb		       fd db		      DC.B	<RACK6,>RACK6
    209  dbfd
    210  dbfd				   RACK6
    211  dbfd		       54 dc	   RACK1      DC.B	<SHTY3,>SHTY3
    212  dbff		       4d dc		      DC.B	<SHTY2,>SHTY2
    213  dc01		       62 dc		      DC.B	<SHTY5,>SHTY5
    214  dc03		       69 dc		      DC.B	<SHTY6,>SHTY6
    215  dc05		       70 dc		      DC.B	<SHTY7,>SHTY7
    216  dc07		       70 dc		      DC.B	<SHTY7,>SHTY7
    217  dc09		       4d dc		      DC.B	<SHTY2,>SHTY2
    218  dc0b		       4d dc		      DC.B	<SHTY2,>SHTY2
    219  dc0d		       5b dc		      DC.B	<SHTY4,>SHTY4
    220  dc0f		       5b dc		      DC.B	<SHTY4,>SHTY4
    221  dc11		       46 dc		      DC.B	<SHTY1,>SHTY1
    222  dc13		       45 dc		      DC.B	<SHTY0,>SHTY0
    223  dc15
    224  dc15				   RACK5
    225  dc15		       54 dc	   RACK2      DC.B	<SHTY3,>SHTY3
    226  dc17		       4d dc		      DC.B	<SHTY2,>SHTY2
    227  dc19		       a1 dc		      DC.B	<SHTY14,>SHTY14
    228  dc1b		       69 dc		      DC.B	<SHTY6,>SHTY6
    229  dc1d		       a8 dc		      DC.B	<SHTY15,>SHTY15
    230  dc1f		       70 dc		      DC.B	<SHTY7,>SHTY7
    231  dc21		       4d dc		      DC.B	<SHTY2,>SHTY2
    232  dc23		       af dc		      DC.B	<SHTY16,>SHTY16
    233  dc25		       b6 dc		      DC.B	<SHTY17,>SHTY17
    234  dc27		       5b dc		      DC.B	<SHTY4,>SHTY4
    235  dc29		       46 dc		      DC.B	<SHTY1,>SHTY1
    236  dc2b		       45 dc		      DC.B	<SHTY0,>SHTY0
    237  dc2d
    238  dc2d		       54 dc	   RACK4      DC.B	<SHTY3,>SHTY3
    239  dc2f		       4d dc		      DC.B	<SHTY2,>SHTY2
    240  dc31		       62 dc		      DC.B	<SHTY5,>SHTY5
    241  dc33		       70 dc		      DC.B	<SHTY7,>SHTY7
    242  dc35		       69 dc		      DC.B	<SHTY6,>SHTY6
    243  dc37		       70 dc		      DC.B	<SHTY7,>SHTY7
    244  dc39		       4d dc		      DC.B	<SHTY2,>SHTY2
    245  dc3b		       5b dc		      DC.B	<SHTY4,>SHTY4
    246  dc3d		       4d dc		      DC.B	<SHTY2,>SHTY2
    247  dc3f		       5b dc		      DC.B	<SHTY4,>SHTY4
    248  dc41		       46 dc		      DC.B	<SHTY1,>SHTY1
    249  dc43		       45 dc		      DC.B	<SHTY0,>SHTY0
    250  dc45							;
    251  dc45							;THE FOLLOWING ARE THE DEFINITIONS OF THE SHIP TYPES
    252  dc45							;
    253  dc45		       00	   SHTY0      DC.B	$00	;		      ;SHIP TYPE  (DOESN"T EXIST)
    254  dc46							;
    255  dc46		       06	   SHTY1      DC.B	$06	;		      ;SHIP TYPE  (INVISO)
    256  dc47		       48		      DC.B	72	;		       ;BEGINNING X POS  (TOP)
    257  dc48		       fa		      DC.B	$FA	;		      ;BEGINNING Y POS
    258  dc49		       04		      DC.B	$04	;		      ;BEGINNING ORIENTATION
    259  dc4a		       dc		      DC.B	<MOTION1	;	       ;MOTION TBL PTR LOW
    260  dc4b		       dd		      DC.B	>MOTION1	;	       ;MOTION TBL PTR HIGH
    261  dc4c		       c0		      DC.B	$C0	;		      ;MODE BYTE  (INV)
    262  dc4d							;
    263  dc4d		       01	   SHTY2      DC.B	$01	;		      ;SHIP TYPE  (BLUE)
    264  dc4e		       58		      DC.B	88	;		       ;BEGINNING X POS  (TOP)
    265  dc4f		       fa		      DC.B	$FA	;		      ;BEGINNING Y POS
    266  dc50		       04		      DC.B	$04	;		      ;BEGINNING ORIENTATION
    267  dc51		       dc		      DC.B	<MOTION1	;	       ;MOTION TBL PTR LOW
    268  dc52		       dd		      DC.B	>MOTION1	;	       ;MOTION TBL PTR HIGH
    269  dc53		       80		      DC.B	$80	;		      ;MODE BYTE  (NORMAL)
    270  dc54							;
    271  dc54		       02	   SHTY3      DC.B	$02	;		      ;SHIP TYPE  (RED)
    272  dc55		       48		      DC.B	72	;		       ;BEGINNING X POS  (TOP)
    273  dc56		       fa		      DC.B	$FA	;		      ;BEGINNING Y POS
    274  dc57		       04		      DC.B	$04	;		      ;BEGINNING ORIENTATION
    275  dc58		       dc		      DC.B	<MOTION1	;	       ;MOTION TBL PTR LOW
    276  dc59		       dd		      DC.B	>MOTION1	;	       ;MOTION TBL PTR HIGH
    277  dc5a		       c0		      DC.B	$C0	;		      ;MODE BYTE  (INV)
    278  dc5b							;
    279  dc5b		       01	   SHTY4      DC.B	$01	;		      ;SHIP TYPE  (BLUE)
    280  dc5c		       48		      DC.B	72	;		       ;BEGINNING X POS  (TOP)
    281  dc5d		       fa		      DC.B	$FA	;		      ;BEGINNING Y POS
    282  dc5e		       04		      DC.B	$04	;		      ;BEGINNING ORIENTATION
    283  dc5f		       dc		      DC.B	<MOTION1	;	       ;MOTION TBL PTR LOW
    284  dc60		       dd		      DC.B	>MOTION1	;	       ;MOTION TBL PTR HIGH
    285  dc61		       c0		      DC.B	$C0	;		      ;MODE BYTE  (INV)
    286  dc62							;
    287  dc62		       03	   SHTY5      DC.B	$03	;		      ;SHIP TYPE  (BIG)
    288  dc63		       f8		      DC.B	$F8	;;		  ;BEGINNING X POS  (SIDE)
    289  dc64		       a0		      DC.B	160	;		      ;BEGINNING Y POS
    290  dc65		       01		      DC.B	$01	;		      ;BEGINNING ORIENTATION
    291  dc66		       4a		      DC.B	<MOTION2	;	       ;MOTION TBL PTR LOW
    292  dc67		       de		      DC.B	>MOTION2	;	       ;MOTION TBL PTR HIGH
    293  dc68		       80		      DC.B	$80	;		      ;MODE BYTE  (NORMAL)
    294  dc69							;
    295  dc69		       02	   SHTY6      DC.B	$02	;		      ;SHIP TYPE  (RED)
    296  dc6a		       f8		      DC.B	$F8	;;		   ;BEGINNING X POS  (SIDE)
    297  dc6b		       a0		      DC.B	160	;		      ;BEGINNING Y POS
    298  dc6c		       01		      DC.B	$01	;		      ;BEGINNING ORIENTATION
    299  dc6d		       4a		      DC.B	<MOTION2	;	       ;MOTION TBL PTR LOW
    300  dc6e		       de		      DC.B	>MOTION2	;	       ;MOTION TBL PTR HIGH
    301  dc6f		       80		      DC.B	$80	;		      ;MODE BYTE  (NORMAL)
    302  dc70							;
    303  dc70		       02	   SHTY7      DC.B	$02	;		      ;SHIP TYPE  (RED)
    304  dc71		       9f		      DC.B	159	;		      ;BEGINNING X POS	(SIDE)
    305  dc72		       a0		      DC.B	160	;		      ;BEGINNING Y POS
    306  dc73		       07		      DC.B	$07	;		      ;BEGINNING ORIENTATION
    307  dc74		       4a		      DC.B	<MOTION2	;	       ;MOTION TBL PTR LOW
    308  dc75		       de		      DC.B	>MOTION2	;	       ;MOTION TBL PTR HIGH
    309  dc76		       c0		      DC.B	$C0	;		      ;MODE BYTE  (INV)
    310  dc77							;
    311  dc77		       01	   SHTY8      DC.B	$01	;		      ;SHIP TYPE  (BLUE)
    312  dc78		       58		      DC.B	88	;		       ;BEGINNING X POS  (TOP)
    313  dc79		       fa		      DC.B	$FA	;		      ;BEGINNING Y POS
    314  dc7a		       04		      DC.B	$04	;		      ;BEGINNING ORIENTATION
    315  dc7b		       b9		      DC.B	<CHRACK3A	;	      ;MOTION TBL PTR LOW
    316  dc7c		       b9		      DC.B	>CHRACK3A	;	      ;MOTION TBL PTR HIGH
    317  dc7d		       89		      DC.B	$89	;		      ;MODE BYTE  (NORMAL)
    318  dc7e							;
    319  dc7e		       02	   SHTY9      DC.B	$02	;		      ;SHIP TYPE  (RED)
    320  dc7f		       48		      DC.B	72	;		       ;BEGINNING X POS  (TOP)
    321  dc80		       fa		      DC.B	$FA	;		      ;BEGINNING Y POS
    322  dc81		       04		      DC.B	$04	;		      ;BEGINNING ORIENTATION
    323  dc82		       b9		      DC.B	<CHRACK3A	;	      ;MOTION TBL PTR LOW
    324  dc83		       b9		      DC.B	>CHRACK3A	;	      ;MOTION TBL PTR HIGH
    325  dc84		       c9		      DC.B	$C9	;		      ;MODE BYTE  (INV)
    326  dc85							;
    327  dc85		       01	   SHTY10     DC.B	$01	;		      ;SHIP TYPE  (BLUE)
    328  dc86		       48		      DC.B	72	;		       ;BEGINNING X POS  (TOP)
    329  dc87		       fa		      DC.B	$FA	;		      ;BEGINNING Y POS
    330  dc88		       04		      DC.B	$04	;		      ;BEGINNING ORIENTATION
    331  dc89		       b9		      DC.B	<CHRACK3A	;	      ;MOTION TBL PTR LOW
    332  dc8a		       b9		      DC.B	>CHRACK3A	;	      ;MOTION TBL PTR HIGH
    333  dc8b		       c9		      DC.B	$C9	;		      ;MODE BYTE  (INV)
    334  dc8c							;
    335  dc8c		       03	   SHTY11     DC.B	$03	;		      ;SHIP TYPE  (BIG)
    336  dc8d		       f8		      DC.B	$F8	;;		  ;BEGINNING X POS  (SIDE)
    337  dc8e		       a0		      DC.B	160	;		      ;BEGINNING Y POS
    338  dc8f		       02		      DC.B	$02	;		      ;BEGINNING ORIENTATION
    339  dc90		       58		      DC.B	<CHRACK3B	;	      ;MOTION TBL PTR LOW
    340  dc91		       ba		      DC.B	>CHRACK3B	;	      ;MOTION TBL PTR HIGH
    341  dc92		       c9		      DC.B	$C9	;		      ;MODE BYTE  (INV)
    342  dc93							;
    343  dc93		       02	   SHTY12     DC.B	$02	;		      ;SHIP TYPE  (RED)
    344  dc94		       f8		      DC.B	$F8	;;		    ;BEGINNING X POS  (SIDE)
    345  dc95		       a0		      DC.B	160	;		      ;BEGINNING Y POS
    346  dc96		       02		      DC.B	$02	;		      ;BEGINNING ORIENTATION
    347  dc97		       58		      DC.B	<CHRACK3B	;	      ;MOTION TBL PTR LOW
    348  dc98		       ba		      DC.B	>CHRACK3B	;	      ;MOTION TBL PTR HIGH
    349  dc99		       c9		      DC.B	$C9	;		      ;MODE BYTE  (INV)
    350  dc9a							;
    351  dc9a		       02	   SHTY13     DC.B	$02	;		      ;SHIP TYPE  (RED)
    352  dc9b		       a0		      DC.B	160	;		      ;BEGINNING X POS	(SIDE)
    353  dc9c		       a0		      DC.B	160	;		      ;BEGINNING Y POS
    354  dc9d		       06		      DC.B	$06	;		      ;BEGINNING ORIENTATION
    355  dc9e		       58		      DC.B	<CHRACK3B	;	      ;MOTION TBL PTR LOW
    356  dc9f		       ba		      DC.B	>CHRACK3B	;	      ;MOTION TBL PTR HIGH
    357  dca0		       89		      DC.B	$89	;		      ;MODE BYTE  (NORMAL)
    358  dca1							;
    359  dca1		       03	   SHTY14     DC.B	$03	;		      ;SHIP TYPE  (BIG)
    360  dca2		       f8		      DC.B	$F8	;		      ;BEGINNING X POS	(SIDE)
    361  dca3		       94		      DC.B	148	;		      ;BEGINNING Y POS
    362  dca4		       01		      DC.B	$01	;		      ;BEGINNING ORIENTATION
    363  dca5		       4a		      DC.B	<MOTION2	;	       ;MOTION TBL PTR LOW
    364  dca6		       de		      DC.B	>MOTION2	;	       ;MOTION TBL PTR HIGH
    365  dca7		       80		      DC.B	$80	;		      ;MODE BYTE  (NORMAL)
    366  dca8							;
    367  dca8		       02	   SHTY15     DC.B	$02	;		      ;SHIP TYPE  (RED)
    368  dca9		       9f		      DC.B	159	;		      ;BEGINNING X POS	(SIDE)
    369  dcaa		       94		      DC.B	148	;		      ;BEGINNING Y POS
    370  dcab		       07		      DC.B	$07	;		      ;BEGINNING ORIENTATION
    371  dcac		       4a		      DC.B	<MOTION2	;	       ;MOTION TBL PTR LOW
    372  dcad		       de		      DC.B	>MOTION2	;	       ;MOTION TBL PTR HIGH
    373  dcae		       c0		      DC.B	$C0	;		      ;MODE BYTE  (INV)
    374  dcaf							;
    375  dcaf		       01	   SHTY16     DC.B	$01	;		      ;SHIP TYPE  (BLUE)
    376  dcb0		       4e		      DC.B	78	;		       ;BEGINNING X POS  (TOP)
    377  dcb1		       fa		      DC.B	$FA	;		      ;BEGINNING Y POS
    378  dcb2		       04		      DC.B	$04	;		      ;BEGINNING ORIENTATION
    379  dcb3		       dc		      DC.B	<MOTION1	;	       ;MOTION TBL PTR LOW
    380  dcb4		       dd		      DC.B	>MOTION1	;	       ;MOTION TBL PTR HIGH
    381  dcb5		       80		      DC.B	$80	;		      ;MODE BYTE  (NORMAL)
    382  dcb6							;
    383  dcb6		       01	   SHTY17     DC.B	$01	;		      ;SHIP TYPE  (BLUE)
    384  dcb7		       52		      DC.B	82	;		       ;BEGINNING X POS  (TOP)
    385  dcb8		       fa		      DC.B	$FA	;		      ;BEGINNING Y POS
    386  dcb9		       04		      DC.B	$04	;		      ;BEGINNING ORIENTATION
    387  dcba		       dc		      DC.B	<MOTION1	;	       ;MOTION TBL PTR LOW
    388  dcbb		       dd		      DC.B	>MOTION1	;	       ;MOTION TBL PTR HIGH
    389  dcbc		       c0		      DC.B	$C0	;		      ;MODE BYTE  (INV)
    390  dcbd							;
    391  dcbd		       01	   SHTY18     DC.B	$01	;		      ;SHIP TYPE  (BLUE)
    392  dcbe		       48		      DC.B	72	;		       ;BEGINNING X POS  (TOP)
    393  dcbf		       fa		      DC.B	$FA	;		      ;BEGINNING Y POS
    394  dcc0		       04		      DC.B	4	;			;BEGINNING ORIENTATION
    395  dcc1		       8d		      DC.B	<CHRACK7A	;	      ;MOTION TBL PTR LOW
    396  dcc2		       bb		      DC.B	>CHRACK7A	;	      ;MOTION TBL PTR HIGH
    397  dcc3		       89		      DC.B	$89	;		      ;MODE BYTE  (NORMAL)
    398  dcc4							;
    399  dcc4		       02	   SHTY19     DC.B	$02	;		      ;SHIP TYPE  (RED)
    400  dcc5		       58		      DC.B	88	;		       ;BEGINNING X POS  (TOP)
    401  dcc6		       fa		      DC.B	$FA	;		      ;BEGINNING Y POS
    402  dcc7		       04		      DC.B	4	;			;BEGINNING ORIENTATION
    403  dcc8		       8d		      DC.B	<CHRACK7A	;	      ;MOTION TBL PTR LOW
    404  dcc9		       bb		      DC.B	>CHRACK7A	;	      ;MOTION TBL PTR HIGH
    405  dcca		       c9		      DC.B	$C9	;		      ;MODE BYTE  (INV)
    406  dccb							;
    407  dccb		       03	   SHTY20     DC.B	3	;			;SHIP TYPE  (BOS)
    408  dccc		       f8		      DC.B	$F8	;		      ;BEGINNING X POS	(TOP)
    409  dccd		       a0		      DC.B	160	;		      ;BEGINNING Y POS
    410  dcce		       02		      DC.B	2	;			;BEGINNING ORIENTATION
    411  dccf		       e8		      DC.B	<CHRACK7B	;	      ;MOTION TBL PTR LOW
    412  dcd0		       ba		      DC.B	>CHRACK7B	;	      ;MOTION TBL PTR HIGH
    413  dcd1		       89		      DC.B	$89	;		      ;MODE BYTE  (NORMAL)
    414  dcd2							;
    415  dcd2		       02	   SHTY21     DC.B	$02	;		      ;SHIP TYPE  (RED)
    416  dcd3		       9f		      DC.B	159	;		      ;BEGINNING X POS	(TOP)
    417  dcd4		       a0		      DC.B	160	;		      ;BEGINNING Y POS
    418  dcd5		       06		      DC.B	6	;			;BEGINNING ORIENTATION
    419  dcd6		       e8		      DC.B	<CHRACK7B	;	      ;MOTION TBL PTR LOW
    420  dcd7		       ba		      DC.B	>CHRACK7B	;	      ;MOTION TBL PTR HIGH
    421  dcd8		       c9		      DC.B	$C9	;		      ;MODE BYTE  (INV)
    422  dcd9
    423  dcd9		       02	   SHTY22     DC.B	$02	;		      ;SHIP TYPE  (RED)
    424  dcda		       46		      DC.B	70	;		       ;BEGINNING X POS  (TOP)
    425  dcdb		       fa		      DC.B	$FA	;		      ;BEGINNING Y POS
    426  dcdc		       04		      DC.B	4	;			;BEGINNING ORIENTATION
    427  dcdd		       8d		      DC.B	<CHRACK7A	;	      ;MOTION TBL PTR LOW
    428  dcde		       bb		      DC.B	>CHRACK7A	;	      ;MOTION TBL PTR HIGH
    429  dcdf		       c9		      DC.B	$C9	;		      ;MODE BYTE  (INV)
    430  dce0
    431  dce0		       01	   SHTY23     DC.B	$01	;		      ;SHIP TYPE  (BLUE)
    432  dce1		       46		      DC.B	70	;		       ;BEGINNING X POS  (TOP)
    433  dce2		       fa		      DC.B	$FA	;		      ;BEGINNING Y POS
    434  dce3		       04		      DC.B	4	;			;BEGINNING ORIENTATION
    435  dce4		       8d		      DC.B	<CHRACK7A	;	      ;MOTION TBL PTR LOW
    436  dce5		       bb		      DC.B	>CHRACK7A	;	      ;MOTION TBL PTR HIGH
    437  dce6		       89		      DC.B	$89	;		      ;MODE BYTE  (NORMAL)
    438  dce7
    439  dce7		       03	   SHTY24     DC.B	$03	;		      ;SHIP TYPE  (BOSS)
    440  dce8		       f8		      DC.B	$F8	;		      ;BEGINNING X POS
    441  dce9		       a0		      DC.B	160	;		      ;BEGINNING Y POS
    442  dcea		       02		      DC.B	2	;			;BEGINNING ORIENTATION
    443  dceb		       c4		      DC.B	<CHRCK11B	;	      ;MOTION TBL PTR LOW
    444  dcec		       bb		      DC.B	>CHRCK11B	;	      ;MOTION TBL PTR HIGH
    445  dced		       89		      DC.B	$89	;		      ;MODE BYTE  (NORMAL)
    446  dcee
    447  dcee		       02	   SHTY25     DC.B	$02	;		      ;SHIP TYPE  (RED)
    448  dcef		       a2		      DC.B	162	;		      ;BEGINNING X POS
    449  dcf0		       a0		      DC.B	160	;		      ;BEGINNING Y POS
    450  dcf1		       06		      DC.B	6	;			;BEGINNING ORIENTATION
    451  dcf2		       c4		      DC.B	<CHRCK11B	;	      ;MOTION TBL PTR LOW
    452  dcf3		       bb		      DC.B	>CHRCK11B	;	      ;MOTION TBL PTR HIGH
    453  dcf4		       c9		      DC.B	$C9	;		      ;MODE BYTE  (INV)
    454  dcf5
    455  dcf5		       02	   SHTY26     DC.B	$02	;		      ;SHIP TYPE  (RED)
    456  dcf6		       5a		      DC.B	90	;		       ;BEGINNING X POS  (TOP)
    457  dcf7		       fa		      DC.B	$FA	;		      ;BEGINNING Y POS
    458  dcf8		       04		      DC.B	4	;			;BEGINNING ORIENTATION
    459  dcf9		       8d		      DC.B	<CHRACK7A	;	      ;MOTION TBL PTR LOW
    460  dcfa		       bb		      DC.B	>CHRACK7A	;	      ;MOTION TBL PTR HIGH
    461  dcfb		       c9		      DC.B	$C9	;		      ;MODE BYTE  (INV)
    462  dcfc
    463  dcfc		       01	   SHTY27     DC.B	$01	;		      ;SHIP TYPE  (BLUE)
    464  dcfd		       5a		      DC.B	90	;		       ;BEGINNING X POS  (TOP)
    465  dcfe		       fa		      DC.B	$FA	;		      ;BEGINNING Y POS
    466  dcff		       04		      DC.B	4	;			;BEGINNING ORIENTATION
    467  dd00		       8d		      DC.B	<CHRACK7A	;	      ;MOTION TBL PTR LOW
    468  dd01		       bb		      DC.B	>CHRACK7A	;	      ;MOTION TBL PTR HIGH
    469  dd02		       89		      DC.B	$89	;		      ;MODE BYTE  (NORMAL)
    470  dd03
    471  dd03		       02	   SHTY28     DC.B	$02	;		      ;SHIP TYPE  (RED)
    472  dd04		       46		      DC.B	70	;		       ;BEGINNING X POS  (TOP)
    473  dd05		       fa		      DC.B	$FA	;		      ;BEGINNING Y POS
    474  dd06		       04		      DC.B	4	;			;BEGINNING ORIENTATION
    475  dd07		       1b		      DC.B	<CHRCK15A	;	      ;MOTION TBL PTR LOW
    476  dd08		       bc		      DC.B	>CHRCK15A	;	      ;MOTION TBL PTR HIGH
    477  dd09		       c9		      DC.B	$C9	;		      ;MODE BYTE  (INV)
    478  dd0a
    479  dd0a		       0d	   SHTY29     DC.B	13	;		      ;SHIP TYPE  (SCORPION)
    480  dd0b		       46		      DC.B	70	;		       ;BEGINNING X POS  (TOP)
    481  dd0c		       fa		      DC.B	$FA	;		      ;BEGINNING Y POS
    482  dd0d		       04		      DC.B	4	;			;BEGINNING ORIENTATION
    483  dd0e		       1b		      DC.B	<CHRCK15A	;	      ;MOTION TBL PTR LOW
    484  dd0f		       bc		      DC.B	>CHRCK15A	;	      ;MOTION TBL PTR HIGH
    485  dd10		       89		      DC.B	$89	;		      ;MODE BYTE  (NORMAL)
    486  dd11
    487  dd11		       03	   SHTY30     DC.B	$03	;		      ;SHIP TYPE  (BOSS)
    488  dd12		       f8		      DC.B	$F8	;		      ;BEGINNING X POS
    489  dd13		       a0		      DC.B	160	;		      ;BEGINNING Y POS
    490  dd14		       01		      DC.B	1	;			;BEGINNING ORIENTATION
    491  dd15		       bb		      DC.B	<CHRCK15B	;	      ;MOTION TBL PTR LOW
    492  dd16		       bc		      DC.B	>CHRCK15B	;	      ;MOTION TBL PTR HIGH
    493  dd17		       89		      DC.B	$89	;		      ;MODE BYTE  (NORMAL)
    494  dd18
    495  dd18		       32	   SHTY31     DC.B	50	;		       ;SHIP TYPE  (NEWBIRD)
    496  dd19		       a0		      DC.B	160	;		      ;BEGINNING X POS
    497  dd1a		       a0		      DC.B	160	;		      ;BEGINNING Y POS
    498  dd1b		       07		      DC.B	7	;			;BEGINNING ORIENTATION
    499  dd1c		       bb		      DC.B	<CHRCK15B	;	      ;MOTION TBL PTR LOW
    500  dd1d		       bc		      DC.B	>CHRCK15B	;	      ;MOTION TBL PTR HIGH
    501  dd1e		       c9		      DC.B	$C9	;		      ;MODE BYTE  (INV)
    502  dd1f
    503  dd1f		       0d	   SHTY32     DC.B	13	;		       ;SHIP TYPE  (RED)
    504  dd20		       5c		      DC.B	92	;		       ;BEGINNING X POS  (TOP)
    505  dd21		       fa		      DC.B	$FA	;		      ;BEGINNING Y POS
    506  dd22		       04		      DC.B	4	;			;BEGINNING ORIENTATION
    507  dd23		       1b		      DC.B	<CHRCK15A	;	      ;MOTION TBL PTR LOW
    508  dd24		       bc		      DC.B	>CHRCK15A	;	      ;MOTION TBL PTR HIGH
    509  dd25		       c9		      DC.B	$C9	;		      ;MODE BYTE  (INV)
    510  dd26
    511  dd26		       01	   SHTY33     DC.B	$01	;		      ;SHIP TYPE  (BLUE)
    512  dd27		       5c		      DC.B	92	;		       ;BEGINNING X POS  (TOP)
    513  dd28		       fa		      DC.B	$FA	;		      ;BEGINNING Y POS
    514  dd29		       04		      DC.B	4	;			;BEGINNING ORIENTATION
    515  dd2a		       1b		      DC.B	<CHRCK15A	;	      ;MOTION TBL PTR LOW
    516  dd2b		       bc		      DC.B	>CHRCK15A	;	      ;MOTION TBL PTR HIGH
    517  dd2c		       89		      DC.B	$89	;		      ;MODE BYTE  (NORMAL)
    518  dd2d
    519  dd2d		       32	   SHTY34     DC.B	50	;		       ;SHIP TYPE  (NEWBIRD)
    520  dd2e		       5a		      DC.B	90	;		       ;BEGINNING X POS  (TOP)
    521  dd2f		       fa		      DC.B	$FA	;		      ;BEGINNING Y POS
    522  dd30		       05		      DC.B	5	;			;BEGINNING ORIENTATION
    523  dd31		       b2		      DC.B	<CHRCK19A	;	      ;MOTION TBL PTR LOW
    524  dd32		       bd		      DC.B	>CHRCK19A	;	      ;MOTION TBL PTR HIGH
    525  dd33		       89		      DC.B	$89	;		      ;MODE BYTE  (NORMAL)
    526  dd34
    527  dd34		       02	   SHTY35     DC.B	$02	;		      ;SHIP TYPE  (RED)
    528  dd35		       f8		      DC.B	$F8	;		      ;BEGINNING X POS
    529  dd36		       8c		      DC.B	140	;		      ;BEGINNING Y POS
    530  dd37		       02		      DC.B	2	;			;BEGINNING ORIENTATION
    531  dd38		       0b		      DC.B	<CHRCK19B	;	      ;MOTION TBL PTR LOW
    532  dd39		       be		      DC.B	>CHRCK19B	;	      ;MOTION TBL PTR HIGH
    533  dd3a		       89		      DC.B	$89	;		      ;MODE BYTE  (NORMAL)
    534  dd3b
    535  dd3b		       01	   SHTY36     DC.B	$01	;		      ;SHIP TYPE  (BLUE)
    536  dd3c		       a0		      DC.B	160	;		      ;BEGINNING X POS
    537  dd3d		       8c		      DC.B	140	;		      ;BEGINNING Y POS
    538  dd3e		       06		      DC.B	6	;			;BEGINNING ORIENTATION
    539  dd3f		       0b		      DC.B	<CHRCK19B	;	      ;MOTION TBL PTR LOW
    540  dd40		       be		      DC.B	>CHRCK19B	;	      ;MOTION TBL PTR HIGH
    541  dd41		       c9		      DC.B	$C9	;		      ;MODE BYTE  (INV)
    542  dd42
    543  dd42		       02	   SHTY37     DC.B	$02	;		      ;SHIP TYPE  (RED)
    544  dd43		       46		      DC.B	70	;		       ;BEGINNING X POS  (TOP)
    545  dd44		       fa		      DC.B	$FA	;		      ;BEGINNING Y POS
    546  dd45		       03		      DC.B	3	;			;BEGINNING ORIENTATION
    547  dd46		       b2		      DC.B	<CHRCK19A	;	      ;MOTION TBL PTR LOW
    548  dd47		       bd		      DC.B	>CHRCK19A	;	      ;MOTION TBL PTR HIGH
    549  dd48		       c9		      DC.B	$C9	;		      ;MODE BYTE  (INV)
    550  dd49
    551  dd49		       01	   SHTY38     DC.B	$01	;		      ;SHIP TYPE  (BLUE)
    552  dd4a		       4c		      DC.B	76	;		       ;BEGINNING X POS  (TOP)
    553  dd4b		       fa		      DC.B	$FA	;		      ;BEGINNING Y POS
    554  dd4c		       04		      DC.B	4	;			;BEGINNING ORIENTATION
    555  dd4d		       7a		      DC.B	<CHRCK23A	;	      ;MOTION TBL PTR LOW
    556  dd4e		       be		      DC.B	>CHRCK23A	;	      ;MOTION TBL PTR HIGH
    557  dd4f		       89		      DC.B	$89	;		      ;MODE BYTE  (NORMAL)
    558  dd50
    559  dd50		       03	   SHTY39     DC.B	$03	;		      ;SHIP TYPE  (BOSS)
    560  dd51		       f8		      DC.B	$F8	;		      ;BEGINNING X POS
    561  dd52		       a0		      DC.B	160	;		      ;BEGINNING Y POS
    562  dd53		       02		      DC.B	2	;			;BEGINNING ORIENTATION
    563  dd54		       99		      DC.B	<CHRCK23B	;	      ;MOTION TBL PTR LOW
    564  dd55		       be		      DC.B	>CHRCK23B	;	      ;MOTION TBL PTR HIGH
    565  dd56		       89		      DC.B	$89	;		      ;MODE BYTE  (NORMAL)
    566  dd57
    567  dd57		       01	   SHTY40     DC.B	$01	;		      ;SHIP TYPE  (BLUE)
    568  dd58		       a0		      DC.B	160	;		      ;BEGINNING X POS
    569  dd59		       a0		      DC.B	160	;		      ;BEGINNING Y POS
    570  dd5a		       06		      DC.B	6	;			;BEGINNING ORIENTATION
    571  dd5b		       99		      DC.B	<CHRCK23B	;	      ;MOTION TBL PTR LOW
    572  dd5c		       be		      DC.B	>CHRCK23B	;	      ;MOTION TBL PTR HIGH
    573  dd5d		       c9		      DC.B	$C9	;		      ;MODE BYTE  (INV)
    574  dd5e
    575  dd5e		       02	   SHTY41     DC.B	$02	;		      ;SHIP TYPE  (RED)
    576  dd5f		       54		      DC.B	84	;		       ;BEGINNING X POS
    577  dd60		       fa		      DC.B	$FA	;		      ;BEGINNING Y POS
    578  dd61		       04		      DC.B	4	;			;BEGINNING ORIENTATION
    579  dd62		       7a		      DC.B	<CHRCK23A	;	      ;MOTION TBL PTR LOW
    580  dd63		       be		      DC.B	>CHRCK23A	;	      ;MOTION TBL PTR HIGH
    581  dd64		       c9		      DC.B	$C9	;		      ;MODE BYTE  (INV)
    582  dd65
    583  dd65		       01	   SHTY42     DC.B	$01	;		      ;SHIP TYPE  (BLUE)
    584  dd66		       4c		      DC.B	76	;		       ;BEGINNING X POS
    585  dd67		       fa		      DC.B	$FA	;		      ;BEGINNING Y POS
    586  dd68		       04		      DC.B	4	;			;BEGINNING ORIENTATION
    587  dd69		       e1		      DC.B	<CHRCK27A	;	      ;MOTION TBL PTR LOW
    588  dd6a		       be		      DC.B	>CHRCK27A	;	      ;MOTION TBL PTR HIGH
    589  dd6b		       89		      DC.B	$89	;		      ;MODE BYTE  (NORMAL)
    590  dd6c
    591  dd6c		       02	   SHTY43     DC.B	$02	;		      ;SHIP TYPE  (RED)
    592  dd6d		       f8		      DC.B	$F8	;		      ;BEGINNING X POS
    593  dd6e		       a0		      DC.B	160	;		      ;BEGINNING Y POS
    594  dd6f		       02		      DC.B	2	;			;BEGINNING ORIENTATION
    595  dd70		       0d		      DC.B	<CHRCK27B	;	      ;MOTION TBL PTR LOW
    596  dd71		       bf		      DC.B	>CHRCK27B	;	      ;MOTION TBL PTR HIGH
    597  dd72		       89		      DC.B	$89	;		      ;MODE BYTE  (NORMAL)
    598  dd73
    599  dd73		       01	   SHTY44     DC.B	$01	;		      ;SHIP TYPE  (BLUE)
    600  dd74		       a0		      DC.B	160	;		      ;BEGINNING X POS
    601  dd75		       a0		      DC.B	160	;		      ;BEGINNING Y POS
    602  dd76		       06		      DC.B	6	;			;BEGINNING ORIENTATION
    603  dd77		       0d		      DC.B	<CHRCK27B	;	      ;MOTION TBL PTR LOW
    604  dd78		       bf		      DC.B	>CHRCK27B	;	      ;MOTION TBL PTR HIGH
    605  dd79		       c9		      DC.B	$C9	;		      ;MODE BYTE  (INV)
    606  dd7a
    607  dd7a		       01	   SHTY45     DC.B	$01	;		      ;SHIP TYPE  (BLUE)
    608  dd7b		       54		      DC.B	84	;		       ;BEGINNING X POS
    609  dd7c		       fa		      DC.B	$FA	;		      ;BEGINNING Y POS
    610  dd7d		       04		      DC.B	4	;			;BEGINNING ORIENTATION
    611  dd7e		       e1		      DC.B	<CHRCK27A	;	      ;MOTION TBL PTR LOW
    612  dd7f		       be		      DC.B	>CHRCK27A	;	      ;MOTION TBL PTR HIGH
    613  dd80		       c9		      DC.B	$C9	;		      ;MODE BYTE  (INV)
    614  dd81
    615  dd81		       01	   SHTY46     DC.B	$01	;		      ;SHIP TYPE  (BLUE)
    616  dd82		       58		      DC.B	88	;		       ;BEGINNING X POS
    617  dd83		       fa		      DC.B	$FA	;		      ;BEGINNING Y POS
    618  dd84		       04		      DC.B	4	;			;BEGINNING ORIENTATION
    619  dd85		       68		      DC.B	<CHRCK31A	;	      ;MOTION TBL PTR LOW
    620  dd86		       bf		      DC.B	>CHRCK31A	;	      ;MOTION TBL PTR HIGH
    621  dd87		       89		      DC.B	$89	;		      ;MODE BYTE  (NORMAL)
    622  dd88
    623  dd88		       02	   SHTY47     DC.B	$02	;		      ;SHIP TYPE  (RED)
    624  dd89		       44		      DC.B	68	;		       ;BEGINNING X POS
    625  dd8a		       fa		      DC.B	$FA	;		      ;BEGINNING Y POS
    626  dd8b		       04		      DC.B	4	;			;BEGINNING ORIENTATION
    627  dd8c		       68		      DC.B	<CHRCK31A	;	      ;MOTION TBL PTR LOW
    628  dd8d		       bf		      DC.B	>CHRCK31A	;	      ;MOTION TBL PTR HIGH
    629  dd8e		       c9		      DC.B	$C9	;		      ;MODE BYTE  (INV)
    630  dd8f
    631  dd8f		       01	   SHTY48     DC.B	$01	;		      ;SHIP TYPE  (BLUE)
    632  dd90		       fa		      DC.B	$FA	;		      ;BEGINNING X POS
    633  dd91		       a0		      DC.B	160	;		      ;BEGINNING Y POS
    634  dd92		       01		      DC.B	1	;			;BEGINNING ORIENTATION
    635  dd93		       c2		      DC.B	<CHRCK31B	;	      ;MOTION TBL PTR LOW
    636  dd94		       bf		      DC.B	>CHRCK31B	;	      ;MOTION TBL PTR HIGH
    637  dd95		       89		      DC.B	$89	;		      ;MODE BYTE  (NORMAL)
    638  dd96
    639  dd96		       02	   SHTY49     DC.B	$02	;		      ;SHIP TYPE  (RED)
    640  dd97		       a0		      DC.B	160	;		      ;BEGINNING X POS
    641  dd98		       a0		      DC.B	160	;		      ;BEGINNING Y POS
    642  dd99		       07		      DC.B	7	;			;BEGINNING ORIENTATION
    643  dd9a		       c2		      DC.B	<CHRCK31B	;	      ;MOTION TBL PTR LOW
    644  dd9b		       bf		      DC.B	>CHRCK31B	;	      ;MOTION TBL PTR HIGH
    645  dd9c		       c9		      DC.B	$C9	;		      ;MODE BYTE  (INV)
    646  dd9d
    647  dd9d		       02	   SHTY50     DC.B	2	;			;SHIP TYPE  (RED)
    648  dd9e		       f8		      DC.B	$F8	;		      ;BEGINNING X POS
    649  dd9f		       a0		      DC.B	160	;		      ;BEGINNING Y POS
    650  dda0		       01		      DC.B	1	;			;BEGINNING ORIENTATION
    651  dda1		       bb		      DC.B	<CHRCK15B	;	      ;MOTION TBL PTR LOW
    652  dda2		       bc		      DC.B	>CHRCK15B	;	      ;MOTION TBL PTR HIGH
    653  dda3		       89		      DC.B	$89	;		      ;MODE BYTE  (NORMAL)
    654  dda4
    655  dda4		       02	   SHTY51     DC.B	2	;			;SHIP TYPE  (RED)
    656  dda5		       a0		      DC.B	160	;		      ;BEGINNING X POS
    657  dda6		       a0		      DC.B	160	;		      ;BEGINNING Y POS
    658  dda7		       07		      DC.B	7	;			;BEGINNING ORIENTATION
    659  dda8		       bb		      DC.B	<CHRCK15B	;	      ;MOTION TBL PTR LOW
    660  dda9		       bc		      DC.B	>CHRCK15B	;	      ;MOTION TBL PTR HIGH
    661  ddaa		       c9		      DC.B	$C9	;		      ;MODE BYTE  (INV)
    662  ddab
    663  ddab		       05	   SHTY52     DC.B	5	;			;SHIP TYPE  (HERO)
    664  ddac		       48		      DC.B	72	;		       ;BEGINNING X POS  (TOP)
    665  ddad		       fa		      DC.B	$FA	;		      ;BEGINNING Y POS
    666  ddae		       04		      DC.B	$04	;		      ;BEGINNING ORIENTATION
    667  ddaf		       dc		      DC.B	<MOTION1	;	       ;MOTION TBL PTR LOW
    668  ddb0		       dd		      DC.B	>MOTION1	;	       ;MOTION TBL PTR HIGH
    669  ddb1		       c0		      DC.B	$C0	;		      ;MODE BYTE  (INV)
    670  ddb2							;
    671  ddb2		       01	   SHTY53     DC.B	1	;			;SHIP TYPE
    672  ddb3		       f8		      DC.B	$F8	;		      ;BEGINNING X POS
    673  ddb4		       a0		      DC.B	160	;		      ;BEGINNING Y POS
    674  ddb5		       02		      DC.B	2	;			;BEGINNING ORIENTATION
    675  ddb6		       e8		      DC.B	<CHRACK7B	;	      ;MOTION TBL PTR LOW
    676  ddb7		       ba		      DC.B	>CHRACK7B	;	      ;MOTION TBL PTR HIGH
    677  ddb8		       89		      DC.B	$89	;		      ;MODE BYTE  (NORMAL)
    678  ddb9
    679  ddb9		       01	   SHTY54     DC.B	1	;			;SHIP TYPE
    680  ddba		       f8		      DC.B	$F8	;		      ;BEGINNING X POS
    681  ddbb		       a0		      DC.B	160	;		      ;BEGINNING Y POS
    682  ddbc		       02		      DC.B	2	;			;BEGINNING ORIENTATION
    683  ddbd		       c4		      DC.B	<CHRCK11B	;	      ;MOTION TBL PTR LOW
    684  ddbe		       bb		      DC.B	>CHRCK11B	;	      ;MOTION TBL PTR HIGH
    685  ddbf		       89		      DC.B	$89	;		      ;MODE BYTE  (NORMAL)
    686  ddc0
    687  ddc0		       03	   SHTY55     DC.B	$03	;		      ;SHIP TYPE
    688  ddc1		       f8		      DC.B	$F8	;		      ;BEGINNING X POS
    689  ddc2		       8c		      DC.B	140	;		      ;BEGINNING Y POS
    690  ddc3		       02		      DC.B	2	;			;BEGINNING ORIENTATION
    691  ddc4		       0b		      DC.B	<CHRCK19B	;	      ;MOTION TBL PTR LOW
    692  ddc5		       be		      DC.B	>CHRCK19B	;	      ;MOTION TBL PTR HIGH
    693  ddc6		       89		      DC.B	$89	;		      ;MODE BYTE  (NORMAL)
    694  ddc7
    695  ddc7		       02	   SHTY56     DC.B	2	;			;SHIP TYPE  (RED)
    696  ddc8		       f8		      DC.B	$F8	;		      ;BEGINNING X POS
    697  ddc9		       a0		      DC.B	160	;		      ;BEGINNING Y POS
    698  ddca		       02		      DC.B	2	;			;BEGINNING ORIENTATION
    699  ddcb		       99		      DC.B	<CHRCK23B	;	      ;MOTION TBL PTR LOW
    700  ddcc		       be		      DC.B	>CHRCK23B	;	      ;MOTION TBL PTR HIGH
    701  ddcd		       89		      DC.B	$89	;		      ;MODE BYTE  (NORMAL)
    702  ddce
    703  ddce		       03	   SHTY57     DC.B	3	;			;SHIP TYPE
    704  ddcf		       f8		      DC.B	$F8	;		      ;BEGINNING X POS
    705  ddd0		       a0		      DC.B	160	;		      ;BEGINNING Y POS
    706  ddd1		       02		      DC.B	2	;			;BEGINNING ORIENTATION
    707  ddd2		       0d		      DC.B	<CHRCK27B	;	      ;MOTION TBL PTR LOW
    708  ddd3		       bf		      DC.B	>CHRCK27B	;	      ;MOTION TBL PTR HIGH
    709  ddd4		       89		      DC.B	$89	;		      ;MODE BYTE  (NORMAL)
    710  ddd5
    711  ddd5		       03	   SHTY58     DC.B	$03	;		      ;SHIP TYPE
    712  ddd6		       fa		      DC.B	$FA	;		      ;BEGINNING X POS
    713  ddd7		       a0		      DC.B	160	;		      ;BEGINNING Y POS
    714  ddd8		       01		      DC.B	1	;			;BEGINNING ORIENTATION
    715  ddd9		       c2		      DC.B	<CHRCK31B	;	      ;MOTION TBL PTR LOW
    716  ddda		       bf		      DC.B	>CHRCK31B	;	      ;MOTION TBL PTR HIGH
    717  dddb		       89		      DC.B	$89	;		      ;MODE BYTE  (NORMAL)
------- FILE GLOAD.ASM
------- FILE GDAC4_1.ASM LEVEL 2 PASS 2
      0  dddc					      include	"GDAC4_1.ASM"
      1  dddc					      processor	6502
      2  dddc							;GDAC4.S
      3  dddc							;
      4  dddc							;
      5  dddc							;
      6  dddc							;THIS TABLE IS A MOTION TABLE WHICH CAUSES A SHIP TO ENTER IN THE FIRST, FOURTH,
      7  dddc							;AND FIFTH WAVES.  X AND ANGLE MUST BE NEGATED FOR HALF OF THE FIRST WAVE AND
      8  dddc							;THE FIFTH WAVE.
      9  dddc							;THERE ARE 110 ENTRIES.
     10  dddc							;
     11  dddc		       f6 04	   MOTION1    DC.B	$F6,$04
     12  ddde		       56 04		      DC.B	$56,$04
     13  dde0		       e5 04 e4 04*	      DC.B	$E5,$04,$E4,$04,$E4,$04,$E4,$04
     14  dde8		       56 e4 c4 e4*	      DC.B	$56,$E4,$C4,$E4,$C4,$E4
     15  ddee		       c4 e4 c4 e4*	      DC.B	$C4,$E4,$C4,$E4,$C4,$E4,$C4,$E4,$C4,$E4
     16  ddf8		       c4 e4 c4 e4*	      DC.B	$C4,$E4,$C4,$E4,$C4,$F6,$E4
     17  ddff		       e4 e4 04 e4*	      DC.B	$E4,$E4,$04,$E4,$04,$46
     18  de05		       e4 04 e4 04*	      DC.B	$E4,$04,$E4,$04,$E4,$04,$E4,$04,$E4,$04
     19  de0f		       e4 04 e4 04*	      DC.B	$E4,$04,$E4,$04,$E4,$26,$04,$E7,$04
     20  de18		       e4 c6		      DC.B	$E4,$C6
     21  de1a		       04 27 04 24*	      DC.B	$04,$27,$04,$24,$04,$36,$24
     22  de21		       44 24 44 24*	      DC.B	$44,$24,$44,$24,$24,$20,$24,$40
     23  de29		       27 20 24 	      DC.B	$27,$20,$24
     24  de2c		       f6 20		      DC.B	$F6,$20
     25  de2e		       26 20 3f 20*	      DC.B	$26,$20,$3F,$20,$3C,$20,$3C,$20,$3C,$20
     26  de38		       5c 3c 5c 36*	      DC.B	$5C,$3C,$5C,$36,$3C,$1C,$3C
     27  de3f		       66 1c 1f 26*	      DC.B	$66,$1C,$1F,$26,$1C
     28  de44		       3c 1c 3c a6	      DC.B	$3C,$1C,$3C,$A6
     29  de48		       1c 02		      DC.B	$1C,$02
     30  de4a
     31  de4a							;
     32  de4a							;THIS IS THE TABLE WHICH CAUSES A SHIP TO ENTER IN THE SECOND AND THIRD WAVES.
     33  de4a							;X AND ANGLE MUST BE NEGATED FOR THE THIRD WAVE.
     34  de4a							;141 ENTRIES
     35  de4a		       3c 20 3c 20*MOTION2    DC.B	$3C,$20,$3C,$20,$3C,$20,$3C,$20,$3C,$20
     36  de54		       3c 20 3c 20*	      DC.B	$3C,$20,$3C,$20,$3C,$20,$3C,$20,$3C,$20
     37  de5e		       3c 20 3c 20*	      DC.B	$3C,$20,$3C,$20,$3C,$20,$3C,$20,$3C,$20
     38  de68		       3c 20 3c 20*	      DC.B	$3C,$20,$3C,$20,$3C,$20,$3C,$20,$3C,$20
     39  de72		       3c 3c 3c 20*	      DC.B	$3C,$3C,$3C,$20,$3C,$20,$3C,$3C,$3C,$20
     40  de7c		       3c 20		      DC.B	$3C,$20
     41  de7e		       f6 3c		      DC.B	$F6,$3C
     42  de80		       46 3c 1c 3c*	      DC.B	$46,$3C,$1C,$3C,$1C,$3C,$1C,$3F,$66,$1C
     43  de8a		       fc 1c fc 26	      DC.B	$FC,$1C,$FC,$26
     44  de8e		       1c fc 1c ff*	      DC.B	$1C,$FC,$1C,$FF,$1C,$26,$FC,$E0
     45  de96		       fc e0 e3 86	      DC.B	$FC,$E0,$E3,$86
     46  de9a		       e0 e7 e0 e4*	      DC.B	$E0,$E7,$E0,$E4,$E0,$E4,$E0,$E4,$E0
     47  dea3		       e4 04 e4 04*	      DC.B	$E4,$04,$E4,$04,$E4,$04,$E7,$86
     48  deab		       04 27 04 24*	      DC.B	$04,$27,$04,$24,$04
     49  deb0		       24 04 24 04*	      DC.B	$24,$04,$24,$04,$26,$24,$20,$24,$20
     50  deb9		       23		      DC.B	$23
     51  deba		       a6 20 3f 20*	      DC.B	$A6,$20,$3F,$20,$3C,$20,$26,$3C,$1C
     52  dec3		       3c 1c 3c 1c*	      DC.B	$3C,$1C,$3C,$1C,$3C,$1C,$3C,$1C,$3C
     53  decc		       46 1c 1f 26*	      DC.B	$46,$1C,$1F,$26,$1C,$3C,$1C
     54  ded3		       3c		      DC.B	$3C
     55  ded4		       c6 1c 02 	      DC.B	$C6,$1C,$02
     56  ded7
     57  ded7
     58  ded7							;THIS TABLE IS A MOTION TABLE WHICH IS FOLLOWED BY AN ATTACKING BLUE SHIP.
     59  ded7							;IT IS GONE THROUGH TWICE.
     60  ded7							;THERE ARE TWO PARTS, ONLY THE SECOND PART IS REPEATED.
     61  ded7							;THERE ARE A TOTAL OF 58 ENTRIES
     62  ded7							;
     63  ded7		       ff 1c df fc*BATBL1     DC.B	$FF,$1C,$DF,$FC,$C7,$E4,$E7
     64  dede		       f6 04	   BATBL1B    DC.B	$F6,$04
     65  dee0		       d6 04		      DC.B	$D6,$04
     66  dee2		       56 04 24 04*BATBL1A    DC.B	$56,$04,$24,$04,$27,$04
     67  dee8		       24 04 24 04*	      DC.B	$24,$04,$24,$04,$26,$24,$00,$24,$00
     68  def1		       27 20 24 66*	      DC.B	$27,$20,$24,$66,$20
     69  def6		       24 20 25 20*	      DC.B	$24,$20,$25,$20,$24,$20,$24,$20,$24,$20
     70  df00		       24 20 24 20*	      DC.B	$24,$20,$24,$20,$28,$24,$28,$24,$24,$04
     71  df0a		       24 04 25 04*	      DC.B	$24,$04,$25,$04,$24,$04,$02
     72  df11
     73  df11							;THIS TABLE INDEXED BY RACK TELLS HOW MANY MISSLES CAN EXIST AT A TIME
     74  df11							;DURING THE SPECIFIC RACK
     75  df11							;32 ENTRIES
     76  df11		       35 2f 30 2e*NUMMIS     DC.B	53,47,48,46,48,49,49,46	;46=0,47=1,ETC
     77  df19		       31 31 31 2e*	      DC.B	49,49,49,46,49,50,50,46
     78  df21		       30 31 31 2e*	      DC.B	48,49,49,46,49,49,50,46
     79  df29		       31 31 31 2e*	      DC.B	49,49,49,46,50,50,51
     80  df30		       2e		      DC.B	46
     81  df31
     82  df31							;THESE TABLES ARE THE MOTION TABLES FOR BOSS ATTACK
     83  df31							;9 ENTRIES
     84  df31		       ff 1c df fc*BOTBL1     DC.B	$FF,$1C,$DF,$FC,$C7,$E4,$E7,$04,$02
     85  df3a
     86  df3a							;THIS IS A HSC GAMEPOLL ROUTINE
     87  df3a				   GAMEPOLL
     88  df3a		       ae 80 02 	      LDX	SWCHA
     89  df3d		       e8		      INX
     90  df3e		       d0 11		      BNE	FUCKYES	;		  YES, THERE IS AN INPUT
     91  df40		       ad 82 02 	      LDA	SWCHB
     92  df43		       29 03		      AND	#$03
     93  df45		       c9 03		      CMP	#$03
     94  df47		       d0 08		      BNE	FUCKYES	;		  YES, THERE IS AN INPUT
     95  df49		       a5 0c		      LDA	INPT4
     96  df4b		       25 0d		      AND	INPT5
     97  df4d		       10 02		      BPL	FUCKYES
     98  df4f		       18		      CLC		;			      SIGNAL NO INPUT
     99  df50		       60		      RTS
    100  df51		       38	   FUCKYES    SEC		;			      SIGNAL INPUT FOUND
    101  df52		       60		      RTS
    102  df53
    103  df53							; THIS TABLE IS COPIED INTO RAM WHEN HSC IS CALLED.  IT"S THE ARGUMENT BLOCK
    104  df53							;	   NEEDED BY THE HSC.
    105  df53
    106  df53		       86 26	   HSCROM     DC.B	$86,$26	;		  ; CARTRIDGE ID NUMBER
    107  df55							;				 ; trailing zero bit set
    108  df55		       00		      DC.B	$00	;		      ; DIFFICULTY LEVEL
    109  df56							;				 ;  + PLAYER NUMBER (BOTTOM 2 BITS)
    110  df56		       00		      DC.B	$00	;		      ; CONTROLLER TYPE
    111  df57
    112  df57		       00		      DC.B	0
    113  df58		       00		      DC.B	0	;			;USE ZEROS FOR GAMENAME
    114  df59		       51		      DC.B	<DNAME0	;	      ; POINTER TO DIFFICULTY NAME
    115  df5a		       b9		      DC.B	>DNAME0	;		;26 BYTES LONG
    116  df5b		       e8 00		      DC.B	<HSCORE,>HSCORE	; POINTER TO THE SCORE
    117  df5d							;				 ;   WILL BE PL0SCORE OR PL1SCORE
    118  df5d		       3c b9		      DC.B	<HSCDLL,>HSCDLL	; DLIST LIST POINTER FOR LOGO
    119  df5f
    120  df5f		       f6 88		      DC.B	<TWINKEL,>TWINKEL	; TWINKLE ROUTINE
    121  df61
    122  df61		       04		      DC.B	$04	;		      ; SECONDS TO WAIT BEFORE RETURNING
    123  df62							;				 ;  (FOR EACH DIFFICULTY LEVEL)
    124  df62
    125  df62
    126  df62		       51 65 76    DNTABL     DC.B	<DNAME0,<DNAME1,<DNAME2	;NOVICE,ADVANCED,EXPERT
    127  df65		       b9 b9 b9    DNTABH     DC.B	>DNAME0,>DNAME1,>DNAME2
    128  df68		       43 50 41 48*TWINKY     DC.B	$43,$50,$41,$48,$52,$50,$5D
    129  df6f		       49	   END3       DC.B	$49
    130  df70
    131  df70
    132  df70							;   ORG      $DF76;$DF76 ; uh oh this could be quite bad if hardcoded, so thats not good :/
    133  df70							;COPYRIGHT GCC 1984
    134  df70							;   DC.B      $47,$43,$43,$28,$63,$29,$31,$39,$38,$34
    135  df70
------- FILE GLOAD.ASM
------- FILE GLOADER2.ASM LEVEL 2 PASS 2
      0  df70					      include	"GLOADER2.ASM"
      1  df70
      2  df70							;;*;*;*;*;*;*;*;*;*;*;*;*;*;*;*;*;*;*;*;*;*;*;*;*;*;*;*;*;*;*;*;*;*;*;*;*;*;*;*;*;*;*;*;*;*;*;*;*;*;*;*;*;*;*;*;*;*;*;*;*;*;*;*;*;*;*;*;*;*;*;*;*;*;*;*;*;*;*;*
      3  df70							; VECTORS FOR STARTUP
      4  df70							;   ORG     $DF73
      5  df70		       4c f8 af    STARTUP1   JMP	STARTUP
      6  df73					      ORG	STARTUP1 + 3
      7  df73		       47 43 43 28*	      DC.B	$47,$43,$43,$28,$63,$29,$31,$39,$38,$34
      8  df7d
      9  dff5					      ORG	STARTUP1 + $85	;   ORG     $DFF8
     10  dff5		       ff e7		      DC.B	$FF,$E7	;		  ;SECURITY ROM
     11  dff7		       55 b1		      DC.B	<HANDLER,>HANDLER	;NMI VECTOR FOR DLI
     12  dff9		       70 20 df 20	      DC.W	<STARTUP1+$2000,>STARTUP1+$2000	;STARTUP VECTOR
     13  dffd		       08 b6		      DC.B	<SPURIOUS,>SPURIOUS	; HITS AN RTI
     14  dfff							;;*;*;*;*;*;*;*;*;*;*;*;*;*;*;*;*;*;*;*;*;*;*;*;*;*;*;*;*;*;*;*;*;*;*;*;*;*;*;*;*;*;*;*;*;*;*;*;*;*;*;*;*;*;*;*;*;*;*;*;*;*;*;*;*;*;*;*;*;*;*;*;*;*;*;*;*;*;*;*
     15  ff73					      ORG	$FF73
     16  ff73		       4c f8 af 	      JMP	STARTUP
     17  ff76
     18  ff76							;;*;*;*;*;*;*;*;*;*;*;*;*;*;*;*;*;*;*;*;*;*;*;*;*;*;*;*;*;*;*;*;*;*;*;*;*;*;*;*;*;*;*;*;*;*;*;*;*;*;*;*;*;*;*;*;*;*;*;*;*;*;*;*;*;*;*;*;*;*;*;*;*;*;*;*;*;*;*;*
     19  ff76							; VECTORS FOR STARTUP
     20  fff8					      ORG	$FFF8
     21  fff8		       ff e7		      DC.B	$FF,$E7	;		  ;SECURITY ROM
     22  fffa		       55 b1		      DC.B	<HANDLER,>HANDLER	;NMI VECTOR FOR DLI
     23  fffc		       70 df		      DC.B	<STARTUP1,>STARTUP1	;STARTUP VECTOR
     24  fffe		       08 b6		      DC.B	<SPURIOUS,>SPURIOUS	; HITS AN RTI
     25  10000							;;*;*;*;*;*;*;*;*;*;*;*;*;*;*;*;*;*;*;*;*;*;*;*;*;*;*;*;*;*;*;*;*;*;*;*;*;*;*;*;*;*;*;*;*;*;*;*;*;*;*;*;*;*;*;*;*;*;*;*;*;*;*;*;*;*;*;*;*;*;*;*;*;*;*;*;*;*;*;*
     26  10000							;;*;*;*;*;*;*;*;*;*;*;*;*;*;*;*;*;*;*;*;*;*;*;*;*;*;*;*;*;*;*;*;*;*;*;*;*;*;*;*;*;*;*;*;*;*;*;*;*;*;*;*;*;*;*;*;*;*;*;*;*;*;*;*;*;*;*;*;*;*;*;*;*;*;*;*;*;*;*;*
------- FILE GLOAD.ASM
